******************************************************************************
                  TI ARM Linker PC v18.1.2                     
******************************************************************************
>> Linked Thu Sep 20 00:39:44 2018

OUTPUT FILE NAME:   <WhiteTower.out>
ENTRY POINT SYMBOL: "_c_int00_noargs"  address: 0001424d


MEMORY CONFIGURATION

         name            origin    length      used     unused   attr    fill
----------------------  --------  ---------  --------  --------  ----  --------
  FLASH                 00000000   00100000  0001879e  000e7862  R  X
  SRAM                  20000000   00040000  00021491  0001eb6f  RW X


SEGMENT ALLOCATION MAP

run origin  load origin   length   init length attrs members
----------  ----------- ---------- ----------- ----- -------
00000000    00000000    000187a8   000187a8    r-x
  00000000    00000000    00000208   00000208    r-- .intvecs
  00000208    00000208    000167fa   000167fa    r-x .text
  00016a08    00016a08    00001cd4   00001cd4    r-- .const
  000186dc    000186dc    00000020   00000020    r-- .init_array
  00018700    00018700    000000a8   000000a8    r-- .cinit
20000000    20000000    00021494   00000000    rw-
  20000000    20000000    00010000   00000000    rw- .stack
  20010000    20010000    00010000   00000000    rw- .sysmem
  20020000    20020000    00000af5   00000000    rw- .bss
  20020af8    20020af8    0000099c   00000000    rw- .data


SECTION ALLOCATION MAP

 output                                  attributes/
section   page    origin      length       input sections
--------  ----  ----------  ----------   ----------------
.intvecs   0    00000000    00000208     
                  00000000    00000208     tm4c1294ncpdt_startup_ccs.obj (.intvecs)

.text      0    00000208    000167fa     
                  00000208    00000af0     rtsv7M4_T_le_v4SPD16_eabi.lib : _scanfi.c.obj (.text:__TI_scanfi)
                  00000cf8    00000a5e                                   : _printfi.c.obj (.text:__TI_printfi)
                  00001756    00000002                                   : string.cpp.obj (.text:_ZNKSt3__222__compressed_pair_elemINS_12basic_stringIwNS_11char_traitsIwEENS_9allocatorIwEEE5__repELi0ELb0EE5__getEv)
                  00001758    00000956                                   : locale.cpp.obj (.text:_ZNSt3__29money_getIcNS_19istreambuf_iteratorIcNS_11char_traitsIcEEEEE8__do_getERS4_S4_bRKNS_6localeEjRjRbRKNS_5ctypeIcEERNS_10unique_ptrIcPFvPvEEERPcSM_)
                  000020ae    00000002                                   : locale.cpp.obj (.text:_ZNKSt3__28messagesIcE8do_closeEi)
                  000020b0    00000870                                   : locale.cpp.obj (.text:_ZNSt3__29money_getIwNS_19istreambuf_iteratorIwNS_11char_traitsIwEEEEE8__do_getERS4_S4_bRKNS_6localeEjRjRbRKNS_5ctypeIwEERNS_10unique_ptrIwPFvPvEEERPwSM_)
                  00002920    000005fc     TimeHandler.obj (.text)
                  00002f1c    000004cc     ComandCenter.obj (.text)
                  000033e8    00000464     rtsv7M4_T_le_v4SPD16_eabi.lib : strftime.c.obj (.text:strftime)
                  0000384c    00000460                                   : locale.cpp.obj (.text:_ZNSt3__26locale5__impC1Ej)
                  00003cac    00000460                                   : strtod.c.obj (.text:strtod)
                  0000410c    00000440     Monitor.obj (.text)
                  0000454c    000003c8     rtsv7M4_T_le_v4SPD16_eabi.lib : strtof.c.obj (.text:strtof)
                  00004914    000003b0                                   : locale.cpp.obj (.text:_ZNSt3__211__money_getIcE13__gather_infoEbRKNS_6localeERNS_10money_base7patternERcS8_RNS_12basic_stringIcNS_11char_traitsIcEENS_9allocatorIcEEEESF_SF_SF_Ri)
                  00004cc4    000003b0                                   : locale.cpp.obj (.text:_ZNSt3__211__money_getIwE13__gather_infoEbRKNS_6localeERNS_10money_base7patternERwS8_RNS_12basic_stringIcNS_11char_traitsIcEENS_9allocatorIcEEEERNS9_IwNSA_IwEENSC_IwEEEESJ_SJ_Ri)
                  00005074    00000348                                   : locale.cpp.obj (.text:_ZNSt3__211__money_putIcE13__gather_infoEbbRKNS_6localeERNS_10money_base7patternERcS8_RNS_12basic_stringIcNS_11char_traitsIcEENS_9allocatorIcEEEESF_SF_Ri)
                  000053bc    00000348                                   : locale.cpp.obj (.text:_ZNSt3__211__money_putIwE13__gather_infoEbbRKNS_6localeERNS_10money_base7patternERwS8_RNS_12basic_stringIcNS_11char_traitsIcEENS_9allocatorIcEEEERNS9_IwNSA_IwEENSC_IwEEEESJ_Ri)
                  00005704    000002fc                                   : locale.cpp.obj (.text:_ZNKSt3__28time_getIcNS_19istreambuf_iteratorIcNS_11char_traitsIcEEEEE6do_getES4_S4_RNS_8ios_baseERjP2tmcc)
                  00005a00    000002f8                                   : locale.cpp.obj (.text:_ZNKSt3__28time_getIwNS_19istreambuf_iteratorIwNS_11char_traitsIwEEEEE6do_getES4_S4_RNS_8ios_baseERjP2tmcc)
                  00005cf8    000002a4                                   : locale.cpp.obj (.text:_ZNSt3__211__money_putIwE8__formatEPwRS2_S3_jPKwS5_RKNS_5ctypeIwEEbRKNS_10money_base7patternEwwRKNS_12basic_stringIcNS_11char_traitsIcEENS_9allocatorIcEEEERKNSE_IwNSF_IwEENSH_IwEEEESQ_i)
                  00005f9c    0000029a                                   : locale.cpp.obj (.text:_ZNSt3__211__money_putIcE8__formatEPcRS2_S3_jPKcS5_RKNS_5ctypeIcEEbRKNS_10money_base7patternEccRKNS_12basic_stringIcNS_11char_traitsIcEENS_9allocatorIcEEEESL_SL_i)
                  00006236    00000002                                   : locale.cpp.obj (.text:_ZNKSt3__28messagesIwE8do_closeEi)
                  00006238    00000294                                   : iostream.cpp.obj (.text:_ZNSt3__28ios_base4InitC1Ev)
                  000064cc    00000278                                   : locale.cpp.obj (.text:_ZNKSt3__220__time_get_c_storageIwE8__monthsEv)
                  00006744    00000274                                   : locale.cpp.obj (.text:_ZNKSt3__29money_getIcNS_19istreambuf_iteratorIcNS_11char_traitsIcEEEEE6do_getES4_S4_bRNS_8ios_baseERjRNS_12basic_stringIcS3_NS_9allocatorIcEEEE)
                  000069b8    00000274                                   : locale.cpp.obj (.text:_ZNSt3__29__num_putIwE23__widen_and_group_floatEPcS2_S2_PwRS3_S4_RKNS_6localeE)
                  00006c2c    00000270                                   : _printfi.c.obj (.text:_pconv_a)
                  00006e9c    00000268                                   : locale.cpp.obj (.text:_ZNSt3__29__num_putIcE23__widen_and_group_floatEPcS2_S2_S2_RS2_S3_RKNS_6localeE)
                  00007104    00000250                                   : locale.cpp.obj (.text:_ZNKSt3__29money_putIwNS_19ostreambuf_iteratorIwNS_11char_traitsIwEEEEE6do_putES4_bRNS_8ios_baseEwe)
                  00007354    00000248                                   : locale.cpp.obj (.text:_ZNKSt3__29money_getIwNS_19istreambuf_iteratorIwNS_11char_traitsIwEEEEE6do_getES4_S4_bRNS_8ios_baseERjRNS_12basic_stringIwS3_NS_9allocatorIwEEEE)
                  0000759c    0000023c                                   : locale.cpp.obj (.text:_ZNKSt3__29money_putIcNS_19ostreambuf_iteratorIcNS_11char_traitsIcEEEEE6do_putES4_bRNS_8ios_baseEce)
                  000077d8    000001fc                                   : locale.cpp.obj (.text:_ZNKSt3__220__time_get_c_storageIcE8__monthsEv)
                  000079d4    000001f8                                   : locale.cpp.obj (.text:_ZNKSt3__29money_putIwNS_19ostreambuf_iteratorIwNS_11char_traitsIwEEEEE6do_putES4_bRNS_8ios_baseEwRKNS_12basic_stringIwS3_NS_9allocatorIwEEEE)
                  00007bcc    000001f4                                   : locale.cpp.obj (.text:_ZNKSt3__29money_putIcNS_19ostreambuf_iteratorIcNS_11char_traitsIcEEEEE6do_putES4_bRNS_8ios_baseEcRKNS_12basic_stringIcS3_NS_9allocatorIcEEEE)
                  00007dc0    000001f0                                   : locale.cpp.obj (.text:_ZNSt3__214__scan_keywordINS_19istreambuf_iteratorIcNS_11char_traitsIcEEEEPKNS_12basic_stringIcS3_NS_9allocatorIcEEEENS_5ctypeIcEEEET0_RT_SE_SD_SD_RKT1_Rjb)
                  00007fb0    000001ec                                   : locale.cpp.obj (.text:_ZNSt3__214__scan_keywordINS_19istreambuf_iteratorIwNS_11char_traitsIwEEEEPKNS_12basic_stringIwS3_NS_9allocatorIwEEEENS_5ctypeIwEEEET0_RT_SE_SD_SD_RKT1_Rjb)
                  0000819c    000001dc                                   : strtoll.c.obj (.text:strtoll)
                  00008378    000001d8                                   : locale.cpp.obj (.text:_ZNKSt3__27num_getIwNS_19istreambuf_iteratorIwNS_11char_traitsIwEEEEE15__do_get_signedIlEES4_S4_S4_RNS_8ios_baseERjRT_)
                  00008550    000001d8                                   : locale.cpp.obj (.text:_ZNKSt3__27num_getIwNS_19istreambuf_iteratorIwNS_11char_traitsIwEEEEE15__do_get_signedIxEES4_S4_S4_RNS_8ios_baseERjRT_)
                  00008728    000001d8                                   : locale.cpp.obj (.text:_ZNKSt3__27num_getIwNS_19istreambuf_iteratorIwNS_11char_traitsIwEEEEE17__do_get_unsignedIjEES4_S4_S4_RNS_8ios_baseERjRT_)
                  00008900    000001d8                                   : locale.cpp.obj (.text:_ZNKSt3__27num_getIwNS_19istreambuf_iteratorIwNS_11char_traitsIwEEEEE17__do_get_unsignedImEES4_S4_S4_RNS_8ios_baseERjRT_)
                  00008ad8    000001d8                                   : locale.cpp.obj (.text:_ZNKSt3__27num_getIwNS_19istreambuf_iteratorIwNS_11char_traitsIwEEEEE17__do_get_unsignedItEES4_S4_S4_RNS_8ios_baseERjRT_)
                  00008cb0    000001d8                                   : locale.cpp.obj (.text:_ZNKSt3__27num_getIwNS_19istreambuf_iteratorIwNS_11char_traitsIwEEEEE17__do_get_unsignedIyEES4_S4_S4_RNS_8ios_baseERjRT_)
                  00008e88    000001d0                                   : locale.cpp.obj (.text:_ZN32_INTERNAL_10_locale_cpp_a7183203St3__213utf8_to_utf16EPKhS1_RS1_PtS3_RS3_mNS_12codecvt_modeE)
                  00009058    000001d0                                   : _printfi.c.obj (.text:_pconv_g)
                  00009228    000001cc                                   : locale.cpp.obj (.text:_ZNSt3__29__num_putIwE21__widen_and_group_intEPcS2_S2_PwRS3_S4_RKNS_6localeE)
                  000093f4    000001c8                                   : locale.cpp.obj (.text:_ZNSt3__29__num_putIcE21__widen_and_group_intEPcS2_S2_S2_RS2_S3_RKNS_6localeE)
                  000095bc    000001c4                                   : locale.cpp.obj (.text:_ZNKSt3__27num_getIwNS_19istreambuf_iteratorIwNS_11char_traitsIwEEEEE6do_getES4_S4_RNS_8ios_baseERjRPv)
                  00009780    000001b6                                   : fd_add_t2.asm.obj (.text)
                  00009936    00000002                                   : locale.cpp.obj (.text:_ZNSt3__212__do_nothingEPv)
                  00009938    000001b4     main.obj (.text)
                  00009aec    000001b0     rtsv7M4_T_le_v4SPD16_eabi.lib : locale.cpp.obj (.text:_ZNKSt3__220__time_get_c_storageIwE7__weeksEv)
                  00009c9c    000001b0                                   : locale.cpp.obj (.text:_ZNKSt3__27num_getIcNS_19istreambuf_iteratorIcNS_11char_traitsIcEEEEE15__do_get_signedIxEES4_S4_S4_RNS_8ios_baseERjRT_)
                  00009e4c    000001b0                                   : locale.cpp.obj (.text:_ZNKSt3__27num_getIcNS_19istreambuf_iteratorIcNS_11char_traitsIcEEEEE17__do_get_unsignedIyEES4_S4_S4_RNS_8ios_baseERjRT_)
                  00009ffc    000001b0                                   : locale.cpp.obj (.text:_ZNKSt3__27num_getIcNS_19istreambuf_iteratorIcNS_11char_traitsIcEEEEE6do_getES4_S4_RNS_8ios_baseERjRPv)
                  0000a1ac    000001ac                                   : locale.cpp.obj (.text:_ZNKSt3__27num_getIcNS_19istreambuf_iteratorIcNS_11char_traitsIcEEEEE15__do_get_signedIlEES4_S4_S4_RNS_8ios_baseERjRT_)
                  0000a358    000001ac                                   : locale.cpp.obj (.text:_ZNKSt3__27num_getIcNS_19istreambuf_iteratorIcNS_11char_traitsIcEEEEE17__do_get_unsignedIjEES4_S4_S4_RNS_8ios_baseERjRT_)
                  0000a504    000001ac                                   : locale.cpp.obj (.text:_ZNKSt3__27num_getIcNS_19istreambuf_iteratorIcNS_11char_traitsIcEEEEE17__do_get_unsignedImEES4_S4_S4_RNS_8ios_baseERjRT_)
                  0000a6b0    000001ac                                   : locale.cpp.obj (.text:_ZNKSt3__27num_getIcNS_19istreambuf_iteratorIcNS_11char_traitsIcEEEEE17__do_get_unsignedItEES4_S4_S4_RNS_8ios_baseERjRT_)
                  0000a85c    000001ac                                   : locale.cpp.obj (.text:_ZNKSt3__27num_getIcNS_19istreambuf_iteratorIcNS_11char_traitsIcEEEEE23__do_get_floating_pointIdEES4_S4_S4_RNS_8ios_baseERjRT_)
                  0000aa08    000001ac                                   : locale.cpp.obj (.text:_ZNKSt3__27num_getIcNS_19istreambuf_iteratorIcNS_11char_traitsIcEEEEE23__do_get_floating_pointIeEES4_S4_S4_RNS_8ios_baseERjRT_)
                  0000abb4    000001aa                                   : locale.cpp.obj (.text:_ZNKSt3__27num_getIwNS_19istreambuf_iteratorIwNS_11char_traitsIwEEEEE23__do_get_floating_pointIdEES4_S4_S4_RNS_8ios_baseERjRT_)
                  0000ad5e    000001aa                                   : locale.cpp.obj (.text:_ZNKSt3__27num_getIwNS_19istreambuf_iteratorIwNS_11char_traitsIwEEEEE23__do_get_floating_pointIeEES4_S4_S4_RNS_8ios_baseERjRT_)
                  0000af08    000001a8                                   : locale.cpp.obj (.text:_ZNKSt3__27num_getIcNS_19istreambuf_iteratorIcNS_11char_traitsIcEEEEE23__do_get_floating_pointIfEES4_S4_S4_RNS_8ios_baseERjRT_)
                  0000b0b0    000001a6                                   : locale.cpp.obj (.text:_ZNKSt3__27num_getIwNS_19istreambuf_iteratorIwNS_11char_traitsIwEEEEE23__do_get_floating_pointIfEES4_S4_S4_RNS_8ios_baseERjRT_)
                  0000b256    00000002                                   : memory.cpp.obj (.text:_ZNSt3__214__shared_countD1Ev)
                  0000b258    00000190                                   : locale.cpp.obj (.text:_ZNKSt3__28time_getIwNS_19istreambuf_iteratorIwNS_11char_traitsIwEEEEE3getES4_S4_RNS_8ios_baseERjP2tmPKwSC_)
                  0000b3e8    00000188     ISRMsgMaker.obj (.text)
                  0000b570    00000184     rtsv7M4_T_le_v4SPD16_eabi.lib : locale.cpp.obj (.text:_ZNKSt3__28time_getIcNS_19istreambuf_iteratorIcNS_11char_traitsIcEEEEE3getES4_S4_RNS_8ios_baseERjP2tmPKcSC_)
                  0000b6f4    00000182                                   : locale.cpp.obj (.text:_ZN32_INTERNAL_10_locale_cpp_a7183203St3__212utf8_to_ucs4EPKhS1_RS1_PjS3_RS3_mNS_12codecvt_modeE)
                  0000b876    00000002                                   : ios.cpp.obj (.text:_ZNSt3__215basic_streambufIcNS_11char_traitsIcEEE5imbueERKNS_6localeE)
                  0000b878    00000180                                   : locale.cpp.obj (.text:_ZNKSt3__29money_getIcNS_19istreambuf_iteratorIcNS_11char_traitsIcEEEEE6do_getES4_S4_bRNS_8ios_baseERjRe)
                  0000b9f8    00000180                                   : fwrite.c.obj (.text:fwrite)
                  0000bb78    00000174                                   : locale.cpp.obj (.text:_ZN32_INTERNAL_10_locale_cpp_a7183203St3__213utf16_to_utf8EPKtS1_RS1_PhS3_RS3_mNS_12codecvt_modeE)
                  0000bcec    00000168     UART0Driver.obj (.text)
                  0000be54    0000015c     rtsv7M4_T_le_v4SPD16_eabi.lib : locale.cpp.obj (.text:_ZNKSt3__220__time_get_c_storageIcE7__weeksEv)
                  0000bfb0    0000015c                                   : strtoull.c.obj (.text:strtoull)
                  0000c10c    0000014c                                   : locale.cpp.obj (.text:_ZNSt3__29__num_getIwE19__stage2_float_loopEwRbRcPcRS4_wwRKNS_12basic_stringIcNS_11char_traitsIcEENS_9allocatorIcEEEEPjRSE_RjPw)
                  0000c258    00000148                                   : locale.cpp.obj (.text:_ZN32_INTERNAL_10_locale_cpp_a7183203St3__220utf8_to_utf16_lengthEPKhS1_jmNS_12codecvt_modeE)
                  0000c3a0    00000148                                   : locale.cpp.obj (.text:_ZNSt3__29__num_getIcE19__stage2_float_loopEcRbRcPcRS4_ccRKNS_12basic_stringIcNS_11char_traitsIcEENS_9allocatorIcEEEEPjRSE_RjS4_)
                  0000c4e8    00000140                                   : locale.cpp.obj (.text:_ZNKSt3__27num_putIcNS_19ostreambuf_iteratorIcNS_11char_traitsIcEEEEE6do_putES4_RNS_8ios_baseEcd)
                  0000c628    00000140                                   : locale.cpp.obj (.text:_ZNKSt3__27num_putIwNS_19ostreambuf_iteratorIwNS_11char_traitsIwEEEEE6do_putES4_RNS_8ios_baseEwe)
                  0000c768    0000013e                                   : locale.cpp.obj (.text:_ZN32_INTERNAL_10_locale_cpp_a7183203St3__219utf8_to_ucs4_lengthEPKhS1_jmNS_12codecvt_modeE)
                  0000c8a6    00000002                                   : ios.cpp.obj (.text:_ZNSt3__215basic_streambufIcNS_11char_traitsIcEEE6setbufEPci)
                  0000c8a8    0000013c                                   : locale.cpp.obj (.text:_ZNKSt3__27num_putIcNS_19ostreambuf_iteratorIcNS_11char_traitsIcEEEEE6do_putES4_RNS_8ios_baseEce)
                  0000c9e4    0000013c                                   : locale.cpp.obj (.text:_ZNKSt3__27num_putIwNS_19ostreambuf_iteratorIwNS_11char_traitsIwEEEEE6do_putES4_RNS_8ios_baseEwd)
                  0000cb20    0000013c                                   : locale.cpp.obj (.text:_ZNKSt3__29money_getIwNS_19istreambuf_iteratorIwNS_11char_traitsIwEEEEE6do_getES4_S4_bRNS_8ios_baseERjRe)
                  0000cc5c    0000013c                                   : _printfi.c.obj (.text:_pconv_e)
                  0000cd98    00000136                                   : fd_div_t2.asm.obj (.text)
                  0000cece    00000002                                   : ios.cpp.obj (.text:_ZNSt3__215basic_streambufIwNS_11char_traitsIwEEE5imbueERKNS_6localeE)
                  0000ced0    00000134                                   : vla_alloc.c.obj (.text:__vla_alloc)
                  0000d004    00000130                                   : strtol.c.obj (.text:strtol)
                  0000d134    0000012c                                   : locale.cpp.obj (.text:_ZNKSt3__27codecvtIwciE5do_inERiPKcS4_RS4_PwS6_RS6_)
                  0000d260    00000120                                   : _printfi.c.obj (.text:fcvt)
                  0000d380    0000011c                                   : locale.cpp.obj (.text:_ZNSt3__216__pad_and_outputIwNS_11char_traitsIwEEEENS_19ostreambuf_iteratorIT_T0_EES6_PKS4_S8_S8_RNS_8ios_baseES4_)
                  0000d49c    00000118                                   : locale.cpp.obj (.text:_ZNKSt3__27codecvtIwciE6do_outERiPKwS4_RS4_PcS6_RS6_)
                  0000d5b4    00000114                                   : iostream.cpp.obj (.text:_ZNSt3__210__stdinbufIwE9__getcharEb)
                  0000d6c8    00000114                                   : string.cpp.obj (.text:_ZNSt3__212basic_stringIwNS_11char_traitsIwEENS_9allocatorIwEEE7reserveEj)
                  0000d7dc    00000114                                   : memory.c.obj (.text:realloc)
                  0000d8f0    00000110                                   : iostream.cpp.obj (.text:_ZNSt3__210__stdinbufIcE9__getcharEb)
                  0000da00    00000110                                   : s_scalbn.c.obj (.text:scalbn)
                  0000db10    00000110                                   : strtoul.c.obj (.text:strtoul)
                  0000dc20    0000010c                                   : string.cpp.obj (.text:_ZNSt3__212basic_stringIwNS_11char_traitsIwEENS_9allocatorIwEEE21__grow_by_and_replaceEjjjjjjPKw)
                  0000dd2c    000000fe                                   : locale.cpp.obj (.text:_ZN32_INTERNAL_10_locale_cpp_a7183203St3__212ucs4_to_utf8EPKjS1_RS1_PhS3_RS3_mNS_12codecvt_modeE)
                  0000de2a    000000fc                                   : fd_mul_t2.asm.obj (.text)
                  0000df26    000000f2                                   : string.cpp.obj (.text:_ZNSt3__212basic_stringIcNS_11char_traitsIcEENS_9allocatorIcEEE7reserveEj)
                  0000e018    000000f0                                   : string.cpp.obj (.text:_ZNSt3__212basic_stringIcNS_11char_traitsIcEENS_9allocatorIcEEE21__grow_by_and_replaceEjjjjjjPKc)
                  0000e108    000000ee                                   : locale.cpp.obj (.text:_ZNSt3__220__get_up_to_n_digitsIwNS_19istreambuf_iteratorIwNS_11char_traitsIwEEEEEEiRT0_S5_RjRKNS_5ctypeIT_EEi)
                  0000e1f6    00000002                                   : ios.cpp.obj (.text:_ZNSt3__215basic_streambufIwNS_11char_traitsIwEEE6setbufEPwi)
                  0000e1f8    000000ec                                   : locale.cpp.obj (.text:_ZNSt3__29__num_getIcE17__stage2_int_loopEciPcRS2_RjcRKNS_12basic_stringIcNS_11char_traitsIcEENS_9allocatorIcEEEEPjRSD_PKc)
                  0000e2e4    000000ec                                   : locale.cpp.obj (.text:_ZNSt3__29__num_getIwE17__stage2_int_loopEwiPcRS2_RjwRKNS_12basic_stringIcNS_11char_traitsIcEENS_9allocatorIcEEEEPjRSD_PKw)
                  0000e3d0    000000e8                                   : locale.cpp.obj (.text:_ZNKSt3__220__time_get_c_storageIwE3__cEv)
                  0000e4b8    000000e4                                   : locale.cpp.obj (.text:_ZNSt3__220__get_up_to_n_digitsIcNS_19istreambuf_iteratorIcNS_11char_traitsIcEEEEEEiRT0_S5_RjRKNS_5ctypeIT_EEi)
                  0000e59c    000000e0                                   : locale.cpp.obj (.text:_ZNSt3__26vectorIPNS_6locale5facetENS_15__sso_allocatorIS3_Lj28EEEE8__appendEj)
                  0000e67c    000000dc                                   : locale.cpp.obj (.text:_ZNKSt3__27num_getIcNS_19istreambuf_iteratorIcNS_11char_traitsIcEEEEE6do_getES4_S4_RNS_8ios_baseERjRb)
                  0000e758    000000dc                                   : locale.cpp.obj (.text:_ZNKSt3__27num_getIwNS_19istreambuf_iteratorIwNS_11char_traitsIwEEEEE6do_getES4_S4_RNS_8ios_baseERjRb)
                  0000e834    000000dc                                   : setvbuf.c.obj (.text:setvbuf)
                  0000e910    000000da                                   : string.cpp.obj (.text:_ZNSt3__212basic_stringIcNS_11char_traitsIcEENS_9allocatorIcEEE6insertEjPKcj)
                  0000e9ea    00000002                                   : string.cpp.obj (.text:_ZNSt3__222__compressed_pair_elemINS_12basic_stringIwNS_11char_traitsIwEENS_9allocatorIwEEE5__repELi0ELb0EE5__getEv)
                  0000e9ec    000000d8                                   : string.cpp.obj (.text:_ZNSt3__212basic_stringIwNS_11char_traitsIwEENS_9allocatorIwEEE9__grow_byEjjjjjj)
                  0000eac4    000000d8                                   : memory.c.obj (.text:free)
                  0000eb9c    000000d6     ComandCenter.obj (.text:_ZNSt3__216__pad_and_outputIcNS_11char_traitsIcEEEENS_19ostreambuf_iteratorIT_T0_EES6_PKS4_S8_S8_RNS_8ios_baseES4_)
                  0000ec72    00000002     rtsv7M4_T_le_v4SPD16_eabi.lib : string.cpp.obj (.text:_ZNSt3__222__compressed_pair_elemINS_9allocatorIcEELi1ELb1EEC1IRKS2_vEEOT_)
                  0000ec74    000000d4                                   : locale.cpp.obj (.text:_ZNKSt3__220__time_get_c_storageIwE3__rEv)
                  0000ed48    000000d0                                   : locale.cpp.obj (.text:_ZNKSt3__220__time_get_c_storageIwE3__XEv)
                  0000ee18    000000d0                                   : locale.cpp.obj (.text:_ZNKSt3__220__time_get_c_storageIwE3__xEv)
                  0000eee8    000000d0                                   : s_scalbnf.c.obj (.text:scalbnf)
                  0000efb8    000000cc                                   : locale.cpp.obj (.text:_ZNKSt3__27num_putIcNS_19ostreambuf_iteratorIcNS_11char_traitsIcEEEEE6do_putES4_RNS_8ios_baseEcx)
                  0000f084    000000cc                                   : locale.cpp.obj (.text:_ZNKSt3__27num_putIwNS_19ostreambuf_iteratorIwNS_11char_traitsIwEEEEE6do_putES4_RNS_8ios_baseEwx)
                  0000f150    000000c8                                   : ios.cpp.obj (.text:_ZNSt3__213basic_ostreamIcNS_11char_traitsIcEEElsEi)
                  0000f218    000000c8                                   : ios.cpp.obj (.text:_ZNSt3__213basic_ostreamIcNS_11char_traitsIcEEElsEt)
                  0000f2e0    000000c4                                   : locale.cpp.obj (.text:_ZNKSt3__27num_putIcNS_19ostreambuf_iteratorIcNS_11char_traitsIcEEEEE6do_putES4_RNS_8ios_baseEcy)
                  0000f3a4    000000c4                                   : locale.cpp.obj (.text:_ZNKSt3__27num_putIwNS_19ostreambuf_iteratorIwNS_11char_traitsIwEEEEE6do_putES4_RNS_8ios_baseEwy)
                  0000f468    000000c4     ComandCenter.obj (.text:_ZNSt3__224__put_character_sequenceIcNS_11char_traitsIcEEEERNS_13basic_ostreamIT_T0_EES7_PKS4_j)
                  0000f52c    000000c0     rtsv7M4_T_le_v4SPD16_eabi.lib : locale.cpp.obj (.text:_ZNKSt3__27num_putIcNS_19ostreambuf_iteratorIcNS_11char_traitsIcEEEEE6do_putES4_RNS_8ios_baseEcl)
                  0000f5ec    000000c0                                   : locale.cpp.obj (.text:_ZNKSt3__27num_putIcNS_19ostreambuf_iteratorIcNS_11char_traitsIcEEEEE6do_putES4_RNS_8ios_baseEcm)
                  0000f6ac    000000c0                                   : locale.cpp.obj (.text:_ZNKSt3__27num_putIwNS_19ostreambuf_iteratorIwNS_11char_traitsIwEEEEE6do_putES4_RNS_8ios_baseEwl)
                  0000f76c    000000c0                                   : locale.cpp.obj (.text:_ZNKSt3__27num_putIwNS_19ostreambuf_iteratorIwNS_11char_traitsIwEEEEE6do_putES4_RNS_8ios_baseEwm)
                  0000f82c    000000c0                                   : string.cpp.obj (.text:_ZNSt3__212basic_stringIcNS_11char_traitsIcEENS_9allocatorIcEEE9__grow_byEjjjjjj)
                  0000f8ec    000000bc                                   : iostream.cpp.obj (.text:_ZNSt3__211__stdoutbufIwE8overflowEi)
                  0000f9a8    000000b2                                   : iostream.cpp.obj (.text:_ZNSt3__211__stdoutbufIcE8overflowEi)
                  0000fa5a    00000002                                   : string.cpp.obj (.text:_ZNSt3__222__compressed_pair_elemINS_9allocatorIcEELi1ELb1EEC1IS2_vEEOT_)
                  0000fa5c    000000b1                                   : _printfi.c.obj (.text:_ltostr)
                  0000fb0d    00000001     --HOLE-- [fill = 0]
                  0000fb0e    00000002                                   : string.cpp.obj (.text:_ZNSt3__222__compressed_pair_elemINS_9allocatorIwEELi1ELb1EEC1IS2_vEEOT_)
                  0000fb10    000000b0     SysTickDriver.obj (.text)
                  0000fbc0    000000b0     rtsv7M4_T_le_v4SPD16_eabi.lib : iostream.cpp.obj (.text:_ZNSt3__210__stdinbufIwE9pbackfailEi)
                  0000fc70    000000a8                                   : iostream.cpp.obj (.text:_ZNSt3__210__stdinbufIcE9pbackfailEi)
                  0000fd18    000000a8                                   : locale.cpp.obj (.text:_ZNSt3__219__double_or_nothingIwEEvRNS_10unique_ptrIT_PFvPvEEERPS2_S9_)
                  0000fdc0    000000a4                                   : string.cpp.obj (.text:_ZNSt3__212basic_stringIcNS_11char_traitsIcEENS_9allocatorIcEEE6appendEPKcj)
                  0000fe64    000000a4                                   : string.cpp.obj (.text:_ZNSt3__212basic_stringIwNS_11char_traitsIwEENS_9allocatorIwEEE6appendEPKwj)
                  0000ff08    000000a0                                   : string.cpp.obj (.text:_ZNSt3__212basic_stringIcNS_11char_traitsIcEENS_9allocatorIcEEE9push_backEc)
                  0000ffa8    0000009e                                   : string.cpp.obj (.text:_ZNSt3__212basic_stringIwNS_11char_traitsIwEENS_9allocatorIwEEE9push_backEw)
                  00010046    00000002                                   : stdlib_typeinfo.cpp.obj (.text:_ZNSt9type_infoD1Ev)
                  00010048    0000009c                                   : locale.cpp.obj (.text:_ZNKSt3__27num_putIwNS_19ostreambuf_iteratorIwNS_11char_traitsIwEEEEE6do_putES4_RNS_8ios_baseEwPKv)
                  000100e4    0000009c                                   : locale.cpp.obj (.text:_ZNKSt3__27num_putIwNS_19ostreambuf_iteratorIwNS_11char_traitsIwEEEEE6do_putES4_RNS_8ios_baseEwb)
                  00010180    0000009c                                   : string.cpp.obj (.text:_ZNSt3__212basic_stringIcNS_11char_traitsIcEENS_9allocatorIcEEE6appendEjc)
                  0001021c    0000009c                                   : _bufread.c.obj (.text:__TI_buff_read)
                  000102b8    0000009c                                   : memcpy_t2.asm.obj (.text)
                  00010354    00000098                                   : locale.cpp.obj (.text:_ZNKSt3__210__time_put8__do_putEPwRS1_PK2tmcc)
                  000103ec    00000098                                   : locale.cpp.obj (.text:_ZNKSt3__27num_putIcNS_19ostreambuf_iteratorIcNS_11char_traitsIcEEEEE6do_putES4_RNS_8ios_baseEcPKv)
                  00010484    00000098                                   : locale.cpp.obj (.text:_ZNKSt3__27num_putIcNS_19ostreambuf_iteratorIcNS_11char_traitsIcEEEEE6do_putES4_RNS_8ios_baseEcb)
                  0001051c    00000098                                   : string.cpp.obj (.text:_ZNSt3__212basic_stringIwNS_11char_traitsIwEENS_9allocatorIwEEE6assignEPKwj)
                  000105b4    00000096                                   : string.cpp.obj (.text:_ZNSt3__212basic_stringIcNS_11char_traitsIcEENS_9allocatorIcEEE6assignEPKcj)
                  0001064a    00000096                                   : locale.cpp.obj (.text:_ZNSt3__225__num_get_signed_integralIlEET_PKcS3_Rji)
                  000106e0    00000096                                   : ull_div_t2.asm.obj (.text)
                  00010776    00000002                                   : _lock.c.obj (.text:_nop)
                  00010778    00000094                                   : locale.cpp.obj (.text:_ZNKSt3__220__time_get_c_storageIwE7__am_pmEv)
                  0001080c    00000094                                   : string.cpp.obj (.text:_ZNSt3__212basic_stringIwNS_11char_traitsIwEENS_9allocatorIwEEE6__initEPKwj)
                  000108a0    00000094                                   : locale.cpp.obj (.text:_ZNSt3__219__double_or_nothingIcEEvRNS_10unique_ptrIT_PFvPvEEERPS2_S9_)
                  00010934    00000094                                   : locale.cpp.obj (.text:_ZNSt3__219__double_or_nothingIjEEvRNS_10unique_ptrIT_PFvPvEEERPS2_S9_)
                  000109c8    00000090                                   : locale.cpp.obj (.text:_ZNSt3__225__num_get_signed_integralIxEET_PKcS3_Rji)
                  00010a58    00000090                                   : string.cpp.obj (.text:_ZNSt3__2plIcNS_11char_traitsIcEENS_9allocatorIcEEEENS_12basic_stringIT_T0_T1_EEPKS6_RKS9_)
                  00010ae8    0000008c                                   : locale.cpp.obj (.text:_ZNKSt3__220__time_get_c_storageIcE7__am_pmEv)
                  00010b74    0000008c                                   : locale.cpp.obj (.text:_ZNKSt3__28numpunctIwE11do_truenameEv)
                  00010c00    0000008c                                   : locale.cpp.obj (.text:_ZNKSt3__28numpunctIwE12do_falsenameEv)
                  00010c8c    00000086                                   : fd_cmp_t2.asm.obj (.text:__aeabi_cdcmple)
                  00010d12    00000086                                   : fd_cmp_t2.asm.obj (.text:__aeabi_cdrcmple)
                  00010d98    00000084                                   : locale.cpp.obj (.text:_ZNKSt3__220__time_get_c_storageIcE3__cEv)
                  00010e1c    00000084                                   : locale.cpp.obj (.text:_ZNKSt3__27collateIwE12do_transformEPKwS3_)
                  00010ea0    00000084                                   : fgetc.c.obj (.text:fgetc)
                  00010f24    00000080                                   : locale.cpp.obj (.text:_ZNSt3__214__num_put_base14__format_floatEPcPKcj)
                  00010fa4    00000080                                   : locale.cpp.obj (.text:_ZNSt3__26locale5__impD1Ev)
                  00011024    00000080     ComandCenter.obj (.text:_ZNSt3__2eqINS_9allocatorIcEEEEbRKNS_12basic_stringIcNS_11char_traitsIcEET_EES9_)
                  000110a4    00000080     rtsv7M4_T_le_v4SPD16_eabi.lib : ungetc.c.obj (.text:ungetc)
                  00011124    0000007e                                   : string.cpp.obj (.text:_ZNKSt3__212basic_stringIcNS_11char_traitsIcEENS_9allocatorIcEEE7compareEjjPKcj)
                  000111a2    0000007c                                   : locale.cpp.obj (.text:_ZNKSt3__28time_getIcNS_19istreambuf_iteratorIcNS_11char_traitsIcEEEEE11__get_am_pmERiRS4_S4_RjRKNS_5ctypeIcEE)
                  0001121e    0000007c                                   : locale.cpp.obj (.text:_ZNKSt3__28time_getIwNS_19istreambuf_iteratorIwNS_11char_traitsIwEEEEE11__get_am_pmERiRS4_S4_RjRKNS_5ctypeIwEE)
                  0001129a    0000007c                                   : ios.cpp.obj (.text:_ZNSt3__213basic_ostreamIcNS_11char_traitsIcEEE6sentryD1Ev)
                  00011316    0000007c                                   : ios.cpp.obj (.text:_ZNSt3__213basic_ostreamIwNS_11char_traitsIwEEE6sentryD1Ev)
                  00011392    0000007c                                   : string.cpp.obj (.text:_ZNSt3__234_GLOBAL__N__10_string_cpp_11932bae9as_stringINS_12basic_stringIcNS_11char_traitsIcEENS_9allocatorIcEEEEPFYiPcjPKczEiEET_T0_SD_PKNSD_10value_typeET1_)
                  0001140e    00000002                                   : xlocale.c.obj (.text:freelocale)
                  00011410    0000007c                                   : fflush.c.obj (.text:fflush)
                  0001148c    0000007a                                   : string.cpp.obj (.text:_ZNSt3__212basic_stringIcNS_11char_traitsIcEENS_9allocatorIcEEEaSEOS5_)
                  00011506    0000007a                                   : locale.cpp.obj (.text:_ZNSt3__227__num_get_unsigned_integralIjEET_PKcS3_Rji)
                  00011580    0000007a                                   : locale.cpp.obj (.text:_ZNSt3__227__num_get_unsigned_integralImEET_PKcS3_Rji)
                  000115fa    0000007a                                   : memset_t2.asm.obj (.text)
                  00011674    00000078                                   : vla_alloc.c.obj (.text:_ZN33_INTERNAL_11_vla_alloc_c_be8bd49b21free_dead_allocationsEPv)
                  000116ec    00000078                                   : locale.cpp.obj (.text:_ZNKSt3__220__time_get_c_storageIcE3__rEv)
                  00011764    00000078                                   : locale.cpp.obj (.text:_ZNSt3__215__num_get_floatIfEET_PKcS3_Rj)
                  000117dc    00000078                                   : ios.cpp.obj (.text:_ZNSt3__215basic_streambufIwNS_11char_traitsIwEEE6xsgetnEPwi)
                  00011854    00000078                                   : locale.cpp.obj (.text:_ZNSt3__227__num_get_unsigned_integralItEET_PKcS3_Rji)
                  000118cc    00000078                                   : vla_alloc.c.obj (.text:__vla_dealloc)
                  00011944    00000078                                   : memory.c.obj (.text:malloc)
                  000119bc    00000076                                   : vec_newdel.c.obj (.text:_ZN34_INTERNAL_12_vec_newdel_c_8a08d4a517array_new_generalEPvijjS0_PFYS0_S0_ES2_PFYS0_jEPFYvS0_Eii)
                  00011a32    00000076                                   : string.cpp.obj (.text:_ZNSt3__212basic_stringIcNS_11char_traitsIcEENS_9allocatorIcEEE6resizeEjc)
                  00011aa8    00000076                                   : none_mb.c.obj (.text:wcsnrtombs)
                  00011b1e    00000074                                   : string.cpp.obj (.text:_ZNSt3__212basic_stringIcNS_11char_traitsIcEENS_9allocatorIcEEE6__initEPKcj)
                  00011b92    00000074                                   : string.cpp.obj (.text:_ZNSt3__212basic_stringIcNS_11char_traitsIcEENS_9allocatorIcEEE6__initEPKcjj)
                  00011c06    00000074                                   : string.cpp.obj (.text:_ZNSt3__212basic_stringIcNS_11char_traitsIcEENS_9allocatorIcEEE6__initEjc)
                  00011c7a    00000002                                   : div0.asm.obj (.text)
                  00011c7c    00000074                                   : locale.cpp.obj (.text:_ZNSt3__215__num_get_floatIdEET_PKcS3_Rj)
                  00011cf0    00000074                                   : locale.cpp.obj (.text:_ZNSt3__215__num_get_floatIeEET_PKcS3_Rj)
                  00011d64    00000074                                   : ios.cpp.obj (.text:_ZNSt3__215basic_streambufIcNS_11char_traitsIcEEE6xsgetnEPci)
                  00011dd8    00000074                                   : locale.cpp.obj (.text:_ZNSt3__216__check_groupingERKNS_12basic_stringIcNS_11char_traitsIcEENS_9allocatorIcEEEEPjS8_Rj)
                  00011e4c    00000074                                   : locale.cpp.obj (.text:_ZNSt3__227__num_get_unsigned_integralIyEET_PKcS3_Rji)
                  00011ec0    00000074                                   : fclose.c.obj (.text:__TI_closefile)
                  00011f34    00000072                                   : vec_newdel.c.obj (.text:_ZN34_INTERNAL_12_vec_newdel_c_8a08d4a520array_delete_generalEPvijjPFYS0_S0_EiPFYvS0_Eii)
                  00011fa6    0000006e                                   : _printfi.c.obj (.text:_mcpy)
                  00012014    0000006e                                   : fd_tos_t2.asm.obj (.text)
                  00012082    0000006c                                   : locale.cpp.obj (.text:_ZNSt3__26locale5__imp7installEPNS0_5facetEl)
                  000120ee    00000002     --HOLE-- [fill = 0]
                  000120f0    00000068                                   : hostlseek.c.obj (.text:HOSTlseek)
                  00012158    00000068                                   : hostrename.c.obj (.text:HOSTrename)
                  000121c0    00000068                                   : locale.cpp.obj (.text:_ZNKSt3__220__time_get_c_storageIcE3__XEv)
                  00012228    00000068                                   : locale.cpp.obj (.text:_ZNKSt3__220__time_get_c_storageIcE3__xEv)
                  00012290    00000068                                   : locale.cpp.obj (.text:_ZNKSt3__28time_getIcNS_19istreambuf_iteratorIcNS_11char_traitsIcEEEEE13__get_percentERS4_S4_RjRKNS_5ctypeIcEE)
                  000122f8    00000068                                   : locale.cpp.obj (.text:_ZNKSt3__28time_getIwNS_19istreambuf_iteratorIwNS_11char_traitsIwEEEEE13__get_percentERS4_S4_RjRKNS_5ctypeIwEE)
                  00012360    00000068                                   : locale.cpp.obj (.text:_ZNKSt3__28time_putIwNS_19ostreambuf_iteratorIwNS_11char_traitsIwEEEEE6do_putES4_RNS_8ios_baseEwPK2tmcc)
                  000123c8    00000068                                   : ios.cpp.obj (.text:_ZNSt3__215basic_streambufIwNS_11char_traitsIwEEE6xsputnEPKwi)
                  00012430    00000068                                   : locale.cpp.obj (.text:_ZNSt3__29__num_getIcE19__stage2_float_prepERNS_8ios_baseEPcRcS5_)
                  00012498    00000068                                   : locale.cpp.obj (.text:_ZNSt3__29__num_getIwE19__stage2_float_prepERNS_8ios_baseEPwRwS5_)
                  00012500    00000068                                   : sscanf.c.obj (.text:_chkmbc)
                  00012568    00000068                                   : copy_decompress_lzss.c.obj (.text:decompress:lzss:__TI_decompress_lzss)
                  000125d0    00000066                                   : locale.cpp.obj (.text:_ZNKSt3__28time_putIcNS_19ostreambuf_iteratorIcNS_11char_traitsIcEEEEE6do_putES4_RNS_8ios_baseEcPK2tmcc)
                  00012636    00000002     --HOLE-- [fill = 0]
                  00012638    00000064     ISRMsgMaker.obj (.text:_ZN10RingBufferI6ISRMsgE3AddES0_)
                  0001269c    00000064     ISRMsgMaker.obj (.text:_ZN10RingBufferIcE3AddEc)
                  00012700    00000064     rtsv7M4_T_le_v4SPD16_eabi.lib : ios.cpp.obj (.text:_ZNSt3__215basic_streambufIcNS_11char_traitsIcEEE6xsputnEPKci)
                  00012764    00000064                                   : s_frexp.c.obj (.text:frexp)
                  000127c8    00000064                                   : fseek.c.obj (.text:fseek)
                  0001282c    00000062     ISRMsgMaker.obj (.text:_ZN10RingBufferI6ISRMsgE3GetEv)
                  0001288e    00000062     rtsv7M4_T_le_v4SPD16_eabi.lib : _io_perm.c.obj (.text:__TI_wrt_ok)
                  000128f0    00000060                                   : hostopen.c.obj (.text:HOSTopen)
                  00012950    00000060                                   : autoinit.c.obj (.text:__TI_auto_init_nobinit:__TI_auto_init_nobinit)
                  000129b0    0000005e                                   : locale.cpp.obj (.text:_ZNKSt3__219istreambuf_iteratorIcNS_11char_traitsIcEEE5equalERKS3_)
                  00012a0e    0000005e                                   : locale.cpp.obj (.text:_ZNKSt3__219istreambuf_iteratorIwNS_11char_traitsIwEEE5equalERKS3_)
                  00012a6c    0000005e                                   : locale.cpp.obj (.text:_ZNSt3__2eqIcNS_11char_traitsIcEEEEbRKNS_19istreambuf_iteratorIT_T0_EES8_)
                  00012aca    0000005e                                   : locale.cpp.obj (.text:_ZNSt3__2neIwNS_11char_traitsIwEEEEbRKNS_19istreambuf_iteratorIT_T0_EES8_)
                  00012b28    0000005c                                   : locale.cpp.obj (.text:_ZNKSt3__27collateIcE12do_transformEPKcS3_)
                  00012b84    0000005c                                   : close.c.obj (.text:close)
                  00012be0    0000005a                                   : string.cpp.obj (.text:_ZNKSt3__234_GLOBAL__N__10_string_cpp_11932bae14initial_stringINS_12basic_stringIcNS_11char_traitsIcEENS_9allocatorIcEEEEiLb0EEclEv)
                  00012c3a    0000005a                                   : locale.cpp.obj (.text:_ZNKSt3__28time_getIwNS_19istreambuf_iteratorIwNS_11char_traitsIwEEEEE11do_get_dateES4_S4_RNS_8ios_baseERjP2tm)
                  00012c94    0000005a                                   : locale.cpp.obj (.text:_ZNKSt3__28time_getIwNS_19istreambuf_iteratorIwNS_11char_traitsIwEEEEE17__get_white_spaceERS4_S4_RjRKNS_5ctypeIwEE)
                  00012cee    00000002     --HOLE-- [fill = 0]
                  00012cf0    00000058                                   : hostread.c.obj (.text:HOSTread)
                  00012d48    00000058                                   : hostwrite.c.obj (.text:HOSTwrite)
                  00012da0    00000058                                   : locale.cpp.obj (.text:_ZNKSt3__28time_getIcNS_19istreambuf_iteratorIcNS_11char_traitsIcEEEEE17__get_white_spaceERS4_S4_RjRKNS_5ctypeIcEE)
                  00012df8    00000056     ISRMsgMaker.obj (.text:_ZN10RingBufferIcE3GetEv)
                  00012e4e    00000056     rtsv7M4_T_le_v4SPD16_eabi.lib : locale.cpp.obj (.text:_ZNKSt3__28time_getIcNS_19istreambuf_iteratorIcNS_11char_traitsIcEEEEE11do_get_dateES4_S4_RNS_8ios_baseERjP2tm)
                  00012ea4    00000056                                   : _printfi.c.obj (.text:_pconv_f)
                  00012efa    00000054                                   : ltoa.c.obj (.text:ltoa)
                  00012f4e    00000052                                   : _printfi.c.obj (.text:_ecpy)
                  00012fa0    00000050                                   : ios.cpp.obj (.text:_ZNSt3__213basic_ostreamIcNS_11char_traitsIcEEE5flushEv)
                  00012ff0    00000050                                   : ios.cpp.obj (.text:_ZNSt3__213basic_ostreamIwNS_11char_traitsIwEEE5flushEv)
                  00013040    00000050                                   : none_mb.c.obj (.text:mbsnrtowcs)
                  00013090    0000004c                                   : iostream.cpp.obj (.text:_ZNSt3__211__stdoutbufIcE4syncEv)
                  000130dc    0000004c                                   : iostream.cpp.obj (.text:_ZNSt3__211__stdoutbufIwE4syncEv)
                  00013128    0000004c                                   : string.cpp.obj (.text:_ZNSt3__212basic_stringIcNS_11char_traitsIcEENS_9allocatorIcEEEC1ERKS5_)
                  00013174    0000004c                                   : string.cpp.obj (.text:_ZNSt3__212basic_stringIwNS_11char_traitsIwEENS_9allocatorIwEEEC1ERKS5_)
                  000131c0    0000004c                                   : ios.cpp.obj (.text:_ZNSt3__213basic_ostreamIcNS_11char_traitsIcEEE6sentryC1ERS3_)
                  0001320c    0000004c                                   : ios.cpp.obj (.text:_ZNSt3__213basic_ostreamIwNS_11char_traitsIwEEE6sentryC1ERS3_)
                  00013258    0000004c                                   : fflush.c.obj (.text:__TI_doflush)
                  000132a4    0000004c                                   : atoi.c.obj (.text:atoi)
                  000132f0    0000004c                                   : snprintf.c.obj (.text:snprintf)
                  0001333c    0000004a                                   : locale.cpp.obj (.text:_ZNSt3__214__num_put_base12__format_intEPcPKcbj)
                  00013386    0000004a                                   : _io_perm.c.obj (.text:__TI_rd_ok)
                  000133d0    00000048                                   : locale.cpp.obj (.text:_ZNKSt3__27codecvtIDiciE6do_outERiPKDiS4_RS4_PcS6_RS6_)
                  00013418    00000048                                   : locale.cpp.obj (.text:_ZNKSt3__27codecvtIDsciE6do_outERiPKDsS4_RS4_PcS6_RS6_)
                  00013460    00000048                                   : locale.cpp.obj (.text:_ZNKSt3__27codecvtIwciE10do_unshiftERiPcS3_RS3_)
                  000134a8    00000048                                   : locale.cpp.obj (.text:_ZNKSt3__27codecvtIwciE9do_lengthERiPKcS4_j)
                  000134f0    00000048                                   : iostream.cpp.obj (.text:_ZNSt3__211__stdoutbufIcEC1EP7__sFILEPi)
                  00013538    00000048                                   : iostream.cpp.obj (.text:_ZNSt3__211__stdoutbufIwEC1EP7__sFILEPi)
                  00013580    00000048                                   : exit.c.obj (.text:exit)
                  000135c8    00000048                                   : fd_toi_t2.asm.obj (.text)
                  00013610    00000046                                   : locale.cpp.obj (.text:_ZNKSt3__28time_getIcNS_19istreambuf_iteratorIcNS_11char_traitsIcEEEEE15__get_monthnameERiRS4_S4_RjRKNS_5ctypeIcEE)
                  00013656    00000046                                   : locale.cpp.obj (.text:_ZNKSt3__28time_getIcNS_19istreambuf_iteratorIcNS_11char_traitsIcEEEEE17__get_weekdaynameERiRS4_S4_RjRKNS_5ctypeIcEE)
                  0001369c    00000046                                   : locale.cpp.obj (.text:_ZNKSt3__28time_getIwNS_19istreambuf_iteratorIwNS_11char_traitsIwEEEEE15__get_monthnameERiRS4_S4_RjRKNS_5ctypeIwEE)
                  000136e2    00000046                                   : locale.cpp.obj (.text:_ZNKSt3__28time_getIwNS_19istreambuf_iteratorIwNS_11char_traitsIwEEEEE17__get_weekdaynameERiRS4_S4_RjRKNS_5ctypeIwEE)
                  00013728    00000046                                   : iostream.cpp.obj (.text:_ZNSt3__211__stdoutbufIcE6xsputnEPKci)
                  0001376e    00000046                                   : iostream.cpp.obj (.text:_ZNSt3__211__stdoutbufIwE6xsputnEPKwi)
                  000137b4    00000044                                   : hostclose.c.obj (.text:HOSTclose)
                  000137f8    00000044                                   : hostunlink.c.obj (.text:HOSTunlink)
                  0001383c    00000044                                   : dtor_list.c.obj (.text:_Z25__add_destruction_to_listPP20a_needed_destructionPFYvPvES2_S2_)
                  00013880    00000044                                   : locale.cpp.obj (.text:_ZNKSt3__210__time_put8__do_putEPcRS1_PK2tmcc)
                  000138c4    00000044                                   : locale.cpp.obj (.text:_ZNKSt3__27codecvtIDiciE5do_inERiPKcS4_RS4_PDiS6_RS6_)
                  00013908    00000044                                   : locale.cpp.obj (.text:_ZNKSt3__27codecvtIDsciE5do_inERiPKcS4_RS4_PDsS6_RS6_)
                  0001394c    00000044                                   : iostream.cpp.obj (.text:_ZNSt3__210__stdinbufIcEC1EP7__sFILEPi)
                  00013990    00000044                                   : iostream.cpp.obj (.text:_ZNSt3__210__stdinbufIwEC1EP7__sFILEPi)
                  000139d4    00000044                                   : getdevice.c.obj (.text:getdevice)
                  00013a18    00000042                                   : dtor_list.c.obj (.text:_Z23__finalize_destructionsPP20a_needed_destructionPv)
                  00013a5a    00000042                                   : locale.cpp.obj (.text:_ZNSt3__214__split_bufferIPNS_6locale5facetERNS_15__sso_allocatorIS3_Lj28EEEEC1EjjS6_)
                  00013a9c    00000040                                   : locale.cpp.obj (.text:_ZNKSt3__28time_getIcNS_19istreambuf_iteratorIcNS_11char_traitsIcEEEEE11do_get_yearES4_S4_RNS_8ios_baseERjP2tm)
                  00013adc    00000040                                   : locale.cpp.obj (.text:_ZNKSt3__28time_getIcNS_19istreambuf_iteratorIcNS_11char_traitsIcEEEEE14do_get_weekdayES4_S4_RNS_8ios_baseERjP2tm)
                  00013b1c    00000040                                   : locale.cpp.obj (.text:_ZNKSt3__28time_getIcNS_19istreambuf_iteratorIcNS_11char_traitsIcEEEEE16do_get_monthnameES4_S4_RNS_8ios_baseERjP2tm)
                  00013b5c    00000040                                   : locale.cpp.obj (.text:_ZNKSt3__28time_getIwNS_19istreambuf_iteratorIwNS_11char_traitsIwEEEEE11do_get_timeES4_S4_RNS_8ios_baseERjP2tm)
                  00013b9c    00000040                                   : locale.cpp.obj (.text:_ZNKSt3__28time_getIwNS_19istreambuf_iteratorIwNS_11char_traitsIwEEEEE11do_get_yearES4_S4_RNS_8ios_baseERjP2tm)
                  00013bdc    00000040                                   : locale.cpp.obj (.text:_ZNKSt3__28time_getIwNS_19istreambuf_iteratorIwNS_11char_traitsIwEEEEE14do_get_weekdayES4_S4_RNS_8ios_baseERjP2tm)
                  00013c1c    00000040                                   : locale.cpp.obj (.text:_ZNKSt3__28time_getIwNS_19istreambuf_iteratorIwNS_11char_traitsIwEEEEE16do_get_monthnameES4_S4_RNS_8ios_baseERjP2tm)
                  00013c5c    00000040                                   : locale.cpp.obj (.text:_ZNSt3__26locale2id5__getEv)
                  00013c9c    00000040                                   : ios.cpp.obj (.text:_ZNSt3__28ios_base4initEPv)
                  00013cdc    00000040     Monitor.obj (.text:_ZNSt3__2eqIcNS_11char_traitsIcEENS_9allocatorIcEEEEbRKNS_12basic_stringIT_T0_T1_EEPKS6_)
                  00013d1c    00000040     rtsv7M4_T_le_v4SPD16_eabi.lib : vsnprintf.c.obj (.text:vsnprintf)
                  00013d5c    0000003e                                   : locale.cpp.obj (.text:_ZNSt3__26vectorIPNS_6locale5facetENS_15__sso_allocatorIS3_Lj28EEEE8allocateEj)
                  00013d9a    0000003e                                   : _printfi.c.obj (.text:_fcpy)
                  00013dd8    0000003c     ISRMsgMaker.obj (.text:_ZN10RingBufferI6ISRMsgEC1Ei)
                  00013e14    0000003c     rtsv7M4_T_le_v4SPD16_eabi.lib : iostream.cpp.obj (.text:_ZNSt3__210__stdinbufIcE5imbueERKNS_6localeE)
                  00013e50    0000003c                                   : memory.c.obj (.text:minsert)
                  00013e8c    0000003a     ISRMsgMaker.obj (.text:_ZN10RingBufferIcEC1Ei)
                  00013ec6    0000003a     rtsv7M4_T_le_v4SPD16_eabi.lib : locale.cpp.obj (.text:_ZNKSt3__27collateIwE10do_compareEPKwS3_S3_S3_)
                  00013f00    0000003a                                   : locale.cpp.obj (.text:_ZNSt3__214__num_put_base18__identify_paddingEPcS1_RKNS_8ios_baseE)
                  00013f3a    00000002     --HOLE-- [fill = 0]
                  00013f3c    00000038                                   : locale.cpp.obj (.text:_ZNKSt3__25ctypeIcE10do_tolowerEPcPKc)
                  00013f74    00000038                                   : locale.cpp.obj (.text:_ZNKSt3__25ctypeIcE10do_toupperEPcPKc)
                  00013fac    00000038                                   : locale.cpp.obj (.text:_ZNKSt3__25ctypeIwE10do_tolowerEPwPKw)
                  00013fe4    00000038                                   : locale.cpp.obj (.text:_ZNKSt3__25ctypeIwE10do_toupperEPwPKw)
                  0001401c    00000038                                   : locale.cpp.obj (.text:_ZNKSt3__27collateIcE10do_compareEPKcS3_S3_S3_)
                  00014054    00000038                                   : locale.cpp.obj (.text:_ZNKSt3__28time_getIcNS_19istreambuf_iteratorIcNS_11char_traitsIcEEEEE10__get_yearERiRS4_S4_RjRKNS_5ctypeIcEE)
                  0001408c    00000038                                   : locale.cpp.obj (.text:_ZNKSt3__28time_getIwNS_19istreambuf_iteratorIwNS_11char_traitsIwEEEEE10__get_yearERiRS4_S4_RjRKNS_5ctypeIwEE)
                  000140c4    00000038                                   : ios.cpp.obj (.text:_ZNKSt3__29basic_iosIcNS_11char_traitsIcEEE4fillEv)
                  000140fc    00000038                                   : iostream.cpp.obj (.text:_ZNSt3__210__stdinbufIwE5imbueERKNS_6localeE)
                  00014134    00000038                                   : locale.cpp.obj (.text:_ZNSt3__26__clocEv)
                  0001416c    00000038                                   : ios.cpp.obj (.text:_ZNSt3__28ios_baseD1Ev)
                  000141a4    00000038                                   : locale.cpp.obj (.text:_ZNSt3__28numpunctIcEC1Ej)
                  000141dc    00000038                                   : locale.cpp.obj (.text:_ZNSt3__28numpunctIwEC1Ej)
                  00014214    00000038                                   : trgmsg.c.obj (.text:__TI_writemsg)
                  0001424c    00000038                                   : boot_cortex_m.c.obj (.text:_c_int00_noargs:_c_int00_noargs)
                  00014284    00000038                                   : memory.c.obj (.text:minit)
                  000142bc    00000038                                   : sscanf.c.obj (.text:sscanf)
                  000142f4    00000036                                   : strncpy.c.obj (.text:strncpy)
                  0001432a    00000036                                   : vasprintf.c.obj (.text:vasprintf)
                  00014360    00000034     GlobalConfig.obj (.text)
                  00014394    00000034     rtsv7M4_T_le_v4SPD16_eabi.lib : locale.cpp.obj (.text:_ZNKSt3__28time_getIcNS_19istreambuf_iteratorIcNS_11char_traitsIcEEEEE11do_get_timeES4_S4_RNS_8ios_baseERjP2tm)
                  000143c8    00000034                                   : string.cpp.obj (.text:_ZNSt3__29to_stringEi)
                  000143fc    00000034                                   : fopen.c.obj (.text:__TI_cleanup)
                  00014430    00000034                                   : trgmsg.c.obj (.text:__TI_readmsg)
                  00014464    00000034                                   : dtor_list.c.obj (.text:__aeabi_atexit)
                  00014498    00000032                                   : locale.cpp.obj (.text:_ZNKSt3__27collateIwE7do_hashEPKwS3_)
                  000144ca    00000032                                   : locale.cpp.obj (.text:_ZNKSt3__28time_getIcNS_19istreambuf_iteratorIcNS_11char_traitsIcEEEEE13__get_12_hourERiRS4_S4_RjRKNS_5ctypeIcEE)
                  000144fc    00000032                                   : locale.cpp.obj (.text:_ZNKSt3__28time_getIcNS_19istreambuf_iteratorIcNS_11char_traitsIcEEEEE9__get_dayERiRS4_S4_RjRKNS_5ctypeIcEE)
                  0001452e    00000032                                   : locale.cpp.obj (.text:_ZNKSt3__28time_getIwNS_19istreambuf_iteratorIwNS_11char_traitsIwEEEEE13__get_12_hourERiRS4_S4_RjRKNS_5ctypeIwEE)
                  00014560    00000032                                   : locale.cpp.obj (.text:_ZNKSt3__28time_getIwNS_19istreambuf_iteratorIwNS_11char_traitsIwEEEEE9__get_dayERiRS4_S4_RjRKNS_5ctypeIwEE)
                  00014592    00000030                                   : locale.cpp.obj (.text:_ZNKSt3__27collateIcE7do_hashEPKcS3_)
                  000145c2    00000030                                   : locale.cpp.obj (.text:_ZNKSt3__28time_getIcNS_19istreambuf_iteratorIcNS_11char_traitsIcEEEEE11__get_monthERiRS4_S4_RjRKNS_5ctypeIcEE)
                  000145f2    00000030                                   : locale.cpp.obj (.text:_ZNKSt3__28time_getIcNS_19istreambuf_iteratorIcNS_11char_traitsIcEEEEE18__get_day_year_numERiRS4_S4_RjRKNS_5ctypeIcEE)
                  00014622    00000030                                   : locale.cpp.obj (.text:_ZNKSt3__28time_getIwNS_19istreambuf_iteratorIwNS_11char_traitsIwEEEEE11__get_monthERiRS4_S4_RjRKNS_5ctypeIwEE)
                  00014652    00000030                                   : locale.cpp.obj (.text:_ZNKSt3__28time_getIwNS_19istreambuf_iteratorIwNS_11char_traitsIwEEEEE18__get_day_year_numERiRS4_S4_RjRKNS_5ctypeIwEE)
                  00014682    00000030                                   : locale.cpp.obj (.text:_ZNSt3__219ostreambuf_iteratorIcNS_11char_traitsIcEEEaSEc)
                  000146b2    00000030                                   : locale.cpp.obj (.text:_ZNSt3__219ostreambuf_iteratorIwNS_11char_traitsIwEEEaSEw)
                  000146e2    00000002     --HOLE-- [fill = 0]
                  000146e4    00000030                                   : locale.cpp.obj (.text:_ZNSt3__26locale8__globalEv)
                  00014714    00000030                                   : iostream.cpp.obj (.text:_ZNSt3__28ios_base4InitD1Ev)
                  00014744    00000030                                   : snprintf.c.obj (.text:_outs)
                  00014774    00000030                                   : vsnprintf.c.obj (.text:_outs)
                  000147a4    00000030                                   : getdevice.c.obj (.text:finddevice)
                  000147d4    0000002e                                   : locale.cpp.obj (.text:_ZNKSt3__25ctypeIwE5do_isEPKwS3_Ph)
                  00014802    0000002e                                   : locale.cpp.obj (.text:_ZNKSt3__27codecvtIwciE11do_encodingEv)
                  00014830    0000002e                                   : locale.cpp.obj (.text:_ZNKSt3__28time_getIcNS_19istreambuf_iteratorIcNS_11char_traitsIcEEEEE10__get_hourERiRS4_S4_RjRKNS_5ctypeIcEE)
                  0001485e    0000002e                                   : locale.cpp.obj (.text:_ZNKSt3__28time_getIcNS_19istreambuf_iteratorIcNS_11char_traitsIcEEEEE12__get_minuteERiRS4_S4_RjRKNS_5ctypeIcEE)
                  0001488c    0000002e                                   : locale.cpp.obj (.text:_ZNKSt3__28time_getIcNS_19istreambuf_iteratorIcNS_11char_traitsIcEEEEE12__get_secondERiRS4_S4_RjRKNS_5ctypeIcEE)
                  000148ba    0000002e                                   : locale.cpp.obj (.text:_ZNKSt3__28time_getIcNS_19istreambuf_iteratorIcNS_11char_traitsIcEEEEE13__get_weekdayERiRS4_S4_RjRKNS_5ctypeIcEE)
                  000148e8    0000002e                                   : locale.cpp.obj (.text:_ZNKSt3__28time_getIwNS_19istreambuf_iteratorIwNS_11char_traitsIwEEEEE10__get_hourERiRS4_S4_RjRKNS_5ctypeIwEE)
                  00014916    0000002e                                   : locale.cpp.obj (.text:_ZNKSt3__28time_getIwNS_19istreambuf_iteratorIwNS_11char_traitsIwEEEEE12__get_minuteERiRS4_S4_RjRKNS_5ctypeIwEE)
                  00014944    0000002e                                   : locale.cpp.obj (.text:_ZNKSt3__28time_getIwNS_19istreambuf_iteratorIwNS_11char_traitsIwEEEEE12__get_secondERiRS4_S4_RjRKNS_5ctypeIwEE)
                  00014972    0000002e                                   : locale.cpp.obj (.text:_ZNKSt3__28time_getIwNS_19istreambuf_iteratorIwNS_11char_traitsIwEEEEE13__get_weekdayERiRS4_S4_RjRKNS_5ctypeIwEE)
                  000149a0    0000002e                                   : locale.cpp.obj (.text:_ZNSt3__214__split_bufferIPNS_6locale5facetERNS_15__sso_allocatorIS3_Lj28EEEED1Ev)
                  000149ce    0000002e                                   : none_mb.c.obj (.text:mbtowc)
                  000149fc    0000002e                                   : i_tofd_t2.asm.obj (.text)
                  00014a2a    0000002c     ISRMsgMaker.obj (.text:_ZNSt3__210unique_ptrI10RingBufferI6ISRMsgENS_14default_deleteIS3_EEE5resetEPS3_)
                  00014a56    0000002c     ISRMsgMaker.obj (.text:_ZNSt3__210unique_ptrI10RingBufferIcENS_14default_deleteIS2_EEE5resetEPS2_)
                  00014a82    0000002c     ISRMsgMaker.obj (.text:_ZNSt3__210unique_ptrIA_6ISRMsgNS_14default_deleteIS2_EEE5resetEDn)
                  00014aae    0000002c     ISRMsgMaker.obj (.text:_ZNSt3__210unique_ptrIA_cNS_14default_deleteIS1_EEE5resetEDn)
                  00014ada    00000002     --HOLE-- [fill = 0]
                  00014adc    0000002c     rtsv7M4_T_le_v4SPD16_eabi.lib : iostream.cpp.obj (.text:_ZNSt3__211__stdoutbufIcE5imbueERKNS_6localeE)
                  00014b08    0000002c                                   : iostream.cpp.obj (.text:_ZNSt3__211__stdoutbufIwE5imbueERKNS_6localeE)
                  00014b34    0000002c                                   : string.cpp.obj (.text:_ZNSt3__212basic_stringIcNS_11char_traitsIcEENS_9allocatorIcEEE6appendERKS5_)
                  00014b60    0000002c                                   : locale.cpp.obj (.text:_ZNSt3__26locale7classicEv)
                  00014b8c    0000002c                                   : unlink.c.obj (.text:unlink)
                  00014bb8    0000002a                                   : locale.cpp.obj (.text:_ZNKSt3__25ctypeIwE10do_scan_isEhPKwS3_)
                  00014be2    0000002a                                   : locale.cpp.obj (.text:_ZNKSt3__25ctypeIwE11do_scan_notEhPKwS3_)
                  00014c0c    0000002a                                   : ios.cpp.obj (.text:_ZNSt3__215basic_streambufIcNS_11char_traitsIcEEE7seekposENS_4fposIiEEj)
                  00014c36    0000002a                                   : ios.cpp.obj (.text:_ZNSt3__215basic_streambufIwNS_11char_traitsIwEEE7seekposENS_4fposIiEEj)
                  00014c60    00000028                                   : lseek.c.obj (.text:lseek)
                  00014c88    00000028                                   : memory.c.obj (.text:mremove)
                  00014cb0    00000028                                   : read.c.obj (.text:read)
                  00014cd8    00000028                                   : write.c.obj (.text:write)
                  00014d00    00000026                                   : locale.cpp.obj (.text:_ZNKSt3__28numpunctIcE12do_falsenameEv)
                  00014d26    00000026                                   : locale.cpp.obj (.text:_ZNKSt3__28time_getIcNS_19istreambuf_iteratorIcNS_11char_traitsIcEEEEE11__get_year4ERiRS4_S4_RjRKNS_5ctypeIcEE)
                  00014d4c    00000026                                   : locale.cpp.obj (.text:_ZNKSt3__28time_getIwNS_19istreambuf_iteratorIwNS_11char_traitsIwEEEEE11__get_year4ERiRS4_S4_RjRKNS_5ctypeIwEE)
                  00014d72    00000026     ComandCenter.obj (.text:_ZNSt3__211char_traitsIcE6assignEPcjc)
                  00014d98    00000026     rtsv7M4_T_le_v4SPD16_eabi.lib : string.cpp.obj (.text:_ZNSt3__212basic_stringIcNS_11char_traitsIcEENS_9allocatorIcEEEixEj)
                  00014dbe    00000026     ComandCenter.obj (.text:_ZNSt3__219ostreambuf_iteratorIcNS_11char_traitsIcEEEC1ERNS_13basic_ostreamIcS2_EE)
                  00014de4    00000026     rtsv7M4_T_le_v4SPD16_eabi.lib : ios.cpp.obj (.text:_ZNSt3__28ios_base16__call_callbacksENS0_5eventE)
                  00014e0a    00000026                                   : none_mb.c.obj (.text:mbrtowc)
                  00014e30    00000024     TimeHandler.obj (.text:_ZN11TimeHandlerC1Ev)
                  00014e54    00000024     rtsv7M4_T_le_v4SPD16_eabi.lib : locale.cpp.obj (.text:_ZNKSt3__25ctypeIcE10do_tolowerEc)
                  00014e78    00000024                                   : locale.cpp.obj (.text:_ZNKSt3__25ctypeIcE10do_toupperEc)
                  00014e9c    00000024                                   : locale.cpp.obj (.text:_ZNKSt3__25ctypeIwE10do_tolowerEw)
                  00014ec0    00000024                                   : locale.cpp.obj (.text:_ZNKSt3__25ctypeIwE9do_narrowEPKwS3_cPc)
                  00014ee4    00000024                                   : string.cpp.obj (.text:_ZNSt3__212basic_stringIcNS_11char_traitsIcEENS_9allocatorIcEEEC1EOS5_)
                  00014f08    00000024                                   : ios.cpp.obj (.text:_ZNSt3__215basic_streambufIcNS_11char_traitsIcEEE5uflowEv)
                  00014f2c    00000024                                   : ios.cpp.obj (.text:_ZNSt3__215basic_streambufIcNS_11char_traitsIcEEEC1Ev)
                  00014f50    00000024                                   : ios.cpp.obj (.text:_ZNSt3__215basic_streambufIwNS_11char_traitsIwEEE5uflowEv)
                  00014f74    00000024                                   : ios.cpp.obj (.text:_ZNSt3__215basic_streambufIwNS_11char_traitsIwEEEC1Ev)
                  00014f98    00000024                                   : locale.cpp.obj (.text:_ZNSt3__25ctypeIcEC1EPKhbj)
                  00014fbc    00000024                                   : locale.cpp.obj (.text:_ZNSt3__26vectorIPNS_6locale5facetENS_15__sso_allocatorIS3_Lj28EEEEC1Ej)
                  00014fe0    00000024                                   : locale.cpp.obj (.text:_ZNSt3__27codecvtIwciED1Ev)
                  00015004    00000024                                   : vec_newdel.c.obj (.text:__cxa_vec_ctor)
                  00015028    00000024                                   : memcmp.c.obj (.text:memcmp)
                  0001504c    00000024                                   : memmov.c.obj (.text:memmove)
                  00015070    00000022     Monitor.obj (.text:_ZN10RingBufferIcE5ResetEv)
                  00015092    00000022     rtsv7M4_T_le_v4SPD16_eabi.lib : locale.cpp.obj (.text:_ZNKSt3__25ctypeIcE9do_narrowEPKcS3_cPc)
                  000150b4    00000022                                   : locale.cpp.obj (.text:_ZNKSt3__25ctypeIwE10do_toupperEw)
                  000150d6    00000022                                   : locale.cpp.obj (.text:_ZNSt3__214__num_get_base10__get_baseERNS_8ios_baseE)
                  000150f8    00000022                                   : new.cpp.obj (.text:_Znwj)
                  0001511a    00000002     --HOLE-- [fill = 0]
                  0001511c    00000021                                   : locale.cpp.obj (.text:_ZNKSt3__28numpunctIcE11do_truenameEv)
                  0001513d    00000001     --HOLE-- [fill = 0]
                  0001513e    00000020                                   : iostream.cpp.obj (.text:_ZNKSt3__27codecvtIcciE3outERiPKcS4_RS4_PcS6_RS6_)
                  0001515e    00000020                                   : iostream.cpp.obj (.text:_ZNKSt3__27codecvtIwciE3outERiPKwS4_RS4_PcS6_RS6_)
                  0001517e    00000020                                   : string.cpp.obj (.text:_ZNSt3__212basic_stringIcNS_11char_traitsIcEENS_9allocatorIcEEED1Ev)
                  0001519e    00000020                                   : string.cpp.obj (.text:_ZNSt3__212basic_stringIwNS_11char_traitsIwEENS_9allocatorIwEEED1Ev)
                  000151be    00000020                                   : locale.cpp.obj (.text:_ZNSt3__217__call_once_proxyINS_5tupleIJONS_34_GLOBAL__N__10_locale_cpp_a718320311__fake_bindEEEEEEvPv)
                  000151de    00000020                                   : locale.cpp.obj (.text:_ZNSt3__219istreambuf_iteratorIcNS_11char_traitsIcEEEppEv)
                  000151fe    00000020                                   : locale.cpp.obj (.text:_ZNSt3__219istreambuf_iteratorIwNS_11char_traitsIwEEEppEv)
                  0001521e    00000020     ComandCenter.obj (.text:_ZNSt3__2lsIcNS_11char_traitsIcEENS_9allocatorIcEEEERNS_13basic_ostreamIT_T0_EES9_RKNS_12basic_stringIS6_S7_T1_EE)
                  0001523e    00000020     TimeHandler.obj (.text:_ZNSt3__2plIcNS_11char_traitsIcEENS_9allocatorIcEEEENS_12basic_stringIT_T0_T1_EEPKS6_OS9_)
                  0001525e    00000002     --HOLE-- [fill = 0]
                  00015260    00000020     rtsv7M4_T_le_v4SPD16_eabi.lib : iostream.cpp.obj (.text:__sti___12_iostream_cpp_d173592a__prio101)
                  00015280    00000020                                   : wctype.c.obj (.text:iswlower)
                  000152a0    00000020                                   : memchr.c.obj (.text:memchr)
                  000152c0    00000020                                   : sscanf.c.obj (.text:vsscanf)
                  000152e0    00000020                                   : none_mb.c.obj (.text:wcrtomb)
                  00015300    0000001e                                   : locale.cpp.obj (.text:_ZNKSt3__210moneypunctIcLb0EE13do_neg_formatEv)
                  0001531e    0000001e                                   : locale.cpp.obj (.text:_ZNKSt3__210moneypunctIcLb0EE13do_pos_formatEv)
                  0001533c    0000001e                                   : locale.cpp.obj (.text:_ZNKSt3__210moneypunctIcLb0EE16do_negative_signEv)
                  0001535a    0000001e                                   : locale.cpp.obj (.text:_ZNKSt3__210moneypunctIcLb1EE13do_neg_formatEv)
                  00015378    0000001e                                   : locale.cpp.obj (.text:_ZNKSt3__210moneypunctIcLb1EE13do_pos_formatEv)
                  00015396    0000001e                                   : locale.cpp.obj (.text:_ZNKSt3__210moneypunctIcLb1EE16do_negative_signEv)
                  000153b4    0000001e                                   : locale.cpp.obj (.text:_ZNKSt3__210moneypunctIwLb0EE13do_neg_formatEv)
                  000153d2    0000001e                                   : locale.cpp.obj (.text:_ZNKSt3__210moneypunctIwLb0EE13do_pos_formatEv)
                  000153f0    0000001e                                   : locale.cpp.obj (.text:_ZNKSt3__210moneypunctIwLb0EE16do_negative_signEv)
                  0001540e    0000001e                                   : locale.cpp.obj (.text:_ZNKSt3__210moneypunctIwLb1EE13do_neg_formatEv)
                  0001542c    0000001e                                   : locale.cpp.obj (.text:_ZNKSt3__210moneypunctIwLb1EE13do_pos_formatEv)
                  0001544a    0000001e                                   : locale.cpp.obj (.text:_ZNKSt3__210moneypunctIwLb1EE16do_negative_signEv)
                  00015468    0000001e                                   : string.cpp.obj (.text:_ZNSt3__212basic_stringIcNS_11char_traitsIcEENS_9allocatorIcEEEC1EPKc)
                  00015486    0000001e                                   : string.cpp.obj (.text:_ZNSt3__212basic_stringIcNS_11char_traitsIcEENS_9allocatorIcEEEC1Ev)
                  000154a4    0000001e                                   : string.cpp.obj (.text:_ZNSt3__212basic_stringIwNS_11char_traitsIwEENS_9allocatorIwEEEC1Ev)
                  000154c2    0000001e                                   : ios.cpp.obj (.text:_ZNSt3__215basic_streambufIcNS_11char_traitsIcEEE7seekoffExNS_8ios_base7seekdirEj)
                  000154e0    0000001e                                   : ios.cpp.obj (.text:_ZNSt3__215basic_streambufIwNS_11char_traitsIwEEE7seekoffExNS_8ios_base7seekdirEj)
                  000154fe    0000001e     Monitor.obj (.text:_ZNSt3__2neIcNS_11char_traitsIcEENS_9allocatorIcEEEEbRKNS_12basic_stringIT_T0_T1_EEPKS6_)
                  0001551c    0000001e     ComandCenter.obj (.text:_ZNSt3__2plIcNS_11char_traitsIcEENS_9allocatorIcEEEENS_12basic_stringIT_T0_T1_EEOS9_PKS6_)
                  0001553a    0000001e     ComandCenter.obj (.text:_ZNSt3__2plIcNS_11char_traitsIcEENS_9allocatorIcEEEENS_12basic_stringIT_T0_T1_EEOS9_RKS9_)
                  00015558    0000001e     TimeHandler.obj (.text:_ZNSt3__2plIcNS_11char_traitsIcEENS_9allocatorIcEEEENS_12basic_stringIT_T0_T1_EEOS9_SA_)
                  00015576    0000001c     rtsv7M4_T_le_v4SPD16_eabi.lib : locale.cpp.obj (.text:_ZNKSt3__210moneypunctIcLb0EE11do_groupingEv)
                  00015592    0000001c                                   : locale.cpp.obj (.text:_ZNKSt3__210moneypunctIcLb0EE14do_curr_symbolEv)
                  000155ae    0000001c                                   : locale.cpp.obj (.text:_ZNKSt3__210moneypunctIcLb0EE16do_positive_signEv)
                  000155ca    0000001c                                   : locale.cpp.obj (.text:_ZNKSt3__210moneypunctIcLb1EE11do_groupingEv)
                  000155e6    0000001c                                   : locale.cpp.obj (.text:_ZNKSt3__210moneypunctIcLb1EE14do_curr_symbolEv)
                  00015602    0000001c                                   : locale.cpp.obj (.text:_ZNKSt3__210moneypunctIcLb1EE16do_positive_signEv)
                  0001561e    0000001c                                   : locale.cpp.obj (.text:_ZNKSt3__210moneypunctIwLb0EE11do_groupingEv)
                  0001563a    0000001c                                   : locale.cpp.obj (.text:_ZNKSt3__210moneypunctIwLb0EE14do_curr_symbolEv)
                  00015656    0000001c                                   : locale.cpp.obj (.text:_ZNKSt3__210moneypunctIwLb0EE16do_positive_signEv)
                  00015672    0000001c                                   : locale.cpp.obj (.text:_ZNKSt3__210moneypunctIwLb1EE11do_groupingEv)
                  0001568e    0000001c                                   : locale.cpp.obj (.text:_ZNKSt3__210moneypunctIwLb1EE14do_curr_symbolEv)
                  000156aa    0000001c                                   : locale.cpp.obj (.text:_ZNKSt3__210moneypunctIwLb1EE16do_positive_signEv)
                  000156c6    0000001c                                   : locale.cpp.obj (.text:_ZNKSt3__25ctypeIwE5do_isEhw)
                  000156e2    0000001c     ComandCenter.obj (.text:_ZNSt3__211char_traitsIcE4copyEPcPKcj)
                  000156fe    0000001c     ComandCenter.obj (.text:_ZNSt3__211char_traitsIcE7compareEPKcS3_j)
                  0001571a    0000001c     rtsv7M4_T_le_v4SPD16_eabi.lib : string.cpp.obj (.text:_ZNSt3__212basic_stringIcNS_11char_traitsIcEENS_9allocatorIcEEE6insertEjPKc)
                  00015736    00000002     --HOLE-- [fill = 0]
                  00015738    0000001c                                   : ios.cpp.obj (.text:_ZNSt3__213basic_istreamIcNS_11char_traitsIcEEED1Ev)
                  00015754    0000001c                                   : ios.cpp.obj (.text:_ZNSt3__213basic_istreamIwNS_11char_traitsIwEEED1Ev)
                  00015770    0000001c                                   : ios.cpp.obj (.text:_ZNSt3__213basic_ostreamIcNS_11char_traitsIcEEED1Ev)
                  0001578c    0000001c                                   : ios.cpp.obj (.text:_ZNSt3__213basic_ostreamIwNS_11char_traitsIwEEED1Ev)
                  000157a8    0000001c                                   : locale.cpp.obj (.text:_ZNSt3__26locale5__imp12make_classicEv)
                  000157c4    0000001c                                   : locale.cpp.obj (.text:_ZNSt3__27codecvtIwciEC1Ej)
                  000157e0    0000001c                                   : vec_newdel.c.obj (.text:__cxa_vec_dtor)
                  000157fc    0000001c                                   : memccpy.c.obj (.text:memccpy)
                  00015818    0000001c                                   : locale_stdio.c.obj (.text:snprintf_l)
                  00015834    0000001a     ISRMsgMaker.obj (.text:_ZNKSt3__214default_deleteI10RingBufferI6ISRMsgEEclEPS3_)
                  0001584e    0000001a     ISRMsgMaker.obj (.text:_ZNKSt3__214default_deleteI10RingBufferIcEEclEPS2_)
                  00015868    0000001a     ComandCenter.obj (.text:_ZNKSt3__25ctypeIcE5widenEc)
                  00015882    0000001a     rtsv7M4_T_le_v4SPD16_eabi.lib : locale.cpp.obj (.text:_ZNSt3__214__shared_count16__release_sharedEv)
                  0001589c    0000001a     ComandCenter.obj (.text:_ZNSt3__28ios_base5widthEi)
                  000158b6    0000001a     rtsv7M4_T_le_v4SPD16_eabi.lib : locale.cpp.obj (.text:_ZNSt3__28numpunctIcED1Ev)
                  000158d0    0000001a                                   : locale.cpp.obj (.text:_ZNSt3__28numpunctIwED1Ev)
                  000158ea    0000001a                                   : locale.cpp.obj (.text:_ZNSt3__28time_putIcNS_19ostreambuf_iteratorIcNS_11char_traitsIcEEEEED0Ev)
                  00015904    0000001a                                   : locale.cpp.obj (.text:_ZNSt3__28time_putIwNS_19ostreambuf_iteratorIwNS_11char_traitsIwEEEEED0Ev)
                  0001591e    0000001a                                   : asprintf.c.obj (.text:asprintf_l)
                  00015938    0000001a                                   : locale_stdio.c.obj (.text:sscanf_l)
                  00015952    00000002     --HOLE-- [fill = 0]
                  00015954    00000018                                   : locale.cpp.obj (.text:$P$F1)
                  0001596c    00000018     Glue.obj (.text)
                  00015984    00000018     rtsv7M4_T_le_v4SPD16_eabi.lib : locale.cpp.obj (.text:_ZNKSt3__25ctypeIcE8do_widenEPKcS3_Pc)
                  0001599c    00000018                                   : locale.cpp.obj (.text:_ZNKSt3__25ctypeIwE8do_widenEPKcS3_Pw)
                  000159b4    00000018                                   : locale.cpp.obj (.text:_ZNKSt3__27codecvtIDiciE9do_lengthERiPKcS4_j)
                  000159cc    00000018                                   : locale.cpp.obj (.text:_ZNKSt3__27codecvtIDsciE9do_lengthERiPKcS4_j)
                  000159e4    00000018                                   : locale.cpp.obj (.text:_ZNSt3__210__time_putD1Ev)
                  000159fc    00000018     ISRMsgMaker.obj (.text:_ZNSt3__210unique_ptrI10RingBufferI6ISRMsgENS_14default_deleteIS3_EEEC1ILb1EvEEv)
                  00015a14    00000018     ISRMsgMaker.obj (.text:_ZNSt3__210unique_ptrI10RingBufferIcENS_14default_deleteIS2_EEEC1ILb1EvEEv)
                  00015a2c    00000018     rtsv7M4_T_le_v4SPD16_eabi.lib : mutex.cpp.obj (.text:_ZNSt3__211__call_onceERVmPvPFvS2_E)
                  00015a44    00000018                                   : string.cpp.obj (.text:_ZNSt3__212basic_stringIcNS_11char_traitsIcEENS_9allocatorIcEEE6appendEPKc)
                  00015a5c    00000018                                   : string.cpp.obj (.text:_ZNSt3__212basic_stringIcNS_11char_traitsIcEENS_9allocatorIcEEE6assignEPKc)
                  00015a74    00000018                                   : string.cpp.obj (.text:_ZNSt3__212basic_stringIcNS_11char_traitsIcEENS_9allocatorIcEEEC1Ejc)
                  00015a8c    00000018                                   : string.cpp.obj (.text:_ZNSt3__212basic_stringIwNS_11char_traitsIwEENS_9allocatorIwEEE6assignEPKw)
                  00015aa4    00000018     ISRMsgMaker.obj (.text:_ZNSt3__217__compressed_pairIP6ISRMsgNS_14default_deleteIA_S1_EEEC1IRS2_Lb1EEEOT_)
                  00015abc    00000018     ISRMsgMaker.obj (.text:_ZNSt3__217__compressed_pairIPcNS_14default_deleteIA_cEEEC1IRS1_Lb1EEEOT_)
                  00015ad4    00000018     rtsv7M4_T_le_v4SPD16_eabi.lib : locale.cpp.obj (.text:_ZNSt3__25ctypeIcED1Ev)
                  00015aec    00000018                                   : locale.cpp.obj (.text:_ZNSt3__26locale5__imp11make_globalEv)
                  00015b04    00000018                                   : locale.cpp.obj (.text:_ZNSt3__26localeD1Ev)
                  00015b1c    00000018                                   : locale.cpp.obj (.text:_ZNSt3__26vectorIPNS_6locale5facetENS_15__sso_allocatorIS3_Lj28EEEE18__construct_at_endEj)
                  00015b34    00000018     ComandCenter.obj (.text:_ZNSt3__2lsINS_11char_traitsIcEEEERNS_13basic_ostreamIcT_EES6_PKc)
                  00015b4c    00000018     rtsv7M4_T_le_v4SPD16_eabi.lib : snprintf.c.obj (.text:_outc)
                  00015b64    00000018                                   : vsnprintf.c.obj (.text:_outc)
                  00015b7c    00000018                                   : ll_mul_t2.asm.obj (.text)
                  00015b94    00000018                                   : strcmp.c.obj (.text:strcmp)
                  00015bac    00000018                                   : strrchr.c.obj (.text:strrchr)
                  00015bc4    00000016     ISRMsgMaker.obj (.text:_ZNKSt3__210unique_ptrIA_6ISRMsgNS_14default_deleteIS2_EEEixEj)
                  00015bda    00000016     rtsv7M4_T_le_v4SPD16_eabi.lib : string.cpp.obj (.text:_ZNKSt3__212basic_stringIcNS_11char_traitsIcEENS_9allocatorIcEEE4dataEv)
                  00015bf0    00000016                                   : string.cpp.obj (.text:_ZNKSt3__212basic_stringIcNS_11char_traitsIcEENS_9allocatorIcEEE4sizeEv)
                  00015c06    00000016                                   : string.cpp.obj (.text:_ZNKSt3__212basic_stringIcNS_11char_traitsIcEENS_9allocatorIcEEE9__is_longEv)
                  00015c1c    00000016                                   : locale.cpp.obj (.text:_ZNKSt3__26locale9use_facetERNS0_2idE)
                  00015c32    00000016                                   : ios.cpp.obj (.text:_ZNSt3__215basic_streambufIcNS_11char_traitsIcEEE5sgetcEv)
                  00015c48    00000016                                   : ios.cpp.obj (.text:_ZNSt3__215basic_streambufIwNS_11char_traitsIwEEE5sgetcEv)
                  00015c5e    00000016     ISRMsgMaker.obj (.text:_ZNSt3__222__compressed_pair_elemIP6ISRMsgLi0ELb0EEC1IRS2_vEEOT_)
                  00015c74    00000016     ISRMsgMaker.obj (.text:_ZNSt3__222__compressed_pair_elemIPcLi0ELb0EEC1IRS1_vEEOT_)
                  00015c8a    00000016     rtsv7M4_T_le_v4SPD16_eabi.lib : locale.cpp.obj (.text:_ZNSt3__26localeC1Ev)
                  00015ca0    00000016                                   : strchr.c.obj (.text:strchr)
                  00015cb6    00000002     --HOLE-- [fill = 0]
                  00015cb8    00000014                                   : locale.cpp.obj (.text:$P$F0)
                  00015ccc    00000014                                   : locale.cpp.obj (.text:$P$F2)
                  00015ce0    00000014                                   : locale.cpp.obj (.text:$P$F3)
                  00015cf4    00000014                                   : locale.cpp.obj (.text:$P$F4)
                  00015d08    00000014                                   : locale.cpp.obj (.text:$P$F5)
                  00015d1c    00000014     ISRMsgMaker.obj (.text:_ZNKSt3__210unique_ptrIA_cNS_14default_deleteIS1_EEEixEj)
                  00015d30    00000014     rtsv7M4_T_le_v4SPD16_eabi.lib : string.cpp.obj (.text:_ZNKSt3__212basic_stringIcNS_11char_traitsIcEENS_9allocatorIcEEE6lengthEv)
                  00015d44    00000014     ComandCenter.obj (.text:_ZNKSt3__219ostreambuf_iteratorIcNS_11char_traitsIcEEE6failedEv)
                  00015d58    00000014     rtsv7M4_T_le_v4SPD16_eabi.lib : locale.cpp.obj (.text:_ZNKSt3__27codecvtIcciE9do_lengthERiPKcS4_j)
                  00015d6c    00000014     ComandCenter.obj (.text:_ZNSt3__211char_traitsIcE6assignERcRKc)
                  00015d80    00000014     rtsv7M4_T_le_v4SPD16_eabi.lib : ios.cpp.obj (.text:_ZNSt3__213basic_istreamIcNS_11char_traitsIcEEED2Ev)
                  00015d94    00000014                                   : ios.cpp.obj (.text:_ZNSt3__213basic_istreamIwNS_11char_traitsIwEEED2Ev)
                  00015da8    00000014                                   : locale.cpp.obj (.text:_ZNSt3__28time_putIcNS_19ostreambuf_iteratorIcNS_11char_traitsIcEEEEED1Ev)
                  00015dbc    00000014                                   : locale.cpp.obj (.text:_ZNSt3__28time_putIwNS_19ostreambuf_iteratorIwNS_11char_traitsIwEEEEED1Ev)
                  00015dd0    00000014                                   : s_copysign.c.obj (.text:copysign)
                  00015de4    00000014                                   : strcpy.c.obj (.text:strcpy)
                  00015df8    00000014                                   : strlen.c.obj (.text:strlen)
                  00015e0c    00000014                                   : wmemset.c.obj (.text:wmemset)
                  00015e20    00000012     ISRMsgMaker.obj (.text:_ZNSt3__210unique_ptrIA_6ISRMsgNS_14default_deleteIS2_EEEC1IPS1_Lb1EvvEET_)
                  00015e32    00000012     ISRMsgMaker.obj (.text:_ZNSt3__210unique_ptrIA_cNS_14default_deleteIS1_EEEC1IPcLb1EvvEET_)
                  00015e44    00000012     rtsv7M4_T_le_v4SPD16_eabi.lib : ios.cpp.obj (.text:_ZNSt3__213basic_ostreamIcNS_11char_traitsIcEEED2Ev)
                  00015e56    00000012                                   : ios.cpp.obj (.text:_ZNSt3__213basic_ostreamIwNS_11char_traitsIwEEED2Ev)
                  00015e68    00000012     ComandCenter.obj (.text:_ZNSt3__222__compressed_pair_elemINS_12basic_stringIcNS_11char_traitsIcEENS_9allocatorIcEEE5__repELi0ELb0EEC1Ev)
                  00015e7a    00000012     rtsv7M4_T_le_v4SPD16_eabi.lib : sscanf.c.obj (.text:_inpchar)
                  00015e8c    00000012                                   : s_copysignf.c.obj (.text:copysignf)
                  00015e9e    00000012                                   : wcslen.c.obj (.text:wcslen)
                  00015eb0    00000010                                   : locale.cpp.obj (.text:_ZNKSt3__27num_getIcNS_19istreambuf_iteratorIcNS_11char_traitsIcEEEEE6do_getES4_S4_RNS_8ios_baseERjRd)
                  00015ec0    00000010                                   : locale.cpp.obj (.text:_ZNKSt3__27num_getIcNS_19istreambuf_iteratorIcNS_11char_traitsIcEEEEE6do_getES4_S4_RNS_8ios_baseERjRe)
                  00015ed0    00000010                                   : locale.cpp.obj (.text:_ZNKSt3__27num_getIcNS_19istreambuf_iteratorIcNS_11char_traitsIcEEEEE6do_getES4_S4_RNS_8ios_baseERjRf)
                  00015ee0    00000010                                   : locale.cpp.obj (.text:_ZNKSt3__27num_getIcNS_19istreambuf_iteratorIcNS_11char_traitsIcEEEEE6do_getES4_S4_RNS_8ios_baseERjRl)
                  00015ef0    00000010                                   : locale.cpp.obj (.text:_ZNKSt3__27num_getIcNS_19istreambuf_iteratorIcNS_11char_traitsIcEEEEE6do_getES4_S4_RNS_8ios_baseERjRm)
                  00015f00    00000010                                   : locale.cpp.obj (.text:_ZNKSt3__27num_getIcNS_19istreambuf_iteratorIcNS_11char_traitsIcEEEEE6do_getES4_S4_RNS_8ios_baseERjRt)
                  00015f10    00000010                                   : locale.cpp.obj (.text:_ZNKSt3__27num_getIcNS_19istreambuf_iteratorIcNS_11char_traitsIcEEEEE6do_getES4_S4_RNS_8ios_baseERjRx)
                  00015f20    00000010                                   : locale.cpp.obj (.text:_ZNKSt3__27num_getIcNS_19istreambuf_iteratorIcNS_11char_traitsIcEEEEE6do_getES4_S4_RNS_8ios_baseERjRy)
                  00015f30    00000010                                   : locale.cpp.obj (.text:_ZNKSt3__27num_getIcNS_19istreambuf_iteratorIcNS_11char_traitsIcEEEEE6do_getES4_S4_RNS_8ios_baseERjS8_)
                  00015f40    00000010                                   : locale.cpp.obj (.text:_ZNKSt3__27num_getIwNS_19istreambuf_iteratorIwNS_11char_traitsIwEEEEE6do_getES4_S4_RNS_8ios_baseERjRd)
                  00015f50    00000010                                   : locale.cpp.obj (.text:_ZNKSt3__27num_getIwNS_19istreambuf_iteratorIwNS_11char_traitsIwEEEEE6do_getES4_S4_RNS_8ios_baseERjRe)
                  00015f60    00000010                                   : locale.cpp.obj (.text:_ZNKSt3__27num_getIwNS_19istreambuf_iteratorIwNS_11char_traitsIwEEEEE6do_getES4_S4_RNS_8ios_baseERjRf)
                  00015f70    00000010                                   : locale.cpp.obj (.text:_ZNKSt3__27num_getIwNS_19istreambuf_iteratorIwNS_11char_traitsIwEEEEE6do_getES4_S4_RNS_8ios_baseERjRl)
                  00015f80    00000010                                   : locale.cpp.obj (.text:_ZNKSt3__27num_getIwNS_19istreambuf_iteratorIwNS_11char_traitsIwEEEEE6do_getES4_S4_RNS_8ios_baseERjRm)
                  00015f90    00000010                                   : locale.cpp.obj (.text:_ZNKSt3__27num_getIwNS_19istreambuf_iteratorIwNS_11char_traitsIwEEEEE6do_getES4_S4_RNS_8ios_baseERjRt)
                  00015fa0    00000010                                   : locale.cpp.obj (.text:_ZNKSt3__27num_getIwNS_19istreambuf_iteratorIwNS_11char_traitsIwEEEEE6do_getES4_S4_RNS_8ios_baseERjRx)
                  00015fb0    00000010                                   : locale.cpp.obj (.text:_ZNKSt3__27num_getIwNS_19istreambuf_iteratorIwNS_11char_traitsIwEEEEE6do_getES4_S4_RNS_8ios_baseERjRy)
                  00015fc0    00000010                                   : locale.cpp.obj (.text:_ZNKSt3__27num_getIwNS_19istreambuf_iteratorIwNS_11char_traitsIwEEEEE6do_getES4_S4_RNS_8ios_baseERjS8_)
                  00015fd0    00000010     ISRMsgMaker.obj (.text:_ZNSt3__210unique_ptrIA_6ISRMsgNS_14default_deleteIS2_EEED1Ev)
                  00015fe0    00000010     ISRMsgMaker.obj (.text:_ZNSt3__210unique_ptrIA_cNS_14default_deleteIS1_EEED1Ev)
                  00015ff0    00000010     rtsv7M4_T_le_v4SPD16_eabi.lib : locale.cpp.obj (.text:_ZNSt3__210unique_ptrIcPFvPvEE5resetEPc)
                  00016000    00000010                                   : locale.cpp.obj (.text:_ZNSt3__210unique_ptrIhPFvPvEE5resetEPh)
                  00016010    00000010                                   : locale.cpp.obj (.text:_ZNSt3__210unique_ptrIwPFvPvEE5resetEPw)
                  00016020    00000010     ComandCenter.obj (.text:_ZNSt3__211char_traitsIcE11to_int_typeEc)
                  00016030    00000010     rtsv7M4_T_le_v4SPD16_eabi.lib : string.cpp.obj (.text:_ZNSt3__222__compressed_pair_elemINS_12basic_stringIwNS_11char_traitsIwEENS_9allocatorIwEEE5__repELi0ELb0EEC1Ev)
                  00016040    00000010     ISRMsgMaker.obj (.text:_ZNSt3__222__compressed_pair_elemIP6ISRMsgLi0ELb0EEC2IRS2_vEEOT_)
                  00016050    00000010     ISRMsgMaker.obj (.text:_ZNSt3__222__compressed_pair_elemIPcLi0ELb0EEC2IRS1_vEEOT_)
                  00016060    00000010     rtsv7M4_T_le_v4SPD16_eabi.lib : locale.cpp.obj (.text:_ZNSt3__26locale2id6__initEv)
                  00016070    00000010                                   : none_mb.c.obj (.text:mbsrtowcs)
                  00016080    00000010                                   : locale_stdlib.c.obj (.text:strtod_l)
                  00016090    00000010                                   : locale_stdlib.c.obj (.text:strtold_l)
                  000160a0    0000000e     ISRMsgMaker.obj (.text:_ZN10RingBufferI6ISRMsgED1Ev)
                  000160ae    0000000e     ISRMsgMaker.obj (.text:_ZN10RingBufferIcED1Ev)
                  000160bc    0000000e     rtsv7M4_T_le_v4SPD16_eabi.lib : typeinfo.c.obj (.text:_ZN10__cxxabiv117__class_type_infoD0Ev)
                  000160ca    0000000e                                   : typeinfo.c.obj (.text:_ZN10__cxxabiv120__si_class_type_infoD0Ev)
                  000160d8    0000000e                                   : typeinfo.c.obj (.text:_ZN10__cxxabiv121__vmi_class_type_infoD0Ev)
                  000160e6    0000000e     ISRMsgMaker.obj (.text:_ZNK10RingBufferI6ISRMsgE5EmptyEv)
                  000160f4    0000000e     ISRMsgMaker.obj (.text:_ZNK10RingBufferIcE5EmptyEv)
                  00016102    0000000e     ISRMsgMaker.obj (.text:_ZNKSt3__210unique_ptrI10RingBufferI6ISRMsgENS_14default_deleteIS3_EEEptEv)
                  00016110    0000000e     ISRMsgMaker.obj (.text:_ZNKSt3__210unique_ptrI10RingBufferIcENS_14default_deleteIS2_EEEptEv)
                  0001611e    0000000e     ISRMsgMaker.obj (.text:_ZNKSt3__214default_deleteIA_6ISRMsgEclIS1_EENS3_20_EnableIfConvertibleIT_E4typeEPS6_)
                  0001612c    0000000e     ISRMsgMaker.obj (.text:_ZNKSt3__214default_deleteIA_cEclIcEENS2_20_EnableIfConvertibleIT_E4typeEPS5_)
                  0001613a    0000000e     rtsv7M4_T_le_v4SPD16_eabi.lib : locale.cpp.obj (.text:_ZNKSt3__27codecvtIcciE5do_inERiPKcS4_RS4_PcS6_RS6_)
                  00016148    0000000e                                   : locale.cpp.obj (.text:_ZNKSt3__27codecvtIcciE6do_outERiPKcS4_RS4_PcS6_RS6_)
                  00016156    0000000e     ComandCenter.obj (.text:_ZNKSt3__28ios_base5flagsEv)
                  00016164    0000000e     ComandCenter.obj (.text:_ZNKSt3__28ios_base5widthEv)
                  00016172    0000000e     rtsv7M4_T_le_v4SPD16_eabi.lib : iostream.cpp.obj (.text:_ZNSt3__210__stdinbufIcED0Ev)
                  00016180    0000000e                                   : iostream.cpp.obj (.text:_ZNSt3__210__stdinbufIwED0Ev)
                  0001618e    0000000e                                   : locale.cpp.obj (.text:_ZNSt3__210moneypunctIcLb0EED0Ev)
                  0001619c    0000000e                                   : locale.cpp.obj (.text:_ZNSt3__210moneypunctIcLb1EED0Ev)
                  000161aa    0000000e                                   : locale.cpp.obj (.text:_ZNSt3__210moneypunctIwLb0EED0Ev)
                  000161b8    0000000e                                   : locale.cpp.obj (.text:_ZNSt3__210moneypunctIwLb1EED0Ev)
                  000161c6    0000000e                                   : iostream.cpp.obj (.text:_ZNSt3__211__stdoutbufIcED0Ev)
                  000161d4    0000000e                                   : iostream.cpp.obj (.text:_ZNSt3__211__stdoutbufIwED0Ev)
                  000161e2    0000000e                                   : ios.cpp.obj (.text:_ZNSt3__213basic_istreamIcNS_11char_traitsIcEEED0Ev)
                  000161f0    0000000e                                   : ios.cpp.obj (.text:_ZNSt3__213basic_istreamIwNS_11char_traitsIwEEED0Ev)
                  000161fe    0000000e                                   : ios.cpp.obj (.text:_ZNSt3__213basic_ostreamIcNS_11char_traitsIcEEED0Ev)
                  0001620c    0000000e                                   : ios.cpp.obj (.text:_ZNSt3__213basic_ostreamIwNS_11char_traitsIwEEED0Ev)
                  0001621a    0000000e                                   : ios.cpp.obj (.text:_ZNSt3__215basic_streambufIcNS_11char_traitsIcEEED0Ev)
                  00016228    0000000e                                   : ios.cpp.obj (.text:_ZNSt3__215basic_streambufIcNS_11char_traitsIcEEED1Ev)
                  00016236    0000000e                                   : ios.cpp.obj (.text:_ZNSt3__215basic_streambufIwNS_11char_traitsIwEEED0Ev)
                  00016244    0000000e                                   : ios.cpp.obj (.text:_ZNSt3__215basic_streambufIwNS_11char_traitsIwEEED1Ev)
                  00016252    0000000e                                   : locale.cpp.obj (.text:_ZNSt3__25ctypeIcED0Ev)
                  00016260    0000000e                                   : locale.cpp.obj (.text:_ZNSt3__25ctypeIwED0Ev)
                  0001626e    0000000e                                   : locale.cpp.obj (.text:_ZNSt3__26locale5__impD0Ev)
                  0001627c    0000000e                                   : locale.cpp.obj (.text:_ZNSt3__26locale5facetD0Ev)
                  0001628a    0000000e                                   : locale.cpp.obj (.text:_ZNSt3__27codecvtIDiciED0Ev)
                  00016298    0000000e                                   : locale.cpp.obj (.text:_ZNSt3__27codecvtIDsciED0Ev)
                  000162a6    0000000e                                   : locale.cpp.obj (.text:_ZNSt3__27codecvtIcciED0Ev)
                  000162b4    0000000e                                   : locale.cpp.obj (.text:_ZNSt3__27codecvtIwciED0Ev)
                  000162c2    0000000e                                   : locale.cpp.obj (.text:_ZNSt3__27collateIcED0Ev)
                  000162d0    0000000e                                   : locale.cpp.obj (.text:_ZNSt3__27collateIwED0Ev)
                  000162de    0000000e                                   : locale.cpp.obj (.text:_ZNSt3__27num_getIcNS_19istreambuf_iteratorIcNS_11char_traitsIcEEEEED0Ev)
                  000162ec    0000000e                                   : locale.cpp.obj (.text:_ZNSt3__27num_getIwNS_19istreambuf_iteratorIwNS_11char_traitsIwEEEEED0Ev)
                  000162fa    0000000e                                   : locale.cpp.obj (.text:_ZNSt3__27num_putIcNS_19ostreambuf_iteratorIcNS_11char_traitsIcEEEEED0Ev)
                  00016308    0000000e                                   : locale.cpp.obj (.text:_ZNSt3__27num_putIwNS_19ostreambuf_iteratorIwNS_11char_traitsIwEEEEED0Ev)
                  00016316    0000000e                                   : ios.cpp.obj (.text:_ZNSt3__28ios_baseD0Ev)
                  00016324    0000000e                                   : locale.cpp.obj (.text:_ZNSt3__28messagesIcED0Ev)
                  00016332    0000000e                                   : locale.cpp.obj (.text:_ZNSt3__28messagesIwED0Ev)
                  00016340    0000000e                                   : locale.cpp.obj (.text:_ZNSt3__28numpunctIcED0Ev)
                  0001634e    0000000e                                   : locale.cpp.obj (.text:_ZNSt3__28numpunctIwED0Ev)
                  0001635c    0000000e                                   : locale.cpp.obj (.text:_ZNSt3__28time_getIcNS_19istreambuf_iteratorIcNS_11char_traitsIcEEEEED0Ev)
                  0001636a    0000000e                                   : locale.cpp.obj (.text:_ZNSt3__28time_getIwNS_19istreambuf_iteratorIwNS_11char_traitsIwEEEEED0Ev)
                  00016378    0000000e                                   : ios.cpp.obj (.text:_ZNSt3__29basic_iosIcNS_11char_traitsIcEEED0Ev)
                  00016386    0000000e                                   : ios.cpp.obj (.text:_ZNSt3__29basic_iosIwNS_11char_traitsIwEEED0Ev)
                  00016394    0000000e                                   : locale.cpp.obj (.text:_ZNSt3__29money_getIcNS_19istreambuf_iteratorIcNS_11char_traitsIcEEEEED0Ev)
                  000163a2    0000000e                                   : locale.cpp.obj (.text:_ZNSt3__29money_getIwNS_19istreambuf_iteratorIwNS_11char_traitsIwEEEEED0Ev)
                  000163b0    0000000e                                   : locale.cpp.obj (.text:_ZNSt3__29money_putIcNS_19ostreambuf_iteratorIcNS_11char_traitsIcEEEEED0Ev)
                  000163be    0000000e                                   : locale.cpp.obj (.text:_ZNSt3__29money_putIwNS_19ostreambuf_iteratorIwNS_11char_traitsIwEEEEED0Ev)
                  000163cc    0000000e                                   : copy_decompress_none.c.obj (.text:decompress:none:__TI_decompress_none)
                  000163da    0000000c     ISRMsgMaker.obj (.text:_ZNKSt3__217__compressed_pairIP10RingBufferI6ISRMsgENS_14default_deleteIS3_EEE5firstEv)
                  000163e6    0000000c     ISRMsgMaker.obj (.text:_ZNKSt3__217__compressed_pairIP10RingBufferIcENS_14default_deleteIS2_EEE5firstEv)
                  000163f2    0000000c     ISRMsgMaker.obj (.text:_ZNKSt3__217__compressed_pairIP6ISRMsgNS_14default_deleteIA_S1_EEE5firstEv)
                  000163fe    0000000c     ISRMsgMaker.obj (.text:_ZNKSt3__217__compressed_pairIPcNS_14default_deleteIA_cEEE5firstEv)
                  0001640a    00000002     --HOLE-- [fill = 0]
                  0001640c    0000000c     rtsv7M4_T_le_v4SPD16_eabi.lib : vector.cpp.obj (.text:_ZNKSt3__220__vector_base_commonILb1EE20__throw_length_errorEv)
                  00016418    0000000c                                   : string.cpp.obj (.text:_ZNKSt3__221__basic_string_commonILb1EE20__throw_length_errorEv)
                  00016424    0000000c                                   : string.cpp.obj (.text:_ZNKSt3__221__basic_string_commonILb1EE20__throw_out_of_rangeEv)
                  00016430    0000000c     ComandCenter.obj (.text:_ZNKSt3__222__compressed_pair_elemINS_12basic_stringIcNS_11char_traitsIcEENS_9allocatorIcEEE5__repELi0ELb0EE5__getEv)
                  0001643c    0000000c     ISRMsgMaker.obj (.text:_ZNKSt3__222__compressed_pair_elemIP10RingBufferI6ISRMsgELi0ELb0EE5__getEv)
                  00016448    0000000c     ISRMsgMaker.obj (.text:_ZNKSt3__222__compressed_pair_elemIP10RingBufferIcELi0ELb0EE5__getEv)
                  00016454    0000000c     ISRMsgMaker.obj (.text:_ZNKSt3__222__compressed_pair_elemIP6ISRMsgLi0ELb0EE5__getEv)
                  00016460    0000000c     ISRMsgMaker.obj (.text:_ZNKSt3__222__compressed_pair_elemIPcLi0ELb0EE5__getEv)
                  0001646c    0000000c     rtsv7M4_T_le_v4SPD16_eabi.lib : locale.cpp.obj (.text:_ZNKSt3__25ctypeIcE9do_narrowEcc)
                  00016478    0000000c                                   : locale.cpp.obj (.text:_ZNKSt3__25ctypeIwE9do_narrowEwc)
                  00016484    0000000c                                   : locale.cpp.obj (.text:_ZNKSt3__27codecvtIwciE13do_max_lengthEv)
                  00016490    0000000c     ComandCenter.obj (.text:_ZNSt3__211char_traitsIcE6lengthEPKc)
                  0001649c    0000000c     rtsv7M4_T_le_v4SPD16_eabi.lib : string.cpp.obj (.text:_ZNSt3__212basic_stringIcNS_11char_traitsIcEENS_9allocatorIcEEEpLEc)
                  000164a8    0000000c     ISRMsgMaker.obj (.text:_ZNSt3__217__compressed_pairIP10RingBufferI6ISRMsgENS_14default_deleteIS3_EEE5firstEv)
                  000164b4    0000000c     ISRMsgMaker.obj (.text:_ZNSt3__217__compressed_pairIP10RingBufferI6ISRMsgENS_14default_deleteIS3_EEE6secondEv)
                  000164c0    0000000c     ISRMsgMaker.obj (.text:_ZNSt3__217__compressed_pairIP10RingBufferIcENS_14default_deleteIS2_EEE5firstEv)
                  000164cc    0000000c     ISRMsgMaker.obj (.text:_ZNSt3__217__compressed_pairIP10RingBufferIcENS_14default_deleteIS2_EEE6secondEv)
                  000164d8    0000000c     ISRMsgMaker.obj (.text:_ZNSt3__217__compressed_pairIP6ISRMsgNS_14default_deleteIA_S1_EEE5firstEv)
                  000164e4    0000000c     ISRMsgMaker.obj (.text:_ZNSt3__217__compressed_pairIP6ISRMsgNS_14default_deleteIA_S1_EEE6secondEv)
                  000164f0    0000000c     ISRMsgMaker.obj (.text:_ZNSt3__217__compressed_pairIPcNS_14default_deleteIA_cEEE5firstEv)
                  000164fc    0000000c     ISRMsgMaker.obj (.text:_ZNSt3__217__compressed_pairIPcNS_14default_deleteIA_cEEE6secondEv)
                  00016508    0000000c     ComandCenter.obj (.text:_ZNSt3__222__compressed_pair_elemINS_12basic_stringIcNS_11char_traitsIcEENS_9allocatorIcEEE5__repELi0ELb0EE5__getEv)
                  00016514    0000000c     ComandCenter.obj (.text:_ZNSt3__222__compressed_pair_elemINS_12basic_stringIcNS_11char_traitsIcEENS_9allocatorIcEEE5__repELi0ELb0EEC2Ev)
                  00016520    0000000c     ISRMsgMaker.obj (.text:_ZNSt3__222__compressed_pair_elemINS_14default_deleteI10RingBufferI6ISRMsgEEELi1ELb1EE5__getEv)
                  0001652c    0000000c     ISRMsgMaker.obj (.text:_ZNSt3__222__compressed_pair_elemINS_14default_deleteI10RingBufferIcEEELi1ELb1EE5__getEv)
                  00016538    0000000c     ISRMsgMaker.obj (.text:_ZNSt3__222__compressed_pair_elemINS_14default_deleteIA_6ISRMsgEELi1ELb1EE5__getEv)
                  00016544    0000000c     ISRMsgMaker.obj (.text:_ZNSt3__222__compressed_pair_elemINS_14default_deleteIA_cEELi1ELb1EE5__getEv)
                  00016550    0000000c     ISRMsgMaker.obj (.text:_ZNSt3__222__compressed_pair_elemIP10RingBufferI6ISRMsgELi0ELb0EE5__getEv)
                  0001655c    0000000c     ISRMsgMaker.obj (.text:_ZNSt3__222__compressed_pair_elemIP10RingBufferIcELi0ELb0EE5__getEv)
                  00016568    0000000c     ISRMsgMaker.obj (.text:_ZNSt3__222__compressed_pair_elemIP6ISRMsgLi0ELb0EE5__getEv)
                  00016574    0000000c     ISRMsgMaker.obj (.text:_ZNSt3__222__compressed_pair_elemIPcLi0ELb0EE5__getEv)
                  00016580    0000000c     ComandCenter.obj (.text:_ZNSt3__24moveIRNS_12basic_stringIcNS_11char_traitsIcEENS_9allocatorIcEEEEEEONS_16remove_referenceIT_E4typeEOS9_)
                  0001658c    0000000c     rtsv7M4_T_le_v4SPD16_eabi.lib : locale.cpp.obj (.text:_ZNSt3__26locale5facet16__on_zero_sharedEv)
                  00016598    0000000c                                   : locale.cpp.obj (.text:_ZNSt3__26localeC1ERKS0_)
                  000165a4    0000000c     ISRMsgMaker.obj (.text:_ZNSt3__27forwardIRP6ISRMsgEEOT_RNS_16remove_referenceIS4_E4typeE)
                  000165b0    0000000c     ISRMsgMaker.obj (.text:_ZNSt3__27forwardIRPcEEOT_RNS_16remove_referenceIS3_E4typeE)
                  000165bc    0000000c     rtsv7M4_T_le_v4SPD16_eabi.lib : ios.cpp.obj (.text:_ZNSt3__28ios_base5clearEj)
                  000165c8    0000000c                                   : new.cpp.obj (.text:_ZSt15get_new_handlerv)
                  000165d4    0000000c                                   : ios.cpp.obj (.text:_ZTv0_n12_NSt3__213basic_istreamIcNS_11char_traitsIcEEED0Ev)
                  000165e0    0000000c                                   : ios.cpp.obj (.text:_ZTv0_n12_NSt3__213basic_istreamIcNS_11char_traitsIcEEED1Ev)
                  000165ec    0000000c                                   : ios.cpp.obj (.text:_ZTv0_n12_NSt3__213basic_istreamIwNS_11char_traitsIwEEED0Ev)
                  000165f8    0000000c                                   : ios.cpp.obj (.text:_ZTv0_n12_NSt3__213basic_istreamIwNS_11char_traitsIwEEED1Ev)
                  00016604    0000000c                                   : ios.cpp.obj (.text:_ZTv0_n12_NSt3__213basic_ostreamIcNS_11char_traitsIcEEED0Ev)
                  00016610    0000000c                                   : ios.cpp.obj (.text:_ZTv0_n12_NSt3__213basic_ostreamIcNS_11char_traitsIcEEED1Ev)
                  0001661c    0000000c                                   : ios.cpp.obj (.text:_ZTv0_n12_NSt3__213basic_ostreamIwNS_11char_traitsIwEEED0Ev)
                  00016628    0000000c                                   : ios.cpp.obj (.text:_ZTv0_n12_NSt3__213basic_ostreamIwNS_11char_traitsIwEEED1Ev)
                  00016634    0000000c                                   : guard.c.obj (.text:__cxa_guard_acquire)
                  00016640    0000000c                                   : dtor_list.c.obj (.text:__cxa_ia64_exit)
                  0001664c    0000000c                                   : copy_zero_init.c.obj (.text:decompress:ZI:__TI_zero_init)
                  00016658    0000000c                                   : none_mb.c.obj (.text:mbrlen)
                  00016664    0000000c                                   : none_mb.c.obj (.text:mbsnrtowcs_l)
                  00016670    0000000c     tm4c1294ncpdt_startup_ccs.obj (.text)
                  0001667c    0000000c     rtsv7M4_T_le_v4SPD16_eabi.lib : none_mb.c.obj (.text:wcsnrtombs_l)
                  00016688    0000000a                                   : locale.cpp.obj (.text:_ZNKSt3__25ctypeIcE5widenEPKcS3_Pc)
                  00016692    0000000a                                   : locale.cpp.obj (.text:_ZNKSt3__25ctypeIcE6narrowEcc)
                  0001669c    0000000a                                   : locale.cpp.obj (.text:_ZNKSt3__25ctypeIcE7toupperEc)
                  000166a6    0000000a                                   : locale.cpp.obj (.text:_ZNKSt3__25ctypeIwE2isEhw)
                  000166b0    0000000a                                   : locale.cpp.obj (.text:_ZNKSt3__25ctypeIwE5widenEPKcS3_Pw)
                  000166ba    0000000a                                   : locale.cpp.obj (.text:_ZNKSt3__25ctypeIwE5widenEc)
                  000166c4    0000000a                                   : iostream.cpp.obj (.text:_ZNKSt3__27codecvtIwciE13always_noconvEv)
                  000166ce    0000000a                                   : locale.cpp.obj (.text:_ZNKSt3__28numpunctIcE13thousands_sepEv)
                  000166d8    0000000a                                   : locale.cpp.obj (.text:_ZNKSt3__28numpunctIcE8groupingEv)
                  000166e2    0000000a                                   : locale.cpp.obj (.text:_ZNKSt3__28numpunctIcE9falsenameEv)
                  000166ec    0000000a                                   : locale.cpp.obj (.text:_ZNKSt3__28numpunctIwE13thousands_sepEv)
                  000166f6    0000000a                                   : locale.cpp.obj (.text:_ZNKSt3__28numpunctIwE8groupingEv)
                  00016700    0000000a                                   : locale.cpp.obj (.text:_ZNKSt3__28numpunctIwE9falsenameEv)
                  0001670a    0000000a                                   : ios.cpp.obj (.text:_ZNSt3__215basic_streambufIcNS_11char_traitsIcEEE5sputnEPKci)
                  00016714    0000000a     ComandCenter.obj (.text:_ZNSt3__220__throw_length_errorEPKc)
                  0001671e    0000000a     rtsv7M4_T_le_v4SPD16_eabi.lib : guard.c.obj (.text:__cxa_guard_release)
                  00016728    00000008                                   : locale.cpp.obj (.text:_ZNKSt3__26locale5__imp9use_facetEl)
                  00016730    00000008                                   : locale.cpp.obj (.text:_ZNKSt3__27codecvtIDiciE10do_unshiftERiPcS3_RS3_)
                  00016738    00000008                                   : locale.cpp.obj (.text:_ZNKSt3__27codecvtIDsciE10do_unshiftERiPcS3_RS3_)
                  00016740    00000008                                   : locale.cpp.obj (.text:_ZNKSt3__27codecvtIcciE10do_unshiftERiPcS3_RS3_)
                  00016748    00000008                                   : string.cpp.obj (.text:_ZNSt3__211char_traitsIcE4moveEPcPKcj)
                  00016750    00000008                                   : string.cpp.obj (.text:_ZNSt3__211char_traitsIwE4copyEPwPKwj)
                  00016758    00000008                                   : string.cpp.obj (.text:_ZNSt3__211char_traitsIwE4moveEPwPKwj)
                  00016760    00000008                                   : locale.cpp.obj (.text:_ZNSt3__25ctypeIcE13classic_tableEv)
                  00016768    00000008                                   : ios.cpp.obj (.text:_ZNSt3__29basic_iosIcNS_11char_traitsIcEEE8setstateEj)
                  00016770    00000008                                   : new.cpp.obj (.text:_ZdlPv)
                  00016778    00000008                                   : errno.c.obj (.text:__aeabi_errno_addr)
                  00016780    00000008                                   : sscanf.c.obj (.text:_uninpchar)
                  00016788    00000008                                   : locale_stdio.c.obj (.text:vasprintf_l)
                  00016790    00000006                                   : locale.cpp.obj (.text:_ZNKSt3__210moneypunctIwLb0EE16do_decimal_pointEv)
                  00016796    00000006                                   : locale.cpp.obj (.text:_ZNKSt3__210moneypunctIwLb0EE16do_thousands_sepEv)
                  0001679c    00000006                                   : locale.cpp.obj (.text:_ZNKSt3__210moneypunctIwLb1EE16do_decimal_pointEv)
                  000167a2    00000006                                   : locale.cpp.obj (.text:_ZNKSt3__210moneypunctIwLb1EE16do_thousands_sepEv)
                  000167a8    00000006                                   : locale.cpp.obj (.text:_ZNKSt3__26vectorIPNS_6locale5facetENS_15__sso_allocatorIS3_Lj28EEEE8max_sizeEv)
                  000167ae    00000006                                   : ios.cpp.obj (.text:_ZNKSt3__28ios_base6getlocEv)
                  000167b4    00000006                                   : locale.cpp.obj (.text:_ZNKSt3__28messagesIcE6do_getEiiiRKNS_12basic_stringIcNS_11char_traitsIcEENS_9allocatorIcEEEE)
                  000167ba    00000006                                   : locale.cpp.obj (.text:_ZNKSt3__28messagesIcE7do_openERKNS_12basic_stringIcNS_11char_traitsIcEENS_9allocatorIcEEEERKNS_6localeE)
                  000167c0    00000006                                   : locale.cpp.obj (.text:_ZNKSt3__28messagesIwE6do_getEiiiRKNS_12basic_stringIwNS_11char_traitsIwEENS_9allocatorIwEEEE)
                  000167c6    00000006                                   : locale.cpp.obj (.text:_ZNKSt3__28messagesIwE7do_openERKNS_12basic_stringIcNS_11char_traitsIcEENS_9allocatorIcEEEERKNS_6localeE)
                  000167cc    00000006                                   : locale.cpp.obj (.text:_ZNKSt3__28numpunctIcE11do_groupingEv)
                  000167d2    00000006                                   : locale.cpp.obj (.text:_ZNKSt3__28numpunctIwE11do_groupingEv)
                  000167d8    00000006                                   : iostream.cpp.obj (.text:_ZNSt3__210__stdinbufIcE5uflowEv)
                  000167de    00000006                                   : iostream.cpp.obj (.text:_ZNSt3__210__stdinbufIcE9underflowEv)
                  000167e4    00000006                                   : iostream.cpp.obj (.text:_ZNSt3__210__stdinbufIwE5uflowEv)
                  000167ea    00000006                                   : iostream.cpp.obj (.text:_ZNSt3__210__stdinbufIwE9underflowEv)
                  000167f0    00000006                                   : string.cpp.obj (.text:_ZNSt3__211char_traitsIwE6assignERwRKw)
                  000167f6    00000006                                   : ios.cpp.obj (.text:_ZNSt3__215basic_streambufIcNS_11char_traitsIcEEE8overflowEi)
                  000167fc    00000006                                   : ios.cpp.obj (.text:_ZNSt3__215basic_streambufIcNS_11char_traitsIcEEE9pbackfailEi)
                  00016802    00000006                                   : ios.cpp.obj (.text:_ZNSt3__215basic_streambufIcNS_11char_traitsIcEEE9underflowEv)
                  00016808    00000006                                   : ios.cpp.obj (.text:_ZNSt3__215basic_streambufIwNS_11char_traitsIwEEE8overflowEi)
                  0001680e    00000006                                   : ios.cpp.obj (.text:_ZNSt3__215basic_streambufIwNS_11char_traitsIwEEE9pbackfailEi)
                  00016814    00000006                                   : ios.cpp.obj (.text:_ZNSt3__215basic_streambufIwNS_11char_traitsIwEEE9underflowEv)
                  0001681a    00000006                                   : wmemcpy.c.obj (.text:wmemcpy)
                  00016820    00000006                                   : wmemmove.c.obj (.text:wmemmove)
                  00016826    00000004                                   : typeinfo.c.obj (.text:_ZN10__cxxabiv117__class_type_infoD1Ev)
                  0001682a    00000004                                   : typeinfo.c.obj (.text:_ZN10__cxxabiv120__si_class_type_infoD1Ev)
                  0001682e    00000004                                   : typeinfo.c.obj (.text:_ZN10__cxxabiv121__vmi_class_type_infoD1Ev)
                  00016832    00000004                                   : locale.cpp.obj (.text:_ZN32_INTERNAL_10_locale_cpp_a7183203St3__234_GLOBAL__N__10_locale_cpp_a718320321__throw_runtime_errorERKNS_12basic_stringIcNS_11char_traitsIcEENS_9allocatorIcEEEE)
                  00016836    00000004                                   : locale.cpp.obj (.text:_ZNKSt3__210moneypunctIcLb0EE14do_frac_digitsEv)
                  0001683a    00000004                                   : locale.cpp.obj (.text:_ZNKSt3__210moneypunctIcLb0EE16do_decimal_pointEv)
                  0001683e    00000004                                   : locale.cpp.obj (.text:_ZNKSt3__210moneypunctIcLb0EE16do_thousands_sepEv)
                  00016842    00000004                                   : locale.cpp.obj (.text:_ZNKSt3__210moneypunctIcLb1EE14do_frac_digitsEv)
                  00016846    00000004                                   : locale.cpp.obj (.text:_ZNKSt3__210moneypunctIcLb1EE16do_decimal_pointEv)
                  0001684a    00000004                                   : locale.cpp.obj (.text:_ZNKSt3__210moneypunctIcLb1EE16do_thousands_sepEv)
                  0001684e    00000004                                   : locale.cpp.obj (.text:_ZNKSt3__210moneypunctIwLb0EE14do_frac_digitsEv)
                  00016852    00000004                                   : locale.cpp.obj (.text:_ZNKSt3__210moneypunctIwLb1EE14do_frac_digitsEv)
                  00016856    00000004                                   : ios.cpp.obj (.text:_ZNKSt3__213basic_ostreamIcNS_11char_traitsIcEEE6sentrycvbEv)
                  0001685a    00000004                                   : locale.cpp.obj (.text:_ZNKSt3__25ctypeIcE8do_widenEc)
                  0001685e    00000004                                   : locale.cpp.obj (.text:_ZNKSt3__25ctypeIwE8do_widenEc)
                  00016862    00000004                                   : locale.cpp.obj (.text:_ZNKSt3__27codecvtIDiciE11do_encodingEv)
                  00016866    00000004                                   : locale.cpp.obj (.text:_ZNKSt3__27codecvtIDiciE13do_max_lengthEv)
                  0001686a    00000004                                   : locale.cpp.obj (.text:_ZNKSt3__27codecvtIDiciE16do_always_noconvEv)
                  0001686e    00000004                                   : locale.cpp.obj (.text:_ZNKSt3__27codecvtIDsciE11do_encodingEv)
                  00016872    00000004                                   : locale.cpp.obj (.text:_ZNKSt3__27codecvtIDsciE13do_max_lengthEv)
                  00016876    00000004                                   : locale.cpp.obj (.text:_ZNKSt3__27codecvtIDsciE16do_always_noconvEv)
                  0001687a    00000004                                   : locale.cpp.obj (.text:_ZNKSt3__27codecvtIcciE11do_encodingEv)
                  0001687e    00000004                                   : locale.cpp.obj (.text:_ZNKSt3__27codecvtIcciE13do_max_lengthEv)
                  00016882    00000004                                   : locale.cpp.obj (.text:_ZNKSt3__27codecvtIcciE16do_always_noconvEv)
                  00016886    00000004                                   : locale.cpp.obj (.text:_ZNKSt3__27codecvtIwciE16do_always_noconvEv)
                  0001688a    00000004                                   : locale.cpp.obj (.text:_ZNKSt3__28numpunctIcE16do_decimal_pointEv)
                  0001688e    00000004                                   : locale.cpp.obj (.text:_ZNKSt3__28numpunctIcE16do_thousands_sepEv)
                  00016892    00000004                                   : locale.cpp.obj (.text:_ZNKSt3__28numpunctIwE16do_decimal_pointEv)
                  00016896    00000004                                   : locale.cpp.obj (.text:_ZNKSt3__28numpunctIwE16do_thousands_sepEv)
                  0001689a    00000004                                   : locale.cpp.obj (.text:_ZNKSt3__28time_getIcNS_19istreambuf_iteratorIcNS_11char_traitsIcEEEEE13do_date_orderEv)
                  0001689e    00000004                                   : locale.cpp.obj (.text:_ZNKSt3__28time_getIwNS_19istreambuf_iteratorIwNS_11char_traitsIwEEEEE13do_date_orderEv)
                  000168a2    00000004                                   : ios.cpp.obj (.text:_ZNKSt3__29basic_iosIcNS_11char_traitsIcEEE5rdbufEv)
                  000168a6    00000004                                   : iostream.cpp.obj (.text:_ZNSt3__210__stdinbufIcED1Ev)
                  000168aa    00000004                                   : iostream.cpp.obj (.text:_ZNSt3__210__stdinbufIwED1Ev)
                  000168ae    00000004                                   : locale.cpp.obj (.text:_ZNSt3__210moneypunctIcLb0EED1Ev)
                  000168b2    00000004                                   : locale.cpp.obj (.text:_ZNSt3__210moneypunctIcLb1EED1Ev)
                  000168b6    00000004                                   : locale.cpp.obj (.text:_ZNSt3__210moneypunctIwLb0EED1Ev)
                  000168ba    00000004                                   : locale.cpp.obj (.text:_ZNSt3__210moneypunctIwLb1EED1Ev)
                  000168be    00000004                                   : iostream.cpp.obj (.text:_ZNSt3__211__stdoutbufIcED1Ev)
                  000168c2    00000004                                   : iostream.cpp.obj (.text:_ZNSt3__211__stdoutbufIwED1Ev)
                  000168c6    00000004                                   : string.cpp.obj (.text:_ZNSt3__211char_traitsIwE6lengthEPKw)
                  000168ca    00000004                                   : ios.cpp.obj (.text:_ZNSt3__215basic_streambufIcNS_11char_traitsIcEEE4syncEv)
                  000168ce    00000004                                   : ios.cpp.obj (.text:_ZNSt3__215basic_streambufIcNS_11char_traitsIcEEE9showmanycEv)
                  000168d2    00000004                                   : ios.cpp.obj (.text:_ZNSt3__215basic_streambufIcNS_11char_traitsIcEEEC2Ev)
                  000168d6    00000004                                   : ios.cpp.obj (.text:_ZNSt3__215basic_streambufIcNS_11char_traitsIcEEED2Ev)
                  000168da    00000004                                   : ios.cpp.obj (.text:_ZNSt3__215basic_streambufIwNS_11char_traitsIwEEE4syncEv)
                  000168de    00000004                                   : ios.cpp.obj (.text:_ZNSt3__215basic_streambufIwNS_11char_traitsIwEEE9showmanycEv)
                  000168e2    00000004                                   : ios.cpp.obj (.text:_ZNSt3__215basic_streambufIwNS_11char_traitsIwEEEC2Ev)
                  000168e6    00000004                                   : ios.cpp.obj (.text:_ZNSt3__215basic_streambufIwNS_11char_traitsIwEEED2Ev)
                  000168ea    00000004                                   : string.cpp.obj (.text:_ZNSt3__220__throw_out_of_rangeEPKc)
                  000168ee    00000004                                   : locale.cpp.obj (.text:_ZNSt3__221__throw_runtime_errorEPKc)
                  000168f2    00000004                                   : string.cpp.obj (.text:_ZNSt3__222__compressed_pair_elemINS_12basic_stringIwNS_11char_traitsIwEENS_9allocatorIwEEE5__repELi0ELb0EEC2Ev)
                  000168f6    00000004                                   : string.cpp.obj (.text:_ZNSt3__222__compressed_pair_elemINS_9allocatorIcEELi1ELb1EEC2IRKS2_vEEOT_)
                  000168fa    00000004                                   : string.cpp.obj (.text:_ZNSt3__222__compressed_pair_elemINS_9allocatorIcEELi1ELb1EEC2IS2_vEEOT_)
                  000168fe    00000004                                   : string.cpp.obj (.text:_ZNSt3__222__compressed_pair_elemINS_9allocatorIwEELi1ELb1EEC2IS2_vEEOT_)
                  00016902    00000004                                   : locale.cpp.obj (.text:_ZNSt3__25ctypeIwED1Ev)
                  00016906    00000004                                   : locale.cpp.obj (.text:_ZNSt3__26locale5facetD1Ev)
                  0001690a    00000004                                   : locale.cpp.obj (.text:_ZNSt3__27codecvtIDiciED1Ev)
                  0001690e    00000004                                   : locale.cpp.obj (.text:_ZNSt3__27codecvtIDsciED1Ev)
                  00016912    00000004                                   : locale.cpp.obj (.text:_ZNSt3__27codecvtIcciED1Ev)
                  00016916    00000004                                   : locale.cpp.obj (.text:_ZNSt3__27collateIcED1Ev)
                  0001691a    00000004                                   : locale.cpp.obj (.text:_ZNSt3__27collateIwED1Ev)
                  0001691e    00000004                                   : locale.cpp.obj (.text:_ZNSt3__27num_getIcNS_19istreambuf_iteratorIcNS_11char_traitsIcEEEEED1Ev)
                  00016922    00000004                                   : locale.cpp.obj (.text:_ZNSt3__27num_getIwNS_19istreambuf_iteratorIwNS_11char_traitsIwEEEEED1Ev)
                  00016926    00000004                                   : locale.cpp.obj (.text:_ZNSt3__27num_putIcNS_19ostreambuf_iteratorIcNS_11char_traitsIcEEEEED1Ev)
                  0001692a    00000004                                   : locale.cpp.obj (.text:_ZNSt3__27num_putIwNS_19ostreambuf_iteratorIwNS_11char_traitsIwEEEEED1Ev)
                  0001692e    00000004                                   : locale.cpp.obj (.text:_ZNSt3__28messagesIcED1Ev)
                  00016932    00000004                                   : locale.cpp.obj (.text:_ZNSt3__28messagesIwED1Ev)
                  00016936    00000004                                   : locale.cpp.obj (.text:_ZNSt3__28time_getIcNS_19istreambuf_iteratorIcNS_11char_traitsIcEEEEED1Ev)
                  0001693a    00000004                                   : locale.cpp.obj (.text:_ZNSt3__28time_getIwNS_19istreambuf_iteratorIwNS_11char_traitsIwEEEEED1Ev)
                  0001693e    00000004                                   : ios.cpp.obj (.text:_ZNSt3__29basic_iosIcNS_11char_traitsIcEEED1Ev)
                  00016942    00000004                                   : ios.cpp.obj (.text:_ZNSt3__29basic_iosIcNS_11char_traitsIcEEED2Ev)
                  00016946    00000004                                   : ios.cpp.obj (.text:_ZNSt3__29basic_iosIwNS_11char_traitsIwEEED1Ev)
                  0001694a    00000004                                   : ios.cpp.obj (.text:_ZNSt3__29basic_iosIwNS_11char_traitsIwEEED2Ev)
                  0001694e    00000004                                   : locale.cpp.obj (.text:_ZNSt3__29money_getIcNS_19istreambuf_iteratorIcNS_11char_traitsIcEEEEED1Ev)
                  00016952    00000004                                   : locale.cpp.obj (.text:_ZNSt3__29money_getIwNS_19istreambuf_iteratorIwNS_11char_traitsIwEEEEED1Ev)
                  00016956    00000004                                   : locale.cpp.obj (.text:_ZNSt3__29money_putIcNS_19ostreambuf_iteratorIcNS_11char_traitsIcEEEEED1Ev)
                  0001695a    00000004                                   : locale.cpp.obj (.text:_ZNSt3__29money_putIwNS_19ostreambuf_iteratorIwNS_11char_traitsIwEEEEED1Ev)
                  0001695e    00000004                                   : exception.cpp.obj (.text:_ZSt18uncaught_exceptionv)
                  00016962    00000004                                   : locale.cpp.obj (.text:_ZZNKSt3__27num_putIcNS_19ostreambuf_iteratorIcNS_11char_traitsIcEEEEE6do_putES4_RNS_8ios_baseEcdENUlPvE0_4_FUNES8_)
                  00016966    00000004                                   : locale.cpp.obj (.text:_ZZNKSt3__27num_putIcNS_19ostreambuf_iteratorIcNS_11char_traitsIcEEEEE6do_putES4_RNS_8ios_baseEcdENUlPvE_4_FUNES8_)
                  0001696a    00000004                                   : locale.cpp.obj (.text:_ZZNKSt3__27num_putIcNS_19ostreambuf_iteratorIcNS_11char_traitsIcEEEEE6do_putES4_RNS_8ios_baseEceENUlPvE0_4_FUNES8_)
                  0001696e    00000004                                   : locale.cpp.obj (.text:_ZZNKSt3__27num_putIcNS_19ostreambuf_iteratorIcNS_11char_traitsIcEEEEE6do_putES4_RNS_8ios_baseEceENUlPvE_4_FUNES8_)
                  00016972    00000004                                   : locale.cpp.obj (.text:_ZZNKSt3__27num_putIwNS_19ostreambuf_iteratorIwNS_11char_traitsIwEEEEE6do_putES4_RNS_8ios_baseEwdENUlPvE0_4_FUNES8_)
                  00016976    00000004                                   : locale.cpp.obj (.text:_ZZNKSt3__27num_putIwNS_19ostreambuf_iteratorIwNS_11char_traitsIwEEEEE6do_putES4_RNS_8ios_baseEwdENUlPvE_4_FUNES8_)
                  0001697a    00000004                                   : locale.cpp.obj (.text:_ZZNKSt3__27num_putIwNS_19ostreambuf_iteratorIwNS_11char_traitsIwEEEEE6do_putES4_RNS_8ios_baseEweENUlPvE0_4_FUNES8_)
                  0001697e    00000004                                   : locale.cpp.obj (.text:_ZZNKSt3__27num_putIwNS_19ostreambuf_iteratorIwNS_11char_traitsIwEEEEE6do_putES4_RNS_8ios_baseEweENUlPvE_4_FUNES8_)
                  00016982    00000004                                   : locale.cpp.obj (.text:_ZZNKSt3__29money_getIcNS_19istreambuf_iteratorIcNS_11char_traitsIcEEEEE6do_getES4_S4_bRNS_8ios_baseERjReENUlPvE_4_FUNESA_)
                  00016986    00000004                                   : locale.cpp.obj (.text:_ZZNKSt3__29money_getIwNS_19istreambuf_iteratorIwNS_11char_traitsIwEEEEE6do_getES4_S4_bRNS_8ios_baseERjReENUlPvE_4_FUNESA_)
                  0001698a    00000004                                   : locale.cpp.obj (.text:_ZZNKSt3__29money_putIcNS_19ostreambuf_iteratorIcNS_11char_traitsIcEEEEE6do_putES4_bRNS_8ios_baseEcRKNS_12basic_stringIcS3_NS_9allocatorIcEEEEENUlPvE_4_FUNESE_)
                  0001698e    00000004                                   : locale.cpp.obj (.text:_ZZNKSt3__29money_putIcNS_19ostreambuf_iteratorIcNS_11char_traitsIcEEEEE6do_putES4_bRNS_8ios_baseEceENUlPvE0_4_FUNES8_)
                  00016992    00000004                                   : locale.cpp.obj (.text:_ZZNKSt3__29money_putIcNS_19ostreambuf_iteratorIcNS_11char_traitsIcEEEEE6do_putES4_bRNS_8ios_baseEceENUlPvE1_4_FUNES8_)
                  00016996    00000004                                   : locale.cpp.obj (.text:_ZZNKSt3__29money_putIcNS_19ostreambuf_iteratorIcNS_11char_traitsIcEEEEE6do_putES4_bRNS_8ios_baseEceENUlPvE_4_FUNES8_)
                  0001699a    00000004                                   : locale.cpp.obj (.text:_ZZNKSt3__29money_putIwNS_19ostreambuf_iteratorIwNS_11char_traitsIwEEEEE6do_putES4_bRNS_8ios_baseEwRKNS_12basic_stringIwS3_NS_9allocatorIwEEEEENUlPvE_4_FUNESE_)
                  0001699e    00000004                                   : locale.cpp.obj (.text:_ZZNKSt3__29money_putIwNS_19ostreambuf_iteratorIwNS_11char_traitsIwEEEEE6do_putES4_bRNS_8ios_baseEweENUlPvE0_4_FUNES8_)
                  000169a2    00000004                                   : locale.cpp.obj (.text:_ZZNKSt3__29money_putIwNS_19ostreambuf_iteratorIwNS_11char_traitsIwEEEEE6do_putES4_bRNS_8ios_baseEweENUlPvE1_4_FUNES8_)
                  000169a6    00000004                                   : locale.cpp.obj (.text:_ZZNKSt3__29money_putIwNS_19ostreambuf_iteratorIwNS_11char_traitsIwEEEEE6do_putES4_bRNS_8ios_baseEweENUlPvE_4_FUNES8_)
                  000169aa    00000004                                   : locale.cpp.obj (.text:_ZZNSt3__214__scan_keywordINS_19istreambuf_iteratorIcNS_11char_traitsIcEEEEPKNS_12basic_stringIcS3_NS_9allocatorIcEEEENS_5ctypeIcEEEET0_RT_SE_SD_SD_RKT1_RjbENUlPvE_4_FUNESK_)
                  000169ae    00000004                                   : locale.cpp.obj (.text:_ZZNSt3__214__scan_keywordINS_19istreambuf_iteratorIwNS_11char_traitsIwEEEEPKNS_12basic_stringIwS3_NS_9allocatorIwEEEENS_5ctypeIwEEEET0_RT_SE_SD_SD_RKT1_RjbENUlPvE_4_FUNESK_)
                  000169b2    00000004                                   : locale.cpp.obj (.text:_ZZNSt3__219__double_or_nothingIcEEvRNS_10unique_ptrIT_PFvPvEEERPS2_S9_ENUlS3_E_4_FUNES3_)
                  000169b6    00000004                                   : locale.cpp.obj (.text:_ZZNSt3__219__double_or_nothingIjEEvRNS_10unique_ptrIT_PFvPvEEERPS2_S9_ENUlS3_E_4_FUNES3_)
                  000169ba    00000004                                   : locale.cpp.obj (.text:_ZZNSt3__219__double_or_nothingIwEEvRNS_10unique_ptrIT_PFvPvEEERPS2_S9_ENUlS3_E_4_FUNES3_)
                  000169be    00000004                                   : new.cpp.obj (.text:_ZdaPv)
                  000169c2    00000004                                   : new.cpp.obj (.text:_ZdlPvj)
                  000169c6    00000004                                   : new.cpp.obj (.text:_Znaj)
                  000169ca    00000004                                   : none_mb.c.obj (.text:___mb_cur_max_l)
                  000169ce    00000004                                   : error.c.obj (.text:__abort_execution)
                  000169d2    00000004                                   : pre_init.c.obj (.text:_system_pre_init)
                  000169d6    00000004                                   : exit.c.obj (.text:abort:abort)
                  000169da    00000004                                   : none_mb.c.obj (.text:mbrlen_l)
                  000169de    00000004                                   : none_mb.c.obj (.text:mbrtowc_l)
                  000169e2    00000004                                   : none_mb.c.obj (.text:mbsrtowcs_l)
                  000169e6    00000004                                   : none_mb.c.obj (.text:mbtowc_l)
                  000169ea    00000004                                   : xlocale.c.obj (.text:newlocale)
                  000169ee    00000004                                   : locale_time.c.obj (.text:strftime_l)
                  000169f2    00000004                                   : locale_stdlib.c.obj (.text:strtof_l)
                  000169f6    00000004                                   : locale_stdlib.c.obj (.text:strtoll_l)
                  000169fa    00000004                                   : locale_stdlib.c.obj (.text:strtoull_l)
                  000169fe    00000004                                   : none_mb.c.obj (.text:wcrtomb_l)

.const     0    00016a08    00001cd4     
                  00016a08    000001e4     rtsv7M4_T_le_v4SPD16_eabi.lib : locale.cpp.obj (.const:$O2$$)
                  00016bec    00000101                                   : ctype.c.obj (.const:.string:_ctypes_)
                  00016ced    00000003                                   : locale.cpp.obj (.const:.string:_ZZNKSt3__27num_getIcNS_19istreambuf_iteratorIcNS_11char_traitsIcEEEEE6do_getES4_S4_RNS_8ios_baseERjRPvEs)
                  00016cf0    000000c8                                   : strtod.c.obj (.const:$O1$$)
                  00016db8    000000ae                                   : strftime.c.obj (.const:.string)
                  00016e66    00000002                                   : locale.cpp.obj (.const:.string:_ZZNKSt3__27num_putIcNS_19ostreambuf_iteratorIcNS_11char_traitsIcEEEEE6do_putES4_RNS_8ios_baseEceEs)
                  00016e68    00000058                                   : strtof.c.obj (.const:$O1$$)
                  00016ec0    00000054                                   : locale.cpp.obj (.const:_ZTVNSt3__28time_getIcNS_19istreambuf_iteratorIcNS_11char_traitsIcEEEEEE)
                  00016f14    00000054                                   : locale.cpp.obj (.const:_ZTVNSt3__28time_getIwNS_19istreambuf_iteratorIwNS_11char_traitsIwEEEEEE)
                  00016f68    0000004c                                   : strftime.c.obj (.const:$O1$$)
                  00016fb4    00000046                                   : locale.cpp.obj (.const:.typeinfo:_ZTSNSt3__29money_getIcNS_19istreambuf_iteratorIcNS_11char_traitsIcEEEEEE)
                  00016ffa    00000046                                   : locale.cpp.obj (.const:.typeinfo:_ZTSNSt3__29money_getIwNS_19istreambuf_iteratorIwNS_11char_traitsIwEEEEEE)
                  00017040    00000046                                   : locale.cpp.obj (.const:.typeinfo:_ZTSNSt3__29money_putIcNS_19ostreambuf_iteratorIcNS_11char_traitsIcEEEEEE)
                  00017086    00000046                                   : locale.cpp.obj (.const:.typeinfo:_ZTSNSt3__29money_putIwNS_19ostreambuf_iteratorIwNS_11char_traitsIwEEEEEE)
                  000170cc    00000045     ISRMsgMaker.obj (.const:.string:_ZZN10RingBufferI6ISRMsgE3AddES0_Es)
                  00017111    00000045     ISRMsgMaker.obj (.const:.string:_ZZN10RingBufferIcE3AddEcEs)
                  00017156    00000045     rtsv7M4_T_le_v4SPD16_eabi.lib : locale.cpp.obj (.const:.typeinfo:_ZTSNSt3__28time_getIcNS_19istreambuf_iteratorIcNS_11char_traitsIcEEEEEE)
                  0001719b    00000045                                   : locale.cpp.obj (.const:.typeinfo:_ZTSNSt3__28time_getIwNS_19istreambuf_iteratorIwNS_11char_traitsIwEEEEEE)
                  000171e0    00000045                                   : locale.cpp.obj (.const:.typeinfo:_ZTSNSt3__28time_putIcNS_19ostreambuf_iteratorIcNS_11char_traitsIcEEEEEE)
                  00017225    00000045                                   : locale.cpp.obj (.const:.typeinfo:_ZTSNSt3__28time_putIwNS_19ostreambuf_iteratorIwNS_11char_traitsIwEEEEEE)
                  0001726a    00000044                                   : string.cpp.obj (.const:.string:_ZZNSt3__29allocatorIwE8allocateEjPKvEs)
                  000172ae    00000044                                   : locale.cpp.obj (.const:.typeinfo:_ZTSNSt3__27num_getIcNS_19istreambuf_iteratorIcNS_11char_traitsIcEEEEEE)
                  000172f2    00000044                                   : locale.cpp.obj (.const:.typeinfo:_ZTSNSt3__27num_getIwNS_19istreambuf_iteratorIwNS_11char_traitsIwEEEEEE)
                  00017336    00000044                                   : locale.cpp.obj (.const:.typeinfo:_ZTSNSt3__27num_putIcNS_19ostreambuf_iteratorIcNS_11char_traitsIcEEEEEE)
                  0001737a    00000044                                   : locale.cpp.obj (.const:.typeinfo:_ZTSNSt3__27num_putIwNS_19ostreambuf_iteratorIwNS_11char_traitsIwEEEEEE)
                  000173be    00000002                                   : locale.cpp.obj (.const:.string:_ZZNKSt3__27num_putIcNS_19ostreambuf_iteratorIcNS_11char_traitsIcEEEEE6do_putES4_RNS_8ios_baseEclEs)
                  000173c0    00000044                                   : locale.cpp.obj (.const:_ZTVNSt3__25ctypeIwEE)
                  00017404    00000040                                   : iostream.cpp.obj (.const:_ZTVNSt3__210__stdinbufIcEE)
                  00017444    00000040                                   : iostream.cpp.obj (.const:_ZTVNSt3__210__stdinbufIwEE)
                  00017484    00000040                                   : iostream.cpp.obj (.const:_ZTVNSt3__211__stdoutbufIcEE)
                  000174c4    00000040                                   : iostream.cpp.obj (.const:_ZTVNSt3__211__stdoutbufIwEE)
                  00017504    00000040                                   : ios.cpp.obj (.const:_ZTVNSt3__215basic_streambufIcNS_11char_traitsIcEEEE)
                  00017544    00000040                                   : ios.cpp.obj (.const:_ZTVNSt3__215basic_streambufIwNS_11char_traitsIwEEEE)
                  00017584    00000040                                   : locale.cpp.obj (.const:_ZTVNSt3__27num_getIcNS_19istreambuf_iteratorIcNS_11char_traitsIcEEEEEE)
                  000175c4    00000040                                   : locale.cpp.obj (.const:_ZTVNSt3__27num_getIwNS_19istreambuf_iteratorIwNS_11char_traitsIwEEEEEE)
                  00017604    00000038                                   : locale.cpp.obj (.const:_ZTVNSt3__210moneypunctIcLb0EEE)
                  0001763c    00000038                                   : locale.cpp.obj (.const:_ZTVNSt3__210moneypunctIcLb1EEE)
                  00017674    00000038                                   : locale.cpp.obj (.const:_ZTVNSt3__210moneypunctIwLb0EEE)
                  000176ac    00000038                                   : locale.cpp.obj (.const:_ZTVNSt3__210moneypunctIwLb1EEE)
                  000176e4    00000034                                   : locale.cpp.obj (.const:_ZTVNSt3__25ctypeIcEE)
                  00017718    00000034                                   : locale.cpp.obj (.const:_ZTVNSt3__27num_putIcNS_19ostreambuf_iteratorIcNS_11char_traitsIcEEEEEE)
                  0001774c    00000034                                   : locale.cpp.obj (.const:_ZTVNSt3__27num_putIwNS_19ostreambuf_iteratorIwNS_11char_traitsIwEEEEEE)
                  00017780    00000031                                   : ios.cpp.obj (.const:.typeinfo:_ZTSNSt3__215basic_streambufIcNS_11char_traitsIcEEEE)
                  000177b1    00000031                                   : ios.cpp.obj (.const:.typeinfo:_ZTSNSt3__215basic_streambufIwNS_11char_traitsIwEEEE)
                  000177e2    00000002                                   : locale.cpp.obj (.const:.string:_ZZNKSt3__27num_putIcNS_19ostreambuf_iteratorIcNS_11char_traitsIcEEEEE6do_putES4_RNS_8ios_baseEcmEs)
                  000177e4    00000030                                   : string.cpp.obj (.const:$O1$$)
                  00017814    00000030                                   : ios.cpp.obj (.const:_ZTVNSt3__213basic_istreamIcNS_11char_traitsIcEEEE)
                  00017844    00000030                                   : ios.cpp.obj (.const:_ZTVNSt3__213basic_istreamIwNS_11char_traitsIwEEEE)
                  00017874    00000030                                   : ios.cpp.obj (.const:_ZTVNSt3__213basic_ostreamIcNS_11char_traitsIcEEEE)
                  000178a4    00000030                                   : ios.cpp.obj (.const:_ZTVNSt3__213basic_ostreamIwNS_11char_traitsIwEEEE)
                  000178d4    00000030                                   : locale.cpp.obj (.const:_ZTVNSt3__27codecvtIDiciEE)
                  00017904    00000030                                   : locale.cpp.obj (.const:_ZTVNSt3__27codecvtIDsciEE)
                  00017934    00000030                                   : locale.cpp.obj (.const:_ZTVNSt3__27codecvtIcciEE)
                  00017964    00000030                                   : locale.cpp.obj (.const:_ZTVNSt3__27codecvtIwciEE)
                  00017994    0000002f                                   : ios.cpp.obj (.const:.typeinfo:_ZTSNSt3__213basic_istreamIcNS_11char_traitsIcEEEE)
                  000179c3    0000002f                                   : ios.cpp.obj (.const:.typeinfo:_ZTSNSt3__213basic_istreamIwNS_11char_traitsIwEEEE)
                  000179f2    0000002f                                   : ios.cpp.obj (.const:.typeinfo:_ZTSNSt3__213basic_ostreamIcNS_11char_traitsIcEEEE)
                  00017a21    0000002f                                   : ios.cpp.obj (.const:.typeinfo:_ZTSNSt3__213basic_ostreamIwNS_11char_traitsIwEEEE)
                  00017a50    0000002a                                   : ios.cpp.obj (.const:.typeinfo:_ZTSNSt3__29basic_iosIcNS_11char_traitsIcEEEE)
                  00017a7a    0000002a                                   : ios.cpp.obj (.const:.typeinfo:_ZTSNSt3__29basic_iosIwNS_11char_traitsIwEEEE)
                  00017aa4    00000028                                   : locale.cpp.obj (.const:.typeinfo:_ZTINSt3__28time_getIcNS_19istreambuf_iteratorIcNS_11char_traitsIcEEEEEE)
                  00017acc    00000028                                   : locale.cpp.obj (.const:.typeinfo:_ZTINSt3__28time_getIwNS_19istreambuf_iteratorIwNS_11char_traitsIwEEEEEE)
                  00017af4    00000028                                   : locale.cpp.obj (.const:_ZTVNSt3__28numpunctIcEE)
                  00017b1c    00000028                                   : locale.cpp.obj (.const:_ZTVNSt3__28numpunctIwEE)
                  00017b44    00000026                                   : iostream.cpp.obj (.const:.string:_ZZNSt3__210__stdinbufIcE5imbueERKNS_6localeEEs)
                  00017b6a    00000026                                   : iostream.cpp.obj (.const:.string:_ZZNSt3__210__stdinbufIwE5imbueERKNS_6localeEEs)
                  00017b90    00000026                                   : typeinfo.c.obj (.const:.typeinfo:_ZTSN10__cxxabiv121__vmi_class_type_infoE)
                  00017bb6    00000025                                   : typeinfo.c.obj (.const:.typeinfo:_ZTSN10__cxxabiv120__si_class_type_infoE)
                  00017bdb    00000022                                   : typeinfo.c.obj (.const:.typeinfo:_ZTSN10__cxxabiv117__class_type_infoE)
                  00017bfd    00000022                                   : locale.cpp.obj (.const:.typeinfo:_ZTSNSt3__220__time_get_c_storageIcEE)
                  00017c1f    00000022                                   : locale.cpp.obj (.const:.typeinfo:_ZTSNSt3__220__time_get_c_storageIwEE)
                  00017c41    00000003                                   : locale.cpp.obj (.const:.string:_ZZNKSt3__27num_getIwNS_19istreambuf_iteratorIwNS_11char_traitsIwEEEEE6do_getES4_S4_RNS_8ios_baseERjRPvEs)
                  00017c44    00000020                                   : locale.cpp.obj (.const:.typeinfo:_ZTINSt3__210moneypunctIcLb0EEE)
                  00017c64    00000020                                   : locale.cpp.obj (.const:.typeinfo:_ZTINSt3__210moneypunctIcLb1EEE)
                  00017c84    00000020                                   : locale.cpp.obj (.const:.typeinfo:_ZTINSt3__210moneypunctIwLb0EEE)
                  00017ca4    00000020                                   : locale.cpp.obj (.const:.typeinfo:_ZTINSt3__210moneypunctIwLb1EEE)
                  00017cc4    00000020                                   : locale.cpp.obj (.const:.typeinfo:_ZTINSt3__25ctypeIcEE)
                  00017ce4    00000020                                   : locale.cpp.obj (.const:.typeinfo:_ZTINSt3__25ctypeIwEE)
                  00017d04    00000020                                   : locale.cpp.obj (.const:.typeinfo:_ZTINSt3__27codecvtIDiciEE)
                  00017d24    00000020                                   : locale.cpp.obj (.const:.typeinfo:_ZTINSt3__27codecvtIDsciEE)
                  00017d44    00000020                                   : locale.cpp.obj (.const:.typeinfo:_ZTINSt3__27codecvtIcciEE)
                  00017d64    00000020                                   : locale.cpp.obj (.const:.typeinfo:_ZTINSt3__27codecvtIwciEE)
                  00017d84    00000020                                   : locale.cpp.obj (.const:.typeinfo:_ZTINSt3__27num_getIcNS_19istreambuf_iteratorIcNS_11char_traitsIcEEEEEE)
                  00017da4    00000020                                   : locale.cpp.obj (.const:.typeinfo:_ZTINSt3__27num_getIwNS_19istreambuf_iteratorIwNS_11char_traitsIwEEEEEE)
                  00017dc4    00000020                                   : locale.cpp.obj (.const:.typeinfo:_ZTINSt3__27num_putIcNS_19ostreambuf_iteratorIcNS_11char_traitsIcEEEEEE)
                  00017de4    00000020                                   : locale.cpp.obj (.const:.typeinfo:_ZTINSt3__27num_putIwNS_19ostreambuf_iteratorIwNS_11char_traitsIwEEEEEE)
                  00017e04    00000020                                   : locale.cpp.obj (.const:.typeinfo:_ZTINSt3__28messagesIcEE)
                  00017e24    00000020                                   : locale.cpp.obj (.const:.typeinfo:_ZTINSt3__28messagesIwEE)
                  00017e44    00000020                                   : locale.cpp.obj (.const:.typeinfo:_ZTINSt3__28time_putIcNS_19ostreambuf_iteratorIcNS_11char_traitsIcEEEEEE)
                  00017e64    00000020                                   : locale.cpp.obj (.const:.typeinfo:_ZTINSt3__28time_putIwNS_19ostreambuf_iteratorIwNS_11char_traitsIwEEEEEE)
                  00017e84    00000020                                   : locale.cpp.obj (.const:.typeinfo:_ZTINSt3__29money_getIcNS_19istreambuf_iteratorIcNS_11char_traitsIcEEEEEE)
                  00017ea4    00000020                                   : locale.cpp.obj (.const:.typeinfo:_ZTINSt3__29money_getIwNS_19istreambuf_iteratorIwNS_11char_traitsIwEEEEEE)
                  00017ec4    00000020                                   : locale.cpp.obj (.const:.typeinfo:_ZTINSt3__29money_putIcNS_19ostreambuf_iteratorIcNS_11char_traitsIcEEEEEE)
                  00017ee4    00000020                                   : locale.cpp.obj (.const:.typeinfo:_ZTINSt3__29money_putIwNS_19ostreambuf_iteratorIwNS_11char_traitsIwEEEEEE)
                  00017f04    00000020                                   : locale.cpp.obj (.const:_ZTVNSt3__27collateIcEE)
                  00017f24    00000020                                   : locale.cpp.obj (.const:_ZTVNSt3__27collateIwEE)
                  00017f44    00000020                                   : locale.cpp.obj (.const:_ZTVNSt3__28messagesIcEE)
                  00017f64    00000020                                   : locale.cpp.obj (.const:_ZTVNSt3__28messagesIwEE)
                  00017f84    0000001c                                   : locale.cpp.obj (.const:.typeinfo:_ZTSNSt3__210moneypunctIcLb0EEE)
                  00017fa0    0000001c                                   : locale.cpp.obj (.const:.typeinfo:_ZTSNSt3__210moneypunctIcLb1EEE)
                  00017fbc    0000001c                                   : locale.cpp.obj (.const:.typeinfo:_ZTSNSt3__210moneypunctIwLb0EEE)
                  00017fd8    0000001c                                   : locale.cpp.obj (.const:.typeinfo:_ZTSNSt3__210moneypunctIwLb1EEE)
                  00017ff4    0000001c                                   : locale.cpp.obj (.const:_ZTVNSt3__29money_getIcNS_19istreambuf_iteratorIcNS_11char_traitsIcEEEEEE)
                  00018010    0000001c                                   : locale.cpp.obj (.const:_ZTVNSt3__29money_getIwNS_19istreambuf_iteratorIwNS_11char_traitsIwEEEEEE)
                  0001802c    0000001c                                   : locale.cpp.obj (.const:_ZTVNSt3__29money_putIcNS_19ostreambuf_iteratorIcNS_11char_traitsIcEEEEEE)
                  00018048    0000001c                                   : locale.cpp.obj (.const:_ZTVNSt3__29money_putIwNS_19ostreambuf_iteratorIwNS_11char_traitsIwEEEEEE)
                  00018064    00000019                                   : locale.cpp.obj (.const:.typeinfo:_ZTSNSt3__211__money_getIcEE)
                  0001807d    00000019                                   : locale.cpp.obj (.const:.typeinfo:_ZTSNSt3__211__money_getIwEE)
                  00018096    00000019                                   : locale.cpp.obj (.const:.typeinfo:_ZTSNSt3__211__money_putIcEE)
                  000180af    00000019                                   : locale.cpp.obj (.const:.typeinfo:_ZTSNSt3__211__money_putIwEE)
                  000180c8    00000019                                   : iostream.cpp.obj (.const:.typeinfo:_ZTSNSt3__211__stdoutbufIcEE)
                  000180e1    00000019                                   : iostream.cpp.obj (.const:.typeinfo:_ZTSNSt3__211__stdoutbufIwEE)
                  000180fa    00000019                                   : locale.cpp.obj (.const:.typeinfo:_ZTSNSt3__214__num_get_baseE)
                  00018113    00000019                                   : locale.cpp.obj (.const:.typeinfo:_ZTSNSt3__214__num_put_baseE)
                  0001812c    00000019                                   : memory.cpp.obj (.const:.typeinfo:_ZTSNSt3__214__shared_countE)
                  00018145    00000003                                   : locale.cpp.obj (.const:.string:_ZZNKSt3__27num_putIcNS_19ostreambuf_iteratorIcNS_11char_traitsIcEEEEE6do_putES4_RNS_8ios_baseEcxEs)
                  00018148    00000018                                   : ios.cpp.obj (.const:.typeinfo:_ZTINSt3__213basic_istreamIcNS_11char_traitsIcEEEE)
                  00018160    00000018                                   : ios.cpp.obj (.const:.typeinfo:_ZTINSt3__213basic_istreamIwNS_11char_traitsIwEEEE)
                  00018178    00000018                                   : ios.cpp.obj (.const:.typeinfo:_ZTINSt3__213basic_ostreamIcNS_11char_traitsIcEEEE)
                  00018190    00000018                                   : ios.cpp.obj (.const:.typeinfo:_ZTINSt3__213basic_ostreamIwNS_11char_traitsIwEEEE)
                  000181a8    00000018                                   : locale.cpp.obj (.const:.typeinfo:_ZTINSt3__29__num_getIcEE)
                  000181c0    00000018                                   : locale.cpp.obj (.const:.typeinfo:_ZTINSt3__29__num_getIwEE)
                  000181d8    00000018                                   : locale.cpp.obj (.const:.typeinfo:_ZTINSt3__29__num_putIcEE)
                  000181f0    00000018                                   : locale.cpp.obj (.const:.typeinfo:_ZTINSt3__29__num_putIwEE)
                  00018208    00000018                                   : iostream.cpp.obj (.const:.typeinfo:_ZTSNSt3__210__stdinbufIcEE)
                  00018220    00000018                                   : iostream.cpp.obj (.const:.typeinfo:_ZTSNSt3__210__stdinbufIwEE)
                  00018238    00000018                                   : locale.cpp.obj (.const:.typeinfo:_ZTSNSt3__213messages_baseE)
                  00018250    00000018                                   : locale.cpp.obj (.const:_ZTVNSt3__28time_putIcNS_19ostreambuf_iteratorIcNS_11char_traitsIcEEEEEE)
                  00018268    00000018                                   : locale.cpp.obj (.const:_ZTVNSt3__28time_putIwNS_19ostreambuf_iteratorIwNS_11char_traitsIwEEEEEE)
                  00018280    00000017                                   : locale.cpp.obj (.const:.typeinfo:_ZTSNSt3__212codecvt_baseE)
                  00018297    00000017                                   : locale.cpp.obj (.const:.typeinfo:_ZTSNSt3__27codecvtIDiciEE)
                  000182ae    00000017                                   : locale.cpp.obj (.const:.typeinfo:_ZTSNSt3__27codecvtIDsciEE)
                  000182c5    00000016                                   : locale.cpp.obj (.const:.typeinfo:_ZTSNSt3__26locale5__impE)
                  000182db    00000016                                   : locale.cpp.obj (.const:.typeinfo:_ZTSNSt3__26locale5facetE)
                  000182f1    00000016                                   : locale.cpp.obj (.const:.typeinfo:_ZTSNSt3__27codecvtIcciEE)
                  00018307    00000016                                   : locale.cpp.obj (.const:.typeinfo:_ZTSNSt3__27codecvtIwciEE)
                  0001831d    00000016                                   : locale.cpp.obj (.const:.typeinfo:_ZTSNSt3__29__num_getIcEE)
                  00018333    00000016                                   : locale.cpp.obj (.const:.typeinfo:_ZTSNSt3__29__num_getIwEE)
                  00018349    00000016                                   : locale.cpp.obj (.const:.typeinfo:_ZTSNSt3__29__num_putIcEE)
                  0001835f    00000016                                   : locale.cpp.obj (.const:.typeinfo:_ZTSNSt3__29__num_putIwEE)
                  00018375    00000015                                   : locale.cpp.obj (.const:.typeinfo:_ZTSNSt3__210__time_putE)
                  0001838a    00000015                                   : locale.cpp.obj (.const:.typeinfo:_ZTSNSt3__210ctype_baseE)
                  0001839f    00000015                                   : locale.cpp.obj (.const:.typeinfo:_ZTSNSt3__210money_baseE)
                  000183b4    00000015                                   : locale.cpp.obj (.const:.typeinfo:_ZTSNSt3__28messagesIcEE)
                  000183c9    00000015                                   : locale.cpp.obj (.const:.typeinfo:_ZTSNSt3__28messagesIwEE)
                  000183de    00000015                                   : locale.cpp.obj (.const:.typeinfo:_ZTSNSt3__28numpunctIcEE)
                  000183f3    00000015                                   : locale.cpp.obj (.const:.typeinfo:_ZTSNSt3__28numpunctIwEE)
                  00018408    00000014                                   : locale.cpp.obj (.const:.typeinfo:_ZTSNSt3__27collateIcEE)
                  0001841c    00000014                                   : locale.cpp.obj (.const:.typeinfo:_ZTSNSt3__27collateIwEE)
                  00018430    00000014                                   : locale.cpp.obj (.const:_ZTVNSt3__26locale5__impE)
                  00018444    00000014                                   : locale.cpp.obj (.const:_ZTVNSt3__26locale5facetE)
                  00018458    00000013                                   : locale.cpp.obj (.const:.typeinfo:_ZTSNSt3__29time_baseE)
                  0001846b    00000012                                   : locale.cpp.obj (.const:.typeinfo:_ZTSNSt3__25ctypeIcEE)
                  0001847d    00000012                                   : locale.cpp.obj (.const:.typeinfo:_ZTSNSt3__25ctypeIwEE)
                  0001848f    00000012                                   : ios.cpp.obj (.const:.typeinfo:_ZTSNSt3__28ios_baseE)
                  000184a1    00000003                                   : locale.cpp.obj (.const:.string:_ZZNKSt3__27num_putIcNS_19ostreambuf_iteratorIcNS_11char_traitsIcEEEEE6do_putES4_RNS_8ios_baseEcyEs)
                  000184a4    00000010                                   : _scanfi.c.obj (.const:$O1$$)
                  000184b4    00000010                                   : typeinfo.c.obj (.const:_ZTVN10__cxxabiv117__class_type_infoE)
                  000184c4    00000010                                   : typeinfo.c.obj (.const:_ZTVN10__cxxabiv120__si_class_type_infoE)
                  000184d4    00000010                                   : typeinfo.c.obj (.const:_ZTVN10__cxxabiv121__vmi_class_type_infoE)
                  000184e4    00000010                                   : ios.cpp.obj (.const:_ZTVNSt3__28ios_baseE)
                  000184f4    00000010                                   : ios.cpp.obj (.const:_ZTVNSt3__29basic_iosIcNS_11char_traitsIcEEEE)
                  00018504    00000010                                   : ios.cpp.obj (.const:_ZTVNSt3__29basic_iosIwNS_11char_traitsIwEEEE)
                  00018514    0000000d                                   : string.cpp.obj (.const:.string:_ZZNKSt3__221__basic_string_commonILb1EE20__throw_length_errorEvEs)
                  00018521    0000000d                                   : string.cpp.obj (.const:.string:_ZZNKSt3__221__basic_string_commonILb1EE20__throw_out_of_rangeEvEs)
                  0001852e    0000000d                                   : stdlib_typeinfo.cpp.obj (.const:.typeinfo:_ZTSSt9type_info)
                  0001853b    0000000c     TimeHandler.obj (.const:.string:month_numbers)
                  00018547    00000001     rtsv7M4_T_le_v4SPD16_eabi.lib : locale.cpp.obj (.const:.string:_ZZNKSt3__27num_putIcNS_19ostreambuf_iteratorIcNS_11char_traitsIcEEEEE6do_putES4_RNS_8ios_baseEcdEs)
                  00018548    0000000c                                   : typeinfo.c.obj (.const:.typeinfo:_ZTIN10__cxxabiv117__class_type_infoE)
                  00018554    0000000c                                   : typeinfo.c.obj (.const:.typeinfo:_ZTIN10__cxxabiv120__si_class_type_infoE)
                  00018560    0000000c                                   : typeinfo.c.obj (.const:.typeinfo:_ZTIN10__cxxabiv121__vmi_class_type_infoE)
                  0001856c    0000000c                                   : iostream.cpp.obj (.const:.typeinfo:_ZTINSt3__210__stdinbufIcEE)
                  00018578    0000000c                                   : iostream.cpp.obj (.const:.typeinfo:_ZTINSt3__210__stdinbufIwEE)
                  00018584    0000000c                                   : iostream.cpp.obj (.const:.typeinfo:_ZTINSt3__211__stdoutbufIcEE)
                  00018590    0000000c                                   : iostream.cpp.obj (.const:.typeinfo:_ZTINSt3__211__stdoutbufIwEE)
                  0001859c    0000000c                                   : locale.cpp.obj (.const:.typeinfo:_ZTINSt3__26locale5__impE)
                  000185a8    0000000c                                   : locale.cpp.obj (.const:.typeinfo:_ZTINSt3__26locale5facetE)
                  000185b4    0000000c                                   : locale.cpp.obj (.const:.typeinfo:_ZTINSt3__27collateIcEE)
                  000185c0    0000000c                                   : locale.cpp.obj (.const:.typeinfo:_ZTINSt3__27collateIwEE)
                  000185cc    0000000c                                   : locale.cpp.obj (.const:.typeinfo:_ZTINSt3__28numpunctIcEE)
                  000185d8    0000000c                                   : locale.cpp.obj (.const:.typeinfo:_ZTINSt3__28numpunctIwEE)
                  000185e4    0000000c                                   : ios.cpp.obj (.const:.typeinfo:_ZTINSt3__29basic_iosIcNS_11char_traitsIcEEEE)
                  000185f0    0000000c                                   : ios.cpp.obj (.const:.typeinfo:_ZTINSt3__29basic_iosIwNS_11char_traitsIwEEEE)
                  000185fc    00000008     ComandCenter.obj (.const:$P$T10)
                  00018604    00000008     ComandCenter.obj (.const:$P$T11)
                  0001860c    00000008     ComandCenter.obj (.const:$P$T12)
                  00018614    00000008     rtsv7M4_T_le_v4SPD16_eabi.lib : locale.cpp.obj (.const:.typeinfo:_ZTINSt3__210__time_putE)
                  0001861c    00000008                                   : locale.cpp.obj (.const:.typeinfo:_ZTINSt3__210ctype_baseE)
                  00018624    00000008                                   : locale.cpp.obj (.const:.typeinfo:_ZTINSt3__210money_baseE)
                  0001862c    00000008                                   : locale.cpp.obj (.const:.typeinfo:_ZTINSt3__211__money_getIcEE)
                  00018634    00000008                                   : locale.cpp.obj (.const:.typeinfo:_ZTINSt3__211__money_getIwEE)
                  0001863c    00000008                                   : locale.cpp.obj (.const:.typeinfo:_ZTINSt3__211__money_putIcEE)
                  00018644    00000008                                   : locale.cpp.obj (.const:.typeinfo:_ZTINSt3__211__money_putIwEE)
                  0001864c    00000008                                   : locale.cpp.obj (.const:.typeinfo:_ZTINSt3__212codecvt_baseE)
                  00018654    00000008                                   : locale.cpp.obj (.const:.typeinfo:_ZTINSt3__213messages_baseE)
                  0001865c    00000008                                   : locale.cpp.obj (.const:.typeinfo:_ZTINSt3__214__num_get_baseE)
                  00018664    00000008                                   : locale.cpp.obj (.const:.typeinfo:_ZTINSt3__214__num_put_baseE)
                  0001866c    00000008                                   : memory.cpp.obj (.const:.typeinfo:_ZTINSt3__214__shared_countE)
                  00018674    00000008                                   : ios.cpp.obj (.const:.typeinfo:_ZTINSt3__215basic_streambufIcNS_11char_traitsIcEEEE)
                  0001867c    00000008                                   : ios.cpp.obj (.const:.typeinfo:_ZTINSt3__215basic_streambufIwNS_11char_traitsIwEEEE)
                  00018684    00000008                                   : locale.cpp.obj (.const:.typeinfo:_ZTINSt3__220__time_get_c_storageIcEE)
                  0001868c    00000008                                   : locale.cpp.obj (.const:.typeinfo:_ZTINSt3__220__time_get_c_storageIwEE)
                  00018694    00000008                                   : ios.cpp.obj (.const:.typeinfo:_ZTINSt3__28ios_baseE)
                  0001869c    00000008                                   : locale.cpp.obj (.const:.typeinfo:_ZTINSt3__29time_baseE)
                  000186a4    00000008                                   : stdlib_typeinfo.cpp.obj (.const:.typeinfo:_ZTISt9type_info)
                  000186ac    00000007                                   : vector.cpp.obj (.const:.string:_ZZNKSt3__220__vector_base_commonILb1EE20__throw_length_errorEvEs)
                  000186b3    00000006                                   : locale.cpp.obj (.const:.string:_ZZNKSt3__29money_putIcNS_19ostreambuf_iteratorIcNS_11char_traitsIcEEEEE6do_putES4_bRNS_8ios_baseEceEs)
                  000186b9    00000006                                   : locale.cpp.obj (.const:.string:_ZZNKSt3__29money_putIwNS_19ostreambuf_iteratorIwNS_11char_traitsIwEEEEE6do_putES4_bRNS_8ios_baseEweEs)
                  000186bf    00000001                                   : locale.cpp.obj (.const:.string:_ZZNKSt3__27num_putIwNS_19ostreambuf_iteratorIwNS_11char_traitsIwEEEEE6do_putES4_RNS_8ios_baseEwdEs)
                  000186c0    00000004     ISRMsgMaker.obj (.const:$P$T17$1)
                  000186c4    00000004     ISRMsgMaker.obj (.const:$P$T18$2)
                  000186c8    00000004     rtsv7M4_T_le_v4SPD16_eabi.lib : locale.cpp.obj (.const:.string:_ZZNKSt3__29money_getIcNS_19istreambuf_iteratorIcNS_11char_traitsIcEEEEE6do_getES4_S4_bRNS_8ios_baseERjReEs_0)
                  000186cc    00000004                                   : locale.cpp.obj (.const:.string:_ZZNKSt3__29money_getIwNS_19istreambuf_iteratorIwNS_11char_traitsIwEEEEE6do_getES4_S4_bRNS_8ios_baseERjReEs_0)
                  000186d0    00000003                                   : locale.cpp.obj (.const:.string:_ZZNKSt3__27num_putIwNS_19ostreambuf_iteratorIwNS_11char_traitsIwEEEEE6do_putES4_RNS_8ios_baseEwxEs)
                  000186d3    00000003                                   : locale.cpp.obj (.const:.string:_ZZNKSt3__27num_putIwNS_19ostreambuf_iteratorIwNS_11char_traitsIwEEEEE6do_putES4_RNS_8ios_baseEwyEs)
                  000186d6    00000002                                   : locale.cpp.obj (.const:.string:_ZZNKSt3__27num_putIwNS_19ostreambuf_iteratorIwNS_11char_traitsIwEEEEE6do_putES4_RNS_8ios_baseEweEs)
                  000186d8    00000002                                   : locale.cpp.obj (.const:.string:_ZZNKSt3__27num_putIwNS_19ostreambuf_iteratorIwNS_11char_traitsIwEEEEE6do_putES4_RNS_8ios_baseEwlEs)
                  000186da    00000002                                   : locale.cpp.obj (.const:.string:_ZZNKSt3__27num_putIwNS_19ostreambuf_iteratorIwNS_11char_traitsIwEEEEE6do_putES4_RNS_8ios_baseEwmEs)

.cinit     0    00018700    000000a8     
                  00018700    00000084     (.cinit..data.load) [load image, compression = lzss]
                  00018784    0000000c     (__TI_handler_table)
                  00018790    00000008     (.cinit..bss.load) [load image, compression = zero_init]
                  00018798    00000010     (__TI_cinit_table)

.init_array 
*          0    000186dc    00000020     
                  000186dc    00000004     rtsv7M4_T_le_v4SPD16_eabi.lib : iostream.cpp.obj (.init_array:101)
                  000186e0    00000004     main.obj (.init_array)
                  000186e4    00000004     UART0Driver.obj (.init_array)
                  000186e8    00000004     TimeHandler.obj (.init_array)
                  000186ec    00000004     SysTickDriver.obj (.init_array)
                  000186f0    00000004     Monitor.obj (.init_array)
                  000186f4    00000004     ISRMsgMaker.obj (.init_array)
                  000186f8    00000004     ComandCenter.obj (.init_array)

.stack     0    20000000    00010000     UNINITIALIZED
                  20000000    00000004     rtsv7M4_T_le_v4SPD16_eabi.lib : boot_cortex_m.c.obj (.stack)
                  20000004    0000fffc     --HOLE--

.sysmem    0    20010000    00010000     UNINITIALIZED
                  20010000    00000008     rtsv7M4_T_le_v4SPD16_eabi.lib : memory.c.obj (.sysmem)
                  20010008    0000fff8     --HOLE--

.bss       0    20020000    00000af5     UNINITIALIZED
                  20020000    000003f0     rtsv7M4_T_le_v4SPD16_eabi.lib : iostream.cpp.obj (.bss:$O1$$)
                  200203f0    00000120                                   : trgmsg.c.obj (.bss:_CIOBUF_)
                  20020510    000000a0                                   : locale.cpp.obj (.bss:_ZZNSt3__234_GLOBAL__N__10_locale_cpp_a71832034makeINS_6locale5__impEjEERT_T0_E3buf)
                  200205b0    000000a0     (.common:__TI_tmpnams)
                  20020650    00000090     ComandCenter.obj (.bss:months_str)
                  200206e0    00000090     Monitor.obj (.bss:months_str)
                  20020770    00000090     TimeHandler.obj (.bss:months_str)
                  20020800    00000090     main.obj (.bss:months_str)
                  20020890    00000024     ComandCenter.obj (.bss:valid_commands)
                  200208b4    00000024     Monitor.obj (.bss:valid_commands)
                  200208d8    00000024     TimeHandler.obj (.bss:valid_commands)
                  200208fc    00000024     main.obj (.bss:valid_commands)
                  20020920    0000001c     rtsv7M4_T_le_v4SPD16_eabi.lib : vla_alloc.c.obj (.bss:$O1$$)
                  2002093c    00000004     ComandCenter.obj (.bss)
                  20020940    00000018     rtsv7M4_T_le_v4SPD16_eabi.lib : locale.cpp.obj (.bss:_ZZNSt3__234_GLOBAL__N__10_locale_cpp_a71832034makeINS_8numpunctIcEEjEERT_T0_E3buf)
                  20020958    00000018                                   : locale.cpp.obj (.bss:_ZZNSt3__234_GLOBAL__N__10_locale_cpp_a71832034makeINS_8numpunctIwEEjEERT_T0_E3buf)
                  20020970    00000010                                   : locale.cpp.obj (.bss:_ZZNSt3__234_GLOBAL__N__10_locale_cpp_a71832034makeINS_5ctypeIcEEDnbjEERT_T0_T1_T2_E3buf)
                  20020980    00000010                                   : locale.cpp.obj (.bss:_ZZNSt3__234_GLOBAL__N__10_locale_cpp_a71832034makeINS_7codecvtIwciEEjEERT_T0_E3buf)
                  20020990    00000010                                   : locale.cpp.obj (.bss:_ZZNSt3__234_GLOBAL__N__10_locale_cpp_a71832034makeINS_8time_getIcNS_19istreambuf_iteratorIcNS_11char_traitsIcEEEEEEjEERT_T0_E3buf)
                  200209a0    00000010                                   : locale.cpp.obj (.bss:_ZZNSt3__234_GLOBAL__N__10_locale_cpp_a71832034makeINS_8time_getIwNS_19istreambuf_iteratorIwNS_11char_traitsIwEEEEEEjEERT_T0_E3buf)
                  200209b0    00000010                                   : locale.cpp.obj (.bss:_ZZNSt3__234_GLOBAL__N__10_locale_cpp_a71832034makeINS_8time_putIcNS_19ostreambuf_iteratorIcNS_11char_traitsIcEEEEEEjEERT_T0_E3buf)
                  200209c0    00000010                                   : locale.cpp.obj (.bss:_ZZNSt3__234_GLOBAL__N__10_locale_cpp_a71832034makeINS_8time_putIwNS_19ostreambuf_iteratorIwNS_11char_traitsIwEEEEEEjEERT_T0_E3buf)
                  200209d0    0000000c     ComandCenter.obj (.bss:clear_screen)
                  200209dc    0000000c     Monitor.obj (.bss:clear_screen)
                  200209e8    0000000c     TimeHandler.obj (.bss:clear_screen)
                  200209f4    0000000c     main.obj (.bss:clear_screen)
                  20020a00    0000000c     ComandCenter.obj (.bss:new_line)
                  20020a0c    0000000c     Monitor.obj (.bss:new_line)
                  20020a18    0000000c     TimeHandler.obj (.bss:new_line)
                  20020a24    0000000c     main.obj (.bss:new_line)
                  20020a30    00000008     rtsv7M4_T_le_v4SPD16_eabi.lib : locale.cpp.obj (.bss:_ZZNSt3__234_GLOBAL__N__10_locale_cpp_a71832034makeINS_10moneypunctIcLb0EEEjEERT_T0_E3buf)
                  20020a38    00000008                                   : locale.cpp.obj (.bss:_ZZNSt3__234_GLOBAL__N__10_locale_cpp_a71832034makeINS_10moneypunctIcLb1EEEjEERT_T0_E3buf)
                  20020a40    00000008                                   : locale.cpp.obj (.bss:_ZZNSt3__234_GLOBAL__N__10_locale_cpp_a71832034makeINS_10moneypunctIwLb0EEEjEERT_T0_E3buf)
                  20020a48    00000008                                   : locale.cpp.obj (.bss:_ZZNSt3__234_GLOBAL__N__10_locale_cpp_a71832034makeINS_10moneypunctIwLb1EEEjEERT_T0_E3buf)
                  20020a50    00000008                                   : locale.cpp.obj (.bss:_ZZNSt3__234_GLOBAL__N__10_locale_cpp_a71832034makeINS_5ctypeIwEEjEERT_T0_E3buf)
                  20020a58    00000008                                   : locale.cpp.obj (.bss:_ZZNSt3__234_GLOBAL__N__10_locale_cpp_a71832034makeINS_7codecvtIDiciEEjEERT_T0_E3buf)
                  20020a60    00000008                                   : locale.cpp.obj (.bss:_ZZNSt3__234_GLOBAL__N__10_locale_cpp_a71832034makeINS_7codecvtIDsciEEjEERT_T0_E3buf)
                  20020a68    00000008                                   : locale.cpp.obj (.bss:_ZZNSt3__234_GLOBAL__N__10_locale_cpp_a71832034makeINS_7codecvtIcciEEjEERT_T0_E3buf)
                  20020a70    00000008                                   : locale.cpp.obj (.bss:_ZZNSt3__234_GLOBAL__N__10_locale_cpp_a71832034makeINS_7collateIcEEjEERT_T0_E3buf)
                  20020a78    00000008                                   : locale.cpp.obj (.bss:_ZZNSt3__234_GLOBAL__N__10_locale_cpp_a71832034makeINS_7collateIwEEjEERT_T0_E3buf)
                  20020a80    00000008                                   : locale.cpp.obj (.bss:_ZZNSt3__234_GLOBAL__N__10_locale_cpp_a71832034makeINS_7num_getIcNS_19istreambuf_iteratorIcNS_11char_traitsIcEEEEEEjEERT_T0_E3buf)
                  20020a88    00000008                                   : locale.cpp.obj (.bss:_ZZNSt3__234_GLOBAL__N__10_locale_cpp_a71832034makeINS_7num_getIwNS_19istreambuf_iteratorIwNS_11char_traitsIwEEEEEEjEERT_T0_E3buf)
                  20020a90    00000008                                   : locale.cpp.obj (.bss:_ZZNSt3__234_GLOBAL__N__10_locale_cpp_a71832034makeINS_7num_putIcNS_19ostreambuf_iteratorIcNS_11char_traitsIcEEEEEEjEERT_T0_E3buf)
                  20020a98    00000008                                   : locale.cpp.obj (.bss:_ZZNSt3__234_GLOBAL__N__10_locale_cpp_a71832034makeINS_7num_putIwNS_19ostreambuf_iteratorIwNS_11char_traitsIwEEEEEEjEERT_T0_E3buf)
                  20020aa0    00000008                                   : locale.cpp.obj (.bss:_ZZNSt3__234_GLOBAL__N__10_locale_cpp_a71832034makeINS_8messagesIcEEjEERT_T0_E3buf)
                  20020aa8    00000008                                   : locale.cpp.obj (.bss:_ZZNSt3__234_GLOBAL__N__10_locale_cpp_a71832034makeINS_8messagesIwEEjEERT_T0_E3buf)
                  20020ab0    00000008                                   : locale.cpp.obj (.bss:_ZZNSt3__234_GLOBAL__N__10_locale_cpp_a71832034makeINS_9money_getIcNS_19istreambuf_iteratorIcNS_11char_traitsIcEEEEEEjEERT_T0_E3buf)
                  20020ab8    00000008                                   : locale.cpp.obj (.bss:_ZZNSt3__234_GLOBAL__N__10_locale_cpp_a71832034makeINS_9money_getIwNS_19istreambuf_iteratorIwNS_11char_traitsIwEEEEEEjEERT_T0_E3buf)
                  20020ac0    00000008                                   : locale.cpp.obj (.bss:_ZZNSt3__234_GLOBAL__N__10_locale_cpp_a71832034makeINS_9money_putIcNS_19ostreambuf_iteratorIcNS_11char_traitsIcEEEEEEjEERT_T0_E3buf)
                  20020ac8    00000008                                   : locale.cpp.obj (.bss:_ZZNSt3__234_GLOBAL__N__10_locale_cpp_a71832034makeINS_9money_putIwNS_19ostreambuf_iteratorIwNS_11char_traitsIwEEEEEEjEERT_T0_E3buf)
                  20020ad0    00000008     (.common:parmbuf)
                  20020ad8    00000004     ISRMsgMaker.obj (.bss)
                  20020adc    00000004     Monitor.obj (.bss)
                  20020ae0    00000004     SysTickDriver.obj (.bss)
                  20020ae4    00000004     TimeHandler.obj (.bss)
                  20020ae8    00000004     UART0Driver.obj (.bss)
                  20020aec    00000004     rtsv7M4_T_le_v4SPD16_eabi.lib : new.cpp.obj (.bss)
                  20020af0    00000004     (.common:__dso_handle)
                  20020af4    00000001                                   : iostream.cpp.obj (.bss:_ZNSt3__219__start_std_streamsE)

.data      0    20020af8    0000099c     UNINITIALIZED
                  20020af8    000006fc     rtsv7M4_T_le_v4SPD16_eabi.lib : locale.cpp.obj (.data:$O1$$)
                  200211f4    000000f0                                   : defs.c.obj (.data:_ftable)
                  200212e4    00000078                                   : write.c.obj (.data:_device)
                  2002135c    00000050                                   : write.c.obj (.data:_stream)
                  200213ac    00000010                                   : tmzone.c.obj (.data:_tz)
                  200213bc    00000010                                   : defs.c.obj (.data)
                  200213cc    0000000c                                   : exit.c.obj (.data:$O1$$)
                  200213d8    0000000c                                   : memory.c.obj (.data:$O1$$)
                  200213e4    00000008                                   : _lock.c.obj (.data:$O1$$)
                  200213ec    00000008                                   : locale.cpp.obj (.data:_ZNSt3__210moneypunctIcLb0EE2idE)
                  200213f4    00000008                                   : locale.cpp.obj (.data:_ZNSt3__210moneypunctIcLb1EE2idE)
                  200213fc    00000008                                   : locale.cpp.obj (.data:_ZNSt3__210moneypunctIwLb0EE2idE)
                  20021404    00000008                                   : locale.cpp.obj (.data:_ZNSt3__210moneypunctIwLb1EE2idE)
                  2002140c    00000008                                   : locale.cpp.obj (.data:_ZNSt3__27collateIcE2idE)
                  20021414    00000008                                   : locale.cpp.obj (.data:_ZNSt3__27collateIwE2idE)
                  2002141c    00000008                                   : locale.cpp.obj (.data:_ZNSt3__27num_getIcNS_19istreambuf_iteratorIcNS_11char_traitsIcEEEEE2idE)
                  20021424    00000008                                   : locale.cpp.obj (.data:_ZNSt3__27num_getIwNS_19istreambuf_iteratorIwNS_11char_traitsIwEEEEE2idE)
                  2002142c    00000008                                   : locale.cpp.obj (.data:_ZNSt3__27num_putIcNS_19ostreambuf_iteratorIcNS_11char_traitsIcEEEEE2idE)
                  20021434    00000008                                   : locale.cpp.obj (.data:_ZNSt3__27num_putIwNS_19ostreambuf_iteratorIwNS_11char_traitsIwEEEEE2idE)
                  2002143c    00000008                                   : locale.cpp.obj (.data:_ZNSt3__28messagesIcE2idE)
                  20021444    00000008                                   : locale.cpp.obj (.data:_ZNSt3__28messagesIwE2idE)
                  2002144c    00000008                                   : locale.cpp.obj (.data:_ZNSt3__28time_getIcNS_19istreambuf_iteratorIcNS_11char_traitsIcEEEEE2idE)
                  20021454    00000008                                   : locale.cpp.obj (.data:_ZNSt3__28time_getIwNS_19istreambuf_iteratorIwNS_11char_traitsIwEEEEE2idE)
                  2002145c    00000008                                   : locale.cpp.obj (.data:_ZNSt3__28time_putIcNS_19ostreambuf_iteratorIcNS_11char_traitsIcEEEEE2idE)
                  20021464    00000008                                   : locale.cpp.obj (.data:_ZNSt3__28time_putIwNS_19ostreambuf_iteratorIwNS_11char_traitsIwEEEEE2idE)
                  2002146c    00000008                                   : locale.cpp.obj (.data:_ZNSt3__29money_getIcNS_19istreambuf_iteratorIcNS_11char_traitsIcEEEEE2idE)
                  20021474    00000008                                   : locale.cpp.obj (.data:_ZNSt3__29money_getIwNS_19istreambuf_iteratorIwNS_11char_traitsIwEEEEE2idE)
                  2002147c    00000008                                   : locale.cpp.obj (.data:_ZNSt3__29money_putIcNS_19ostreambuf_iteratorIcNS_11char_traitsIcEEEEE2idE)
                  20021484    00000008                                   : locale.cpp.obj (.data:_ZNSt3__29money_putIwNS_19ostreambuf_iteratorIwNS_11char_traitsIwEEEEE2idE)
                  2002148c    00000004                                   : dtor_list.c.obj (.data)
                  20021490    00000004                                   : errno.c.obj (.data)

MODULE SUMMARY

       Module                          code    ro data   rw data
       ------                          ----    -------   -------
    .\
       ComandCenter.obj                2238    28        208    
       ISRMsgMaker.obj                 1828    150       4      
       TimeHandler.obj                 1630    16        208    
       Monitor.obj                     1216    4         208    
       main.obj                        436     4         204    
       tm4c1294ncpdt_startup_ccs.obj   12      520       0      
       UART0Driver.obj                 360     4         4      
       SysTickDriver.obj               176     4         4      
       GlobalConfig.obj                52      0         0      
       Glue.obj                        24      0         0      
    +--+-------------------------------+-------+---------+---------+
       Total:                          7972    730       840    
                                                                
    C:\ti\ccsv8\tools\compiler\ti-cgt-arm_18.1.2.LTS\lib\rtsv7M4_T_le_v4SPD16_eabi.lib
       locale.cpp.obj                  52317   4613      2412   
       string.cpp.obj                  4778    142       0      
       _printfi.c.obj                  4863    0         0      
       iostream.cpp.obj                2944    482       1009   
       ios.cpp.obj                     2520    900       0      
       _scanfi.c.obj                   2800    16        0      
       strftime.c.obj                  1124    250       0      
       strtod.c.obj                    1120    200       0      
       strtof.c.obj                    968     88        0      
       memory.c.obj                    768     0         12     
       vla_alloc.c.obj                 548     0         28     
       strtoll.c.obj                   476     0         0      
       fd_add_t2.asm.obj               438     0         0      
       defs.c.obj                      0       0         416    
       trgmsg.c.obj                    108     0         288    
       none_mb.c.obj                   390     0         0      
       fwrite.c.obj                    384     0         0      
       strtoull.c.obj                  348     0         0      
       fd_div_t2.asm.obj               310     0         0      
       strtol.c.obj                    304     0         0      
       vec_newdel.c.obj                296     0         0      
       s_scalbn.c.obj                  272     0         0      
       strtoul.c.obj                   272     0         0      
       fd_cmp_t2.asm.obj               268     0         0      
       ctype.c.obj                     0       257       0      
       fd_mul_t2.asm.obj               252     0         0      
       typeinfo.c.obj                  54      193       0      
       write.c.obj                     40      0         200    
       setvbuf.c.obj                   220     0         0      
       sscanf.c.obj                    218     0         0      
       s_scalbnf.c.obj                 208     0         0      
       dtor_list.c.obj                 198     0         8      
       fflush.c.obj                    200     0         0      
       _io_perm.c.obj                  172     0         0      
       _bufread.c.obj                  156     0         0      
       memcpy_t2.asm.obj               156     0         0      
       ull_div_t2.asm.obj              150     0         0      
       snprintf.c.obj                  148     0         0      
       vsnprintf.c.obj                 136     0         0      
       fgetc.c.obj                     132     0         0      
       ungetc.c.obj                    128     0         0      
       memset_t2.asm.obj               122     0         0      
       fclose.c.obj                    116     0         0      
       getdevice.c.obj                 116     0         0      
       fd_tos_t2.asm.obj               110     0         0      
       copy_decompress_lzss.c.obj      104     0         0      
       hostlseek.c.obj                 104     0         0      
       hostopen.c.obj                  96      0         8      
       hostrename.c.obj                104     0         0      
       fseek.c.obj                     100     0         0      
       s_frexp.c.obj                   100     0         0      
       autoinit.c.obj                  96      0         0      
       close.c.obj                     92      0         0      
       exit.c.obj                      76      0         12     
       hostread.c.obj                  88      0         0      
       hostwrite.c.obj                 88      0         0      
       ltoa.c.obj                      84      0         0      
       atoi.c.obj                      76      0         0      
       fd_toi_t2.asm.obj               72      0         0      
       new.cpp.obj                     66      0         4      
       hostclose.c.obj                 68      0         0      
       hostunlink.c.obj                68      0         0      
       locale_stdio.c.obj              62      0         0      
       boot_cortex_m.c.obj             56      0         0      
       strncpy.c.obj                   54      0         0      
       vasprintf.c.obj                 54      0         0      
       fopen.c.obj                     52      0         0      
       i_tofd_t2.asm.obj               46      0         0      
       locale_stdlib.c.obj             44      0         0      
       unlink.c.obj                    44      0         0      
       lseek.c.obj                     40      0         0      
       read.c.obj                      40      0         0      
       memcmp.c.obj                    36      0         0      
       memmov.c.obj                    36      0         0      
       memory.cpp.obj                  2       33        0      
       memchr.c.obj                    32      0         0      
       wctype.c.obj                    32      0         0      
       memccpy.c.obj                   28      0         0      
       asprintf.c.obj                  26      0         0      
       ll_mul_t2.asm.obj               24      0         0      
       mutex.cpp.obj                   24      0         0      
       strcmp.c.obj                    24      0         0      
       strrchr.c.obj                   24      0         0      
       stdlib_typeinfo.cpp.obj         2       21        0      
       guard.c.obj                     22      0         0      
       strchr.c.obj                    22      0         0      
       s_copysign.c.obj                20      0         0      
       strcpy.c.obj                    20      0         0      
       strlen.c.obj                    20      0         0      
       wmemset.c.obj                   20      0         0      
       vector.cpp.obj                  12      7         0      
       s_copysignf.c.obj               18      0         0      
       wcslen.c.obj                    18      0         0      
       tmzone.c.obj                    0       0         16     
       copy_decompress_none.c.obj      14      0         0      
       copy_zero_init.c.obj            12      0         0      
       errno.c.obj                     8       0         4      
       _lock.c.obj                     2       0         8      
       wmemcpy.c.obj                   6       0         0      
       wmemmove.c.obj                  6       0         0      
       xlocale.c.obj                   6       0         0      
       error.c.obj                     4       0         0      
       exception.cpp.obj               4       0         0      
       locale_time.c.obj               4       0         0      
       pre_init.c.obj                  4       0         0      
       div0.asm.obj                    2       0         0      
    +--+-------------------------------+-------+---------+---------+
       Total:                          84156   7202      4425   
                                                                
       Heap:                           0       0         65536  
       Stack:                          0       0         65536  
       Linker Generated:               0       168       0      
    +--+-------------------------------+-------+---------+---------+
       Grand Total:                    92128   8100      136337 


LINKER GENERATED COPY TABLES

__TI_cinit_table @ 00018798 records: 2, size/record: 8, table size: 16
	.data: load addr=00018700, load size=00000084 bytes, run addr=20020af8, run size=0000099c bytes, compression=lzss
	.bss: load addr=00018790, load size=00000008 bytes, run addr=20020000, run size=00000af5 bytes, compression=zero_init


LINKER GENERATED HANDLER TABLE

__TI_handler_table @ 00018784 records: 3, size/record: 4, table size: 12
	index: 0, handler: __TI_decompress_lzss
	index: 1, handler: __TI_decompress_none
	index: 2, handler: __TI_zero_init


GLOBAL SYMBOLS: SORTED ALPHABETICALLY BY Name 

address   name                                                                                                                                                                                     
-------   ----                                                                                                                                                                                     
000169d7  C$$EXIT                                                                                                                                                                                  
00014243  C$$IO$$                                                                                                                                                                                  
000137b5  HOSTclose                                                                                                                                                                                
000120f1  HOSTlseek                                                                                                                                                                                
000128f1  HOSTopen                                                                                                                                                                                 
00012cf1  HOSTread                                                                                                                                                                                 
00012159  HOSTrename                                                                                                                                                                               
000137f9  HOSTunlink                                                                                                                                                                               
00012d49  HOSTwrite                                                                                                                                                                                
00016671  ResetISR                                                                                                                                                                                 
000186dc  SHT$$INIT_ARRAY$$Base                                                                                                                                                                    
000186fc  SHT$$INIT_ARRAY$$Limit                                                                                                                                                                   
00015979  SysTick_ISR_C                                                                                                                                                                            
0001596d  UART0_ISR_C                                                                                                                                                                              
00014365  _Z15InterruptEnablem                                                                                                                                                                     
00014361  _Z21InterruptMasterEnablev                                                                                                                                                               
00013a19  _Z23__finalize_destructionsPP20a_needed_destructionPv                                                                                                                                    
0001383d  _Z25__add_destruction_to_listPP20a_needed_destructionPFYvPvES2_S2_                                                                                                                       
00012639  _ZN10RingBufferI6ISRMsgE3AddES0_                                                                                                                                                         
0001282d  _ZN10RingBufferI6ISRMsgE3GetEv                                                                                                                                                           
00013dd9  _ZN10RingBufferI6ISRMsgEC1Ei                                                                                                                                                             
000160a1  _ZN10RingBufferI6ISRMsgED1Ev                                                                                                                                                             
0001269d  _ZN10RingBufferIcE3AddEc                                                                                                                                                                 
00012df9  _ZN10RingBufferIcE3GetEv                                                                                                                                                                 
00015071  _ZN10RingBufferIcE5ResetEv                                                                                                                                                               
00013e8d  _ZN10RingBufferIcEC1Ei                                                                                                                                                                   
000160af  _ZN10RingBufferIcED1Ev                                                                                                                                                                   
000160bd  _ZN10__cxxabiv117__class_type_infoD0Ev                                                                                                                                                   
00016827  _ZN10__cxxabiv117__class_type_infoD1Ev                                                                                                                                                   
00016827  _ZN10__cxxabiv117__class_type_infoD2Ev                                                                                                                                                   
000160cb  _ZN10__cxxabiv120__si_class_type_infoD0Ev                                                                                                                                                
0001682b  _ZN10__cxxabiv120__si_class_type_infoD1Ev                                                                                                                                                
0001682b  _ZN10__cxxabiv120__si_class_type_infoD2Ev                                                                                                                                                
000160d9  _ZN10__cxxabiv121__vmi_class_type_infoD0Ev                                                                                                                                               
0001682f  _ZN10__cxxabiv121__vmi_class_type_infoD1Ev                                                                                                                                               
0001682f  _ZN10__cxxabiv121__vmi_class_type_infoD2Ev                                                                                                                                               
0000b47f  _ZN11ISRMsgMaker12GetFromQueueER7MsgTypeRc                                                                                                                                               
0000b4ad  _ZN11ISRMsgMaker13CheckISRQueueEv                                                                                                                                                        
0000b533  _ZN11ISRMsgMaker13GetOutputCharEv                                                                                                                                                        
0000b545  _ZN11ISRMsgMaker14GetISRMsgMakerEv                                                                                                                                                       
0000b4bd  _ZN11ISRMsgMaker14QueueOutputMsgENSt3__212basic_stringIcNS0_11char_traitsIcEENS0_9allocatorIcEEEE                                                                                        
0000b521  _ZN11ISRMsgMaker17OutputBufferEmptyEv                                                                                                                                                    
20020ad8  _ZN11ISRMsgMaker20ISRMsgMakerInstance_E                                                                                                                                                  
0000b453  _ZN11ISRMsgMaker8QueueMsgE7MsgTypec                                                                                                                                                      
0000b3e9  _ZN11ISRMsgMakerC1Ev                                                                                                                                                                     
0000b3e9  _ZN11ISRMsgMakerC2Ev                                                                                                                                                                     
00002ac7  _ZN11TimeHandler10CheckAlarmEv                                                                                                                                                           
00002bad  _ZN11TimeHandler12CreateDMYStrER3dmy                                                                                                                                                     
00002b19  _ZN11TimeHandler12CreateSMHStrER3smh                                                                                                                                                     
00002961  _ZN11TimeHandler12TickTenthSecEv                                                                                                                                                         
00002a73  _ZN11TimeHandler13CheckLeapYearEv                                                                                                                                                        
00002cef  _ZN11TimeHandler14GetTimeHandlerEv                                                                                                                                                       
00002c3d  _ZN11TimeHandler18LexicalIntToStringEth                                                                                                                                                  
20020ae4  _ZN11TimeHandler20TimeHandlerInstance_E                                                                                                                                                  
00002941  _ZN11TimeHandler7SetDateER3dmy                                                                                                                                                           
00002921  _ZN11TimeHandler7SetTimeER3smh                                                                                                                                                           
000029e1  _ZN11TimeHandler7TickDayEv                                                                                                                                                               
000029a1  _ZN11TimeHandler7TickMinEv                                                                                                                                                               
00002981  _ZN11TimeHandler7TickSecEv                                                                                                                                                               
00002955  _ZN11TimeHandler8SetAlarmER3smh                                                                                                                                                          
000029c1  _ZN11TimeHandler8TickHourEv                                                                                                                                                              
00002a4b  _ZN11TimeHandler8TickYearEv                                                                                                                                                              
00002a2b  _ZN11TimeHandler9TickMonthEv                                                                                                                                                             
00014e31  _ZN11TimeHandlerC1Ev                                                                                                                                                                     
0000bd63  _ZN11UART0Driver11UART0EnableEm                                                                                                                                                          
0000bd79  _ZN11UART0Driver12UART0HandlerEv                                                                                                                                                         
0000bdf1  _ZN11UART0Driver14GetUART0DriverEv                                                                                                                                                       
0000bddb  _ZN11UART0Driver15JumpStartOutputEc                                                                                                                                                      
20020ae8  _ZN11UART0Driver20UART0DriverInstance_E                                                                                                                                                  
0000bd03  _ZN11UART0Driver9UART0InitEv                                                                                                                                                             
0000bced  _ZN11UART0DriverC1Ev                                                                                                                                                                     
0000bced  _ZN11UART0DriverC2Ev                                                                                                                                                                     
000030ff  _ZN13CommandCenter11DateCommandENSt3__212basic_stringIcNS0_11char_traitsIcEENS0_9allocatorIcEEEE                                                                                         
000030ef  _ZN13CommandCenter11TimeCommandENSt3__212basic_stringIcNS0_11char_traitsIcEENS0_9allocatorIcEEEE                                                                                         
0000310f  _ZN13CommandCenter12AlarmCommandENSt3__212basic_stringIcNS0_11char_traitsIcEENS0_9allocatorIcEEEE                                                                                        
00002f4b  _ZN13CommandCenter13HandleCommandENSt3__212basic_stringIcNS0_11char_traitsIcEENS0_9allocatorIcEEEE                                                                                       
00003179  _ZN13CommandCenter16GetCommandCenterEv                                                                                                                                                   
2002093c  _ZN13CommandCenter22CommandCenterInstance_E                                                                                                                                              
00003129  _ZN13CommandCenter7ToUpperERNSt3__212basic_stringIcNS0_11char_traitsIcEENS0_9allocatorIcEEEE                                                                                             
00002f1d  _ZN13CommandCenterC1Ev                                                                                                                                                                   
00002f1d  _ZN13CommandCenterC2Ev                                                                                                                                                                   
0000fb41  _ZN13SysTickDriver11SysTickStopEv                                                                                                                                                        
0000fb2d  _ZN13SysTickDriver12SysTickStartEv                                                                                                                                                       
0000fb55  _ZN13SysTickDriver13SysTickEnableEb                                                                                                                                                      
0000fb7f  _ZN13SysTickDriver14SysTickHandlerEv                                                                                                                                                     
0000fb89  _ZN13SysTickDriver16GetSysTickDriverEv                                                                                                                                                   
20020ae0  _ZN13SysTickDriver22SysTickDriverInstance_E                                                                                                                                              
0000fb11  _ZN13SysTickDriverC1Ev                                                                                                                                                                   
0000fb11  _ZN13SysTickDriverC2Ev                                                                                                                                                                   
0000434d  _ZN7Monitor10GetMonitorEv                                                                                                                                                                
000041f3  _ZN7Monitor10HandleUARTEc                                                                                                                                                                
00004153  _ZN7Monitor11CentralLoopEv                                                                                                                                                               
00004301  _ZN7Monitor12PrintNewLineEv                                                                                                                                                              
000042f7  _ZN7Monitor13HandleSYSTICKEv                                                                                                                                                             
20020adc  _ZN7Monitor16MonitorInstance_E                                                                                                                                                           
00004191  _ZN7Monitor19CheckMessageHandlerER7MsgTypeRc                                                                                                                                             
00004323  _ZN7Monitor8PrintMsgENSt3__212basic_stringIcNS0_11char_traitsIcEENS0_9allocatorIcEEEE                                                                                                    
0000410d  _ZN7MonitorC1Ev                                                                                                                                                                          
0000410d  _ZN7MonitorC2Ev                                                                                                                                                                          
000160e7  _ZNK10RingBufferI6ISRMsgE5EmptyEv                                                                                                                                                        
000160f5  _ZNK10RingBufferIcE5EmptyEv                                                                                                                                                              
00013881  _ZNKSt3__210__time_put8__do_putEPcRS1_PK2tmcc                                                                                                                                            
00010355  _ZNKSt3__210__time_put8__do_putEPwRS1_PK2tmcc                                                                                                                                            
00015577  _ZNKSt3__210moneypunctIcLb0EE11do_groupingEv                                                                                                                                             
00015301  _ZNKSt3__210moneypunctIcLb0EE13do_neg_formatEv                                                                                                                                           
0001531f  _ZNKSt3__210moneypunctIcLb0EE13do_pos_formatEv                                                                                                                                           
00015593  _ZNKSt3__210moneypunctIcLb0EE14do_curr_symbolEv                                                                                                                                          
00016837  _ZNKSt3__210moneypunctIcLb0EE14do_frac_digitsEv                                                                                                                                          
0001683b  _ZNKSt3__210moneypunctIcLb0EE16do_decimal_pointEv                                                                                                                                        
0001533d  _ZNKSt3__210moneypunctIcLb0EE16do_negative_signEv                                                                                                                                        
000155af  _ZNKSt3__210moneypunctIcLb0EE16do_positive_signEv                                                                                                                                        
0001683f  _ZNKSt3__210moneypunctIcLb0EE16do_thousands_sepEv                                                                                                                                        
000155cb  _ZNKSt3__210moneypunctIcLb1EE11do_groupingEv                                                                                                                                             
0001535b  _ZNKSt3__210moneypunctIcLb1EE13do_neg_formatEv                                                                                                                                           
00015379  _ZNKSt3__210moneypunctIcLb1EE13do_pos_formatEv                                                                                                                                           
000155e7  _ZNKSt3__210moneypunctIcLb1EE14do_curr_symbolEv                                                                                                                                          
00016843  _ZNKSt3__210moneypunctIcLb1EE14do_frac_digitsEv                                                                                                                                          
00016847  _ZNKSt3__210moneypunctIcLb1EE16do_decimal_pointEv                                                                                                                                        
00015397  _ZNKSt3__210moneypunctIcLb1EE16do_negative_signEv                                                                                                                                        
00015603  _ZNKSt3__210moneypunctIcLb1EE16do_positive_signEv                                                                                                                                        
0001684b  _ZNKSt3__210moneypunctIcLb1EE16do_thousands_sepEv                                                                                                                                        
0001561f  _ZNKSt3__210moneypunctIwLb0EE11do_groupingEv                                                                                                                                             
000153b5  _ZNKSt3__210moneypunctIwLb0EE13do_neg_formatEv                                                                                                                                           
000153d3  _ZNKSt3__210moneypunctIwLb0EE13do_pos_formatEv                                                                                                                                           
0001563b  _ZNKSt3__210moneypunctIwLb0EE14do_curr_symbolEv                                                                                                                                          
0001684f  _ZNKSt3__210moneypunctIwLb0EE14do_frac_digitsEv                                                                                                                                          
00016791  _ZNKSt3__210moneypunctIwLb0EE16do_decimal_pointEv                                                                                                                                        
000153f1  _ZNKSt3__210moneypunctIwLb0EE16do_negative_signEv                                                                                                                                        
00015657  _ZNKSt3__210moneypunctIwLb0EE16do_positive_signEv                                                                                                                                        
00016797  _ZNKSt3__210moneypunctIwLb0EE16do_thousands_sepEv                                                                                                                                        
00015673  _ZNKSt3__210moneypunctIwLb1EE11do_groupingEv                                                                                                                                             
0001540f  _ZNKSt3__210moneypunctIwLb1EE13do_neg_formatEv                                                                                                                                           
0001542d  _ZNKSt3__210moneypunctIwLb1EE13do_pos_formatEv                                                                                                                                           
0001568f  _ZNKSt3__210moneypunctIwLb1EE14do_curr_symbolEv                                                                                                                                          
00016853  _ZNKSt3__210moneypunctIwLb1EE14do_frac_digitsEv                                                                                                                                          
0001679d  _ZNKSt3__210moneypunctIwLb1EE16do_decimal_pointEv                                                                                                                                        
0001544b  _ZNKSt3__210moneypunctIwLb1EE16do_negative_signEv                                                                                                                                        
000156ab  _ZNKSt3__210moneypunctIwLb1EE16do_positive_signEv                                                                                                                                        
000167a3  _ZNKSt3__210moneypunctIwLb1EE16do_thousands_sepEv                                                                                                                                        
00016103  _ZNKSt3__210unique_ptrI10RingBufferI6ISRMsgENS_14default_deleteIS3_EEEptEv                                                                                                               
00016111  _ZNKSt3__210unique_ptrI10RingBufferIcENS_14default_deleteIS2_EEEptEv                                                                                                                     
00015bc5  _ZNKSt3__210unique_ptrIA_6ISRMsgNS_14default_deleteIS2_EEEixEj                                                                                                                           
00015d1d  _ZNKSt3__210unique_ptrIA_cNS_14default_deleteIS1_EEEixEj                                                                                                                                 
00015bdb  _ZNKSt3__212basic_stringIcNS_11char_traitsIcEENS_9allocatorIcEEE4dataEv                                                                                                                  
00015bf1  _ZNKSt3__212basic_stringIcNS_11char_traitsIcEENS_9allocatorIcEEE4sizeEv                                                                                                                  
00015d31  _ZNKSt3__212basic_stringIcNS_11char_traitsIcEENS_9allocatorIcEEE6lengthEv                                                                                                                
00011125  _ZNKSt3__212basic_stringIcNS_11char_traitsIcEENS_9allocatorIcEEE7compareEjjPKcj                                                                                                          
00015c07  _ZNKSt3__212basic_stringIcNS_11char_traitsIcEENS_9allocatorIcEEE9__is_longEv                                                                                                             
00016857  _ZNKSt3__213basic_ostreamIcNS_11char_traitsIcEEE6sentrycvbEv                                                                                                                             
00015835  _ZNKSt3__214default_deleteI10RingBufferI6ISRMsgEEclEPS3_                                                                                                                                 
0001584f  _ZNKSt3__214default_deleteI10RingBufferIcEEclEPS2_                                                                                                                                       
0001611f  _ZNKSt3__214default_deleteIA_6ISRMsgEclIS1_EENS3_20_EnableIfConvertibleIT_E4typeEPS6_                                                                                                    
0001612d  _ZNKSt3__214default_deleteIA_cEclIcEENS2_20_EnableIfConvertibleIT_E4typeEPS5_                                                                                                            
000163db  _ZNKSt3__217__compressed_pairIP10RingBufferI6ISRMsgENS_14default_deleteIS3_EEE5firstEv                                                                                                   
000163e7  _ZNKSt3__217__compressed_pairIP10RingBufferIcENS_14default_deleteIS2_EEE5firstEv                                                                                                         
000163f3  _ZNKSt3__217__compressed_pairIP6ISRMsgNS_14default_deleteIA_S1_EEE5firstEv                                                                                                               
000163ff  _ZNKSt3__217__compressed_pairIPcNS_14default_deleteIA_cEEE5firstEv                                                                                                                       
000129b1  _ZNKSt3__219istreambuf_iteratorIcNS_11char_traitsIcEEE5equalERKS3_                                                                                                                       
00012a0f  _ZNKSt3__219istreambuf_iteratorIwNS_11char_traitsIwEEE5equalERKS3_                                                                                                                       
00015d45  _ZNKSt3__219ostreambuf_iteratorIcNS_11char_traitsIcEEE6failedEv                                                                                                                          
000121c1  _ZNKSt3__220__time_get_c_storageIcE3__XEv                                                                                                                                                
00010d99  _ZNKSt3__220__time_get_c_storageIcE3__cEv                                                                                                                                                
000116ed  _ZNKSt3__220__time_get_c_storageIcE3__rEv                                                                                                                                                
00012229  _ZNKSt3__220__time_get_c_storageIcE3__xEv                                                                                                                                                
00010ae9  _ZNKSt3__220__time_get_c_storageIcE7__am_pmEv                                                                                                                                            
0000be55  _ZNKSt3__220__time_get_c_storageIcE7__weeksEv                                                                                                                                            
000077d9  _ZNKSt3__220__time_get_c_storageIcE8__monthsEv                                                                                                                                           
0000ed49  _ZNKSt3__220__time_get_c_storageIwE3__XEv                                                                                                                                                
0000e3d1  _ZNKSt3__220__time_get_c_storageIwE3__cEv                                                                                                                                                
0000ec75  _ZNKSt3__220__time_get_c_storageIwE3__rEv                                                                                                                                                
0000ee19  _ZNKSt3__220__time_get_c_storageIwE3__xEv                                                                                                                                                
00010779  _ZNKSt3__220__time_get_c_storageIwE7__am_pmEv                                                                                                                                            
00009aed  _ZNKSt3__220__time_get_c_storageIwE7__weeksEv                                                                                                                                            
000064cd  _ZNKSt3__220__time_get_c_storageIwE8__monthsEv                                                                                                                                           
0001640d  _ZNKSt3__220__vector_base_commonILb1EE20__throw_length_errorEv                                                                                                                           
00016419  _ZNKSt3__221__basic_string_commonILb1EE20__throw_length_errorEv                                                                                                                          
00016425  _ZNKSt3__221__basic_string_commonILb1EE20__throw_out_of_rangeEv                                                                                                                          
00016431  _ZNKSt3__222__compressed_pair_elemINS_12basic_stringIcNS_11char_traitsIcEENS_9allocatorIcEEE5__repELi0ELb0EE5__getEv                                                                     
00001757  _ZNKSt3__222__compressed_pair_elemINS_12basic_stringIwNS_11char_traitsIwEENS_9allocatorIwEEE5__repELi0ELb0EE5__getEv                                                                     
0001643d  _ZNKSt3__222__compressed_pair_elemIP10RingBufferI6ISRMsgELi0ELb0EE5__getEv                                                                                                               
00016449  _ZNKSt3__222__compressed_pair_elemIP10RingBufferIcELi0ELb0EE5__getEv                                                                                                                     
00016455  _ZNKSt3__222__compressed_pair_elemIP6ISRMsgLi0ELb0EE5__getEv                                                                                                                             
00016461  _ZNKSt3__222__compressed_pair_elemIPcLi0ELb0EE5__getEv                                                                                                                                   
00012be1  _ZNKSt3__234_GLOBAL__N__10_string_cpp_11932bae14initial_stringINS_12basic_stringIcNS_11char_traitsIcEENS_9allocatorIcEEEEiLb0EEclEv                                                      
00013f3d  _ZNKSt3__25ctypeIcE10do_tolowerEPcPKc                                                                                                                                                    
00014e55  _ZNKSt3__25ctypeIcE10do_tolowerEc                                                                                                                                                        
00013f75  _ZNKSt3__25ctypeIcE10do_toupperEPcPKc                                                                                                                                                    
00014e79  _ZNKSt3__25ctypeIcE10do_toupperEc                                                                                                                                                        
00016689  _ZNKSt3__25ctypeIcE5widenEPKcS3_Pc                                                                                                                                                       
00015869  _ZNKSt3__25ctypeIcE5widenEc                                                                                                                                                              
00016693  _ZNKSt3__25ctypeIcE6narrowEcc                                                                                                                                                            
0001669d  _ZNKSt3__25ctypeIcE7toupperEc                                                                                                                                                            
00015985  _ZNKSt3__25ctypeIcE8do_widenEPKcS3_Pc                                                                                                                                                    
0001685b  _ZNKSt3__25ctypeIcE8do_widenEc                                                                                                                                                           
00015093  _ZNKSt3__25ctypeIcE9do_narrowEPKcS3_cPc                                                                                                                                                  
0001646d  _ZNKSt3__25ctypeIcE9do_narrowEcc                                                                                                                                                         
00014bb9  _ZNKSt3__25ctypeIwE10do_scan_isEhPKwS3_                                                                                                                                                  
00013fad  _ZNKSt3__25ctypeIwE10do_tolowerEPwPKw                                                                                                                                                    
00014e9d  _ZNKSt3__25ctypeIwE10do_tolowerEw                                                                                                                                                        
00013fe5  _ZNKSt3__25ctypeIwE10do_toupperEPwPKw                                                                                                                                                    
000150b5  _ZNKSt3__25ctypeIwE10do_toupperEw                                                                                                                                                        
00014be3  _ZNKSt3__25ctypeIwE11do_scan_notEhPKwS3_                                                                                                                                                 
000166a7  _ZNKSt3__25ctypeIwE2isEhw                                                                                                                                                                
000147d5  _ZNKSt3__25ctypeIwE5do_isEPKwS3_Ph                                                                                                                                                       
000156c7  _ZNKSt3__25ctypeIwE5do_isEhw                                                                                                                                                             
000166b1  _ZNKSt3__25ctypeIwE5widenEPKcS3_Pw                                                                                                                                                       
000166bb  _ZNKSt3__25ctypeIwE5widenEc                                                                                                                                                              
0001599d  _ZNKSt3__25ctypeIwE8do_widenEPKcS3_Pw                                                                                                                                                    
0001685f  _ZNKSt3__25ctypeIwE8do_widenEc                                                                                                                                                           
00014ec1  _ZNKSt3__25ctypeIwE9do_narrowEPKwS3_cPc                                                                                                                                                  
00016479  _ZNKSt3__25ctypeIwE9do_narrowEwc                                                                                                                                                         
00016729  _ZNKSt3__26locale5__imp9use_facetEl                                                                                                                                                      
00015c1d  _ZNKSt3__26locale9use_facetERNS0_2idE                                                                                                                                                    
000167a9  _ZNKSt3__26vectorIPNS_6locale5facetENS_15__sso_allocatorIS3_Lj28EEEE8max_sizeEv                                                                                                          
00016731  _ZNKSt3__27codecvtIDiciE10do_unshiftERiPcS3_RS3_                                                                                                                                         
00016863  _ZNKSt3__27codecvtIDiciE11do_encodingEv                                                                                                                                                  
00016867  _ZNKSt3__27codecvtIDiciE13do_max_lengthEv                                                                                                                                                
0001686b  _ZNKSt3__27codecvtIDiciE16do_always_noconvEv                                                                                                                                             
000138c5  _ZNKSt3__27codecvtIDiciE5do_inERiPKcS4_RS4_PDiS6_RS6_                                                                                                                                    
000133d1  _ZNKSt3__27codecvtIDiciE6do_outERiPKDiS4_RS4_PcS6_RS6_                                                                                                                                   
000159b5  _ZNKSt3__27codecvtIDiciE9do_lengthERiPKcS4_j                                                                                                                                             
00016739  _ZNKSt3__27codecvtIDsciE10do_unshiftERiPcS3_RS3_                                                                                                                                         
0001686f  _ZNKSt3__27codecvtIDsciE11do_encodingEv                                                                                                                                                  
00016873  _ZNKSt3__27codecvtIDsciE13do_max_lengthEv                                                                                                                                                
00016877  _ZNKSt3__27codecvtIDsciE16do_always_noconvEv                                                                                                                                             
00013909  _ZNKSt3__27codecvtIDsciE5do_inERiPKcS4_RS4_PDsS6_RS6_                                                                                                                                    
00013419  _ZNKSt3__27codecvtIDsciE6do_outERiPKDsS4_RS4_PcS6_RS6_                                                                                                                                   
000159cd  _ZNKSt3__27codecvtIDsciE9do_lengthERiPKcS4_j                                                                                                                                             
00016741  _ZNKSt3__27codecvtIcciE10do_unshiftERiPcS3_RS3_                                                                                                                                          
0001687b  _ZNKSt3__27codecvtIcciE11do_encodingEv                                                                                                                                                   
0001687f  _ZNKSt3__27codecvtIcciE13do_max_lengthEv                                                                                                                                                 
00016883  _ZNKSt3__27codecvtIcciE16do_always_noconvEv                                                                                                                                              
0001513f  _ZNKSt3__27codecvtIcciE3outERiPKcS4_RS4_PcS6_RS6_                                                                                                                                        
0001613b  _ZNKSt3__27codecvtIcciE5do_inERiPKcS4_RS4_PcS6_RS6_                                                                                                                                      
00016149  _ZNKSt3__27codecvtIcciE6do_outERiPKcS4_RS4_PcS6_RS6_                                                                                                                                     
00015d59  _ZNKSt3__27codecvtIcciE9do_lengthERiPKcS4_j                                                                                                                                              
00013461  _ZNKSt3__27codecvtIwciE10do_unshiftERiPcS3_RS3_                                                                                                                                          
00014803  _ZNKSt3__27codecvtIwciE11do_encodingEv                                                                                                                                                   
000166c5  _ZNKSt3__27codecvtIwciE13always_noconvEv                                                                                                                                                 
00016485  _ZNKSt3__27codecvtIwciE13do_max_lengthEv                                                                                                                                                 
00016887  _ZNKSt3__27codecvtIwciE16do_always_noconvEv                                                                                                                                              
0001515f  _ZNKSt3__27codecvtIwciE3outERiPKwS4_RS4_PcS6_RS6_                                                                                                                                        
0000d135  _ZNKSt3__27codecvtIwciE5do_inERiPKcS4_RS4_PwS6_RS6_                                                                                                                                      
0000d49d  _ZNKSt3__27codecvtIwciE6do_outERiPKwS4_RS4_PcS6_RS6_                                                                                                                                     
000134a9  _ZNKSt3__27codecvtIwciE9do_lengthERiPKcS4_j                                                                                                                                              
0001401d  _ZNKSt3__27collateIcE10do_compareEPKcS3_S3_S3_                                                                                                                                           
00012b29  _ZNKSt3__27collateIcE12do_transformEPKcS3_                                                                                                                                               
00014593  _ZNKSt3__27collateIcE7do_hashEPKcS3_                                                                                                                                                     
00013ec7  _ZNKSt3__27collateIwE10do_compareEPKwS3_S3_S3_                                                                                                                                           
00010e1d  _ZNKSt3__27collateIwE12do_transformEPKwS3_                                                                                                                                               
00014499  _ZNKSt3__27collateIwE7do_hashEPKwS3_                                                                                                                                                     
0000a1ad  _ZNKSt3__27num_getIcNS_19istreambuf_iteratorIcNS_11char_traitsIcEEEEE15__do_get_signedIlEES4_S4_S4_RNS_8ios_baseERjRT_                                                                   
00009c9d  _ZNKSt3__27num_getIcNS_19istreambuf_iteratorIcNS_11char_traitsIcEEEEE15__do_get_signedIxEES4_S4_S4_RNS_8ios_baseERjRT_                                                                   
0000a359  _ZNKSt3__27num_getIcNS_19istreambuf_iteratorIcNS_11char_traitsIcEEEEE17__do_get_unsignedIjEES4_S4_S4_RNS_8ios_baseERjRT_                                                                 
0000a505  _ZNKSt3__27num_getIcNS_19istreambuf_iteratorIcNS_11char_traitsIcEEEEE17__do_get_unsignedImEES4_S4_S4_RNS_8ios_baseERjRT_                                                                 
0000a6b1  _ZNKSt3__27num_getIcNS_19istreambuf_iteratorIcNS_11char_traitsIcEEEEE17__do_get_unsignedItEES4_S4_S4_RNS_8ios_baseERjRT_                                                                 
00009e4d  _ZNKSt3__27num_getIcNS_19istreambuf_iteratorIcNS_11char_traitsIcEEEEE17__do_get_unsignedIyEES4_S4_S4_RNS_8ios_baseERjRT_                                                                 
0000a85d  _ZNKSt3__27num_getIcNS_19istreambuf_iteratorIcNS_11char_traitsIcEEEEE23__do_get_floating_pointIdEES4_S4_S4_RNS_8ios_baseERjRT_                                                           
0000aa09  _ZNKSt3__27num_getIcNS_19istreambuf_iteratorIcNS_11char_traitsIcEEEEE23__do_get_floating_pointIeEES4_S4_S4_RNS_8ios_baseERjRT_                                                           
0000af09  _ZNKSt3__27num_getIcNS_19istreambuf_iteratorIcNS_11char_traitsIcEEEEE23__do_get_floating_pointIfEES4_S4_S4_RNS_8ios_baseERjRT_                                                           
00009ffd  _ZNKSt3__27num_getIcNS_19istreambuf_iteratorIcNS_11char_traitsIcEEEEE6do_getES4_S4_RNS_8ios_baseERjRPv                                                                                   
0000e67d  _ZNKSt3__27num_getIcNS_19istreambuf_iteratorIcNS_11char_traitsIcEEEEE6do_getES4_S4_RNS_8ios_baseERjRb                                                                                    
00015eb1  _ZNKSt3__27num_getIcNS_19istreambuf_iteratorIcNS_11char_traitsIcEEEEE6do_getES4_S4_RNS_8ios_baseERjRd                                                                                    
00015ec1  _ZNKSt3__27num_getIcNS_19istreambuf_iteratorIcNS_11char_traitsIcEEEEE6do_getES4_S4_RNS_8ios_baseERjRe                                                                                    
00015ed1  _ZNKSt3__27num_getIcNS_19istreambuf_iteratorIcNS_11char_traitsIcEEEEE6do_getES4_S4_RNS_8ios_baseERjRf                                                                                    
00015ee1  _ZNKSt3__27num_getIcNS_19istreambuf_iteratorIcNS_11char_traitsIcEEEEE6do_getES4_S4_RNS_8ios_baseERjRl                                                                                    
00015ef1  _ZNKSt3__27num_getIcNS_19istreambuf_iteratorIcNS_11char_traitsIcEEEEE6do_getES4_S4_RNS_8ios_baseERjRm                                                                                    
00015f01  _ZNKSt3__27num_getIcNS_19istreambuf_iteratorIcNS_11char_traitsIcEEEEE6do_getES4_S4_RNS_8ios_baseERjRt                                                                                    
00015f11  _ZNKSt3__27num_getIcNS_19istreambuf_iteratorIcNS_11char_traitsIcEEEEE6do_getES4_S4_RNS_8ios_baseERjRx                                                                                    
00015f21  _ZNKSt3__27num_getIcNS_19istreambuf_iteratorIcNS_11char_traitsIcEEEEE6do_getES4_S4_RNS_8ios_baseERjRy                                                                                    
00015f31  _ZNKSt3__27num_getIcNS_19istreambuf_iteratorIcNS_11char_traitsIcEEEEE6do_getES4_S4_RNS_8ios_baseERjS8_                                                                                   
00008379  _ZNKSt3__27num_getIwNS_19istreambuf_iteratorIwNS_11char_traitsIwEEEEE15__do_get_signedIlEES4_S4_S4_RNS_8ios_baseERjRT_                                                                   
00008551  _ZNKSt3__27num_getIwNS_19istreambuf_iteratorIwNS_11char_traitsIwEEEEE15__do_get_signedIxEES4_S4_S4_RNS_8ios_baseERjRT_                                                                   
00008729  _ZNKSt3__27num_getIwNS_19istreambuf_iteratorIwNS_11char_traitsIwEEEEE17__do_get_unsignedIjEES4_S4_S4_RNS_8ios_baseERjRT_                                                                 
00008901  _ZNKSt3__27num_getIwNS_19istreambuf_iteratorIwNS_11char_traitsIwEEEEE17__do_get_unsignedImEES4_S4_S4_RNS_8ios_baseERjRT_                                                                 
00008ad9  _ZNKSt3__27num_getIwNS_19istreambuf_iteratorIwNS_11char_traitsIwEEEEE17__do_get_unsignedItEES4_S4_S4_RNS_8ios_baseERjRT_                                                                 
00008cb1  _ZNKSt3__27num_getIwNS_19istreambuf_iteratorIwNS_11char_traitsIwEEEEE17__do_get_unsignedIyEES4_S4_S4_RNS_8ios_baseERjRT_                                                                 
0000abb5  _ZNKSt3__27num_getIwNS_19istreambuf_iteratorIwNS_11char_traitsIwEEEEE23__do_get_floating_pointIdEES4_S4_S4_RNS_8ios_baseERjRT_                                                           
0000ad5f  _ZNKSt3__27num_getIwNS_19istreambuf_iteratorIwNS_11char_traitsIwEEEEE23__do_get_floating_pointIeEES4_S4_S4_RNS_8ios_baseERjRT_                                                           
0000b0b1  _ZNKSt3__27num_getIwNS_19istreambuf_iteratorIwNS_11char_traitsIwEEEEE23__do_get_floating_pointIfEES4_S4_S4_RNS_8ios_baseERjRT_                                                           
000095bd  _ZNKSt3__27num_getIwNS_19istreambuf_iteratorIwNS_11char_traitsIwEEEEE6do_getES4_S4_RNS_8ios_baseERjRPv                                                                                   
0000e759  _ZNKSt3__27num_getIwNS_19istreambuf_iteratorIwNS_11char_traitsIwEEEEE6do_getES4_S4_RNS_8ios_baseERjRb                                                                                    
00015f41  _ZNKSt3__27num_getIwNS_19istreambuf_iteratorIwNS_11char_traitsIwEEEEE6do_getES4_S4_RNS_8ios_baseERjRd                                                                                    
00015f51  _ZNKSt3__27num_getIwNS_19istreambuf_iteratorIwNS_11char_traitsIwEEEEE6do_getES4_S4_RNS_8ios_baseERjRe                                                                                    
00015f61  _ZNKSt3__27num_getIwNS_19istreambuf_iteratorIwNS_11char_traitsIwEEEEE6do_getES4_S4_RNS_8ios_baseERjRf                                                                                    
00015f71  _ZNKSt3__27num_getIwNS_19istreambuf_iteratorIwNS_11char_traitsIwEEEEE6do_getES4_S4_RNS_8ios_baseERjRl                                                                                    
00015f81  _ZNKSt3__27num_getIwNS_19istreambuf_iteratorIwNS_11char_traitsIwEEEEE6do_getES4_S4_RNS_8ios_baseERjRm                                                                                    
00015f91  _ZNKSt3__27num_getIwNS_19istreambuf_iteratorIwNS_11char_traitsIwEEEEE6do_getES4_S4_RNS_8ios_baseERjRt                                                                                    
00015fa1  _ZNKSt3__27num_getIwNS_19istreambuf_iteratorIwNS_11char_traitsIwEEEEE6do_getES4_S4_RNS_8ios_baseERjRx                                                                                    
00015fb1  _ZNKSt3__27num_getIwNS_19istreambuf_iteratorIwNS_11char_traitsIwEEEEE6do_getES4_S4_RNS_8ios_baseERjRy                                                                                    
00015fc1  _ZNKSt3__27num_getIwNS_19istreambuf_iteratorIwNS_11char_traitsIwEEEEE6do_getES4_S4_RNS_8ios_baseERjS8_                                                                                   
000103ed  _ZNKSt3__27num_putIcNS_19ostreambuf_iteratorIcNS_11char_traitsIcEEEEE6do_putES4_RNS_8ios_baseEcPKv                                                                                       
00010485  _ZNKSt3__27num_putIcNS_19ostreambuf_iteratorIcNS_11char_traitsIcEEEEE6do_putES4_RNS_8ios_baseEcb                                                                                         
0000c4e9  _ZNKSt3__27num_putIcNS_19ostreambuf_iteratorIcNS_11char_traitsIcEEEEE6do_putES4_RNS_8ios_baseEcd                                                                                         
0000c8a9  _ZNKSt3__27num_putIcNS_19ostreambuf_iteratorIcNS_11char_traitsIcEEEEE6do_putES4_RNS_8ios_baseEce                                                                                         
0000f52d  _ZNKSt3__27num_putIcNS_19ostreambuf_iteratorIcNS_11char_traitsIcEEEEE6do_putES4_RNS_8ios_baseEcl                                                                                         
0000f5ed  _ZNKSt3__27num_putIcNS_19ostreambuf_iteratorIcNS_11char_traitsIcEEEEE6do_putES4_RNS_8ios_baseEcm                                                                                         
0000efb9  _ZNKSt3__27num_putIcNS_19ostreambuf_iteratorIcNS_11char_traitsIcEEEEE6do_putES4_RNS_8ios_baseEcx                                                                                         
0000f2e1  _ZNKSt3__27num_putIcNS_19ostreambuf_iteratorIcNS_11char_traitsIcEEEEE6do_putES4_RNS_8ios_baseEcy                                                                                         
00010049  _ZNKSt3__27num_putIwNS_19ostreambuf_iteratorIwNS_11char_traitsIwEEEEE6do_putES4_RNS_8ios_baseEwPKv                                                                                       
000100e5  _ZNKSt3__27num_putIwNS_19ostreambuf_iteratorIwNS_11char_traitsIwEEEEE6do_putES4_RNS_8ios_baseEwb                                                                                         
0000c9e5  _ZNKSt3__27num_putIwNS_19ostreambuf_iteratorIwNS_11char_traitsIwEEEEE6do_putES4_RNS_8ios_baseEwd                                                                                         
0000c629  _ZNKSt3__27num_putIwNS_19ostreambuf_iteratorIwNS_11char_traitsIwEEEEE6do_putES4_RNS_8ios_baseEwe                                                                                         
0000f6ad  _ZNKSt3__27num_putIwNS_19ostreambuf_iteratorIwNS_11char_traitsIwEEEEE6do_putES4_RNS_8ios_baseEwl                                                                                         
0000f76d  _ZNKSt3__27num_putIwNS_19ostreambuf_iteratorIwNS_11char_traitsIwEEEEE6do_putES4_RNS_8ios_baseEwm                                                                                         
0000f085  _ZNKSt3__27num_putIwNS_19ostreambuf_iteratorIwNS_11char_traitsIwEEEEE6do_putES4_RNS_8ios_baseEwx                                                                                         
0000f3a5  _ZNKSt3__27num_putIwNS_19ostreambuf_iteratorIwNS_11char_traitsIwEEEEE6do_putES4_RNS_8ios_baseEwy                                                                                         
00016157  _ZNKSt3__28ios_base5flagsEv                                                                                                                                                              
00016165  _ZNKSt3__28ios_base5widthEv                                                                                                                                                              
000167af  _ZNKSt3__28ios_base6getlocEv                                                                                                                                                             
000167b5  _ZNKSt3__28messagesIcE6do_getEiiiRKNS_12basic_stringIcNS_11char_traitsIcEENS_9allocatorIcEEEE                                                                                            
000167bb  _ZNKSt3__28messagesIcE7do_openERKNS_12basic_stringIcNS_11char_traitsIcEENS_9allocatorIcEEEERKNS_6localeE                                                                                 
000020af  _ZNKSt3__28messagesIcE8do_closeEi                                                                                                                                                        
000167c1  _ZNKSt3__28messagesIwE6do_getEiiiRKNS_12basic_stringIwNS_11char_traitsIwEENS_9allocatorIwEEEE                                                                                            
000167c7  _ZNKSt3__28messagesIwE7do_openERKNS_12basic_stringIcNS_11char_traitsIcEENS_9allocatorIcEEEERKNS_6localeE                                                                                 
00006237  _ZNKSt3__28messagesIwE8do_closeEi                                                                                                                                                        
000167cd  _ZNKSt3__28numpunctIcE11do_groupingEv                                                                                                                                                    
0001511d  _ZNKSt3__28numpunctIcE11do_truenameEv                                                                                                                                                    
00014d01  _ZNKSt3__28numpunctIcE12do_falsenameEv                                                                                                                                                   
000166cf  _ZNKSt3__28numpunctIcE13thousands_sepEv                                                                                                                                                  
0001688b  _ZNKSt3__28numpunctIcE16do_decimal_pointEv                                                                                                                                               
0001688f  _ZNKSt3__28numpunctIcE16do_thousands_sepEv                                                                                                                                               
000166d9  _ZNKSt3__28numpunctIcE8groupingEv                                                                                                                                                        
000166e3  _ZNKSt3__28numpunctIcE9falsenameEv                                                                                                                                                       
000167d3  _ZNKSt3__28numpunctIwE11do_groupingEv                                                                                                                                                    
00010b75  _ZNKSt3__28numpunctIwE11do_truenameEv                                                                                                                                                    
00010c01  _ZNKSt3__28numpunctIwE12do_falsenameEv                                                                                                                                                   
000166ed  _ZNKSt3__28numpunctIwE13thousands_sepEv                                                                                                                                                  
00016893  _ZNKSt3__28numpunctIwE16do_decimal_pointEv                                                                                                                                               
00016897  _ZNKSt3__28numpunctIwE16do_thousands_sepEv                                                                                                                                               
000166f7  _ZNKSt3__28numpunctIwE8groupingEv                                                                                                                                                        
00016701  _ZNKSt3__28numpunctIwE9falsenameEv                                                                                                                                                       
00014831  _ZNKSt3__28time_getIcNS_19istreambuf_iteratorIcNS_11char_traitsIcEEEEE10__get_hourERiRS4_S4_RjRKNS_5ctypeIcEE                                                                            
00014055  _ZNKSt3__28time_getIcNS_19istreambuf_iteratorIcNS_11char_traitsIcEEEEE10__get_yearERiRS4_S4_RjRKNS_5ctypeIcEE                                                                            
000111a3  _ZNKSt3__28time_getIcNS_19istreambuf_iteratorIcNS_11char_traitsIcEEEEE11__get_am_pmERiRS4_S4_RjRKNS_5ctypeIcEE                                                                           
000145c3  _ZNKSt3__28time_getIcNS_19istreambuf_iteratorIcNS_11char_traitsIcEEEEE11__get_monthERiRS4_S4_RjRKNS_5ctypeIcEE                                                                           
00014d27  _ZNKSt3__28time_getIcNS_19istreambuf_iteratorIcNS_11char_traitsIcEEEEE11__get_year4ERiRS4_S4_RjRKNS_5ctypeIcEE                                                                           
00012e4f  _ZNKSt3__28time_getIcNS_19istreambuf_iteratorIcNS_11char_traitsIcEEEEE11do_get_dateES4_S4_RNS_8ios_baseERjP2tm                                                                           
00014395  _ZNKSt3__28time_getIcNS_19istreambuf_iteratorIcNS_11char_traitsIcEEEEE11do_get_timeES4_S4_RNS_8ios_baseERjP2tm                                                                           
00013a9d  _ZNKSt3__28time_getIcNS_19istreambuf_iteratorIcNS_11char_traitsIcEEEEE11do_get_yearES4_S4_RNS_8ios_baseERjP2tm                                                                           
0001485f  _ZNKSt3__28time_getIcNS_19istreambuf_iteratorIcNS_11char_traitsIcEEEEE12__get_minuteERiRS4_S4_RjRKNS_5ctypeIcEE                                                                          
0001488d  _ZNKSt3__28time_getIcNS_19istreambuf_iteratorIcNS_11char_traitsIcEEEEE12__get_secondERiRS4_S4_RjRKNS_5ctypeIcEE                                                                          
000144cb  _ZNKSt3__28time_getIcNS_19istreambuf_iteratorIcNS_11char_traitsIcEEEEE13__get_12_hourERiRS4_S4_RjRKNS_5ctypeIcEE                                                                         
00012291  _ZNKSt3__28time_getIcNS_19istreambuf_iteratorIcNS_11char_traitsIcEEEEE13__get_percentERS4_S4_RjRKNS_5ctypeIcEE                                                                           
000148bb  _ZNKSt3__28time_getIcNS_19istreambuf_iteratorIcNS_11char_traitsIcEEEEE13__get_weekdayERiRS4_S4_RjRKNS_5ctypeIcEE                                                                         
0001689b  _ZNKSt3__28time_getIcNS_19istreambuf_iteratorIcNS_11char_traitsIcEEEEE13do_date_orderEv                                                                                                  
00013add  _ZNKSt3__28time_getIcNS_19istreambuf_iteratorIcNS_11char_traitsIcEEEEE14do_get_weekdayES4_S4_RNS_8ios_baseERjP2tm                                                                        
00013611  _ZNKSt3__28time_getIcNS_19istreambuf_iteratorIcNS_11char_traitsIcEEEEE15__get_monthnameERiRS4_S4_RjRKNS_5ctypeIcEE                                                                       
00013b1d  _ZNKSt3__28time_getIcNS_19istreambuf_iteratorIcNS_11char_traitsIcEEEEE16do_get_monthnameES4_S4_RNS_8ios_baseERjP2tm                                                                      
00013657  _ZNKSt3__28time_getIcNS_19istreambuf_iteratorIcNS_11char_traitsIcEEEEE17__get_weekdaynameERiRS4_S4_RjRKNS_5ctypeIcEE                                                                     
00012da1  _ZNKSt3__28time_getIcNS_19istreambuf_iteratorIcNS_11char_traitsIcEEEEE17__get_white_spaceERS4_S4_RjRKNS_5ctypeIcEE                                                                       
000145f3  _ZNKSt3__28time_getIcNS_19istreambuf_iteratorIcNS_11char_traitsIcEEEEE18__get_day_year_numERiRS4_S4_RjRKNS_5ctypeIcEE                                                                    
0000b571  _ZNKSt3__28time_getIcNS_19istreambuf_iteratorIcNS_11char_traitsIcEEEEE3getES4_S4_RNS_8ios_baseERjP2tmPKcSC_                                                                              
00005705  _ZNKSt3__28time_getIcNS_19istreambuf_iteratorIcNS_11char_traitsIcEEEEE6do_getES4_S4_RNS_8ios_baseERjP2tmcc                                                                               
000144fd  _ZNKSt3__28time_getIcNS_19istreambuf_iteratorIcNS_11char_traitsIcEEEEE9__get_dayERiRS4_S4_RjRKNS_5ctypeIcEE                                                                              
000148e9  _ZNKSt3__28time_getIwNS_19istreambuf_iteratorIwNS_11char_traitsIwEEEEE10__get_hourERiRS4_S4_RjRKNS_5ctypeIwEE                                                                            
0001408d  _ZNKSt3__28time_getIwNS_19istreambuf_iteratorIwNS_11char_traitsIwEEEEE10__get_yearERiRS4_S4_RjRKNS_5ctypeIwEE                                                                            
0001121f  _ZNKSt3__28time_getIwNS_19istreambuf_iteratorIwNS_11char_traitsIwEEEEE11__get_am_pmERiRS4_S4_RjRKNS_5ctypeIwEE                                                                           
00014623  _ZNKSt3__28time_getIwNS_19istreambuf_iteratorIwNS_11char_traitsIwEEEEE11__get_monthERiRS4_S4_RjRKNS_5ctypeIwEE                                                                           
00014d4d  _ZNKSt3__28time_getIwNS_19istreambuf_iteratorIwNS_11char_traitsIwEEEEE11__get_year4ERiRS4_S4_RjRKNS_5ctypeIwEE                                                                           
00012c3b  _ZNKSt3__28time_getIwNS_19istreambuf_iteratorIwNS_11char_traitsIwEEEEE11do_get_dateES4_S4_RNS_8ios_baseERjP2tm                                                                           
00013b5d  _ZNKSt3__28time_getIwNS_19istreambuf_iteratorIwNS_11char_traitsIwEEEEE11do_get_timeES4_S4_RNS_8ios_baseERjP2tm                                                                           
00013b9d  _ZNKSt3__28time_getIwNS_19istreambuf_iteratorIwNS_11char_traitsIwEEEEE11do_get_yearES4_S4_RNS_8ios_baseERjP2tm                                                                           
00014917  _ZNKSt3__28time_getIwNS_19istreambuf_iteratorIwNS_11char_traitsIwEEEEE12__get_minuteERiRS4_S4_RjRKNS_5ctypeIwEE                                                                          
00014945  _ZNKSt3__28time_getIwNS_19istreambuf_iteratorIwNS_11char_traitsIwEEEEE12__get_secondERiRS4_S4_RjRKNS_5ctypeIwEE                                                                          
0001452f  _ZNKSt3__28time_getIwNS_19istreambuf_iteratorIwNS_11char_traitsIwEEEEE13__get_12_hourERiRS4_S4_RjRKNS_5ctypeIwEE                                                                         
000122f9  _ZNKSt3__28time_getIwNS_19istreambuf_iteratorIwNS_11char_traitsIwEEEEE13__get_percentERS4_S4_RjRKNS_5ctypeIwEE                                                                           
00014973  _ZNKSt3__28time_getIwNS_19istreambuf_iteratorIwNS_11char_traitsIwEEEEE13__get_weekdayERiRS4_S4_RjRKNS_5ctypeIwEE                                                                         
0001689f  _ZNKSt3__28time_getIwNS_19istreambuf_iteratorIwNS_11char_traitsIwEEEEE13do_date_orderEv                                                                                                  
00013bdd  _ZNKSt3__28time_getIwNS_19istreambuf_iteratorIwNS_11char_traitsIwEEEEE14do_get_weekdayES4_S4_RNS_8ios_baseERjP2tm                                                                        
0001369d  _ZNKSt3__28time_getIwNS_19istreambuf_iteratorIwNS_11char_traitsIwEEEEE15__get_monthnameERiRS4_S4_RjRKNS_5ctypeIwEE                                                                       
00013c1d  _ZNKSt3__28time_getIwNS_19istreambuf_iteratorIwNS_11char_traitsIwEEEEE16do_get_monthnameES4_S4_RNS_8ios_baseERjP2tm                                                                      
000136e3  _ZNKSt3__28time_getIwNS_19istreambuf_iteratorIwNS_11char_traitsIwEEEEE17__get_weekdaynameERiRS4_S4_RjRKNS_5ctypeIwEE                                                                     
00012c95  _ZNKSt3__28time_getIwNS_19istreambuf_iteratorIwNS_11char_traitsIwEEEEE17__get_white_spaceERS4_S4_RjRKNS_5ctypeIwEE                                                                       
00014653  _ZNKSt3__28time_getIwNS_19istreambuf_iteratorIwNS_11char_traitsIwEEEEE18__get_day_year_numERiRS4_S4_RjRKNS_5ctypeIwEE                                                                    
0000b259  _ZNKSt3__28time_getIwNS_19istreambuf_iteratorIwNS_11char_traitsIwEEEEE3getES4_S4_RNS_8ios_baseERjP2tmPKwSC_                                                                              
00005a01  _ZNKSt3__28time_getIwNS_19istreambuf_iteratorIwNS_11char_traitsIwEEEEE6do_getES4_S4_RNS_8ios_baseERjP2tmcc                                                                               
00014561  _ZNKSt3__28time_getIwNS_19istreambuf_iteratorIwNS_11char_traitsIwEEEEE9__get_dayERiRS4_S4_RjRKNS_5ctypeIwEE                                                                              
000125d1  _ZNKSt3__28time_putIcNS_19ostreambuf_iteratorIcNS_11char_traitsIcEEEEE6do_putES4_RNS_8ios_baseEcPK2tmcc                                                                                  
00012361  _ZNKSt3__28time_putIwNS_19ostreambuf_iteratorIwNS_11char_traitsIwEEEEE6do_putES4_RNS_8ios_baseEwPK2tmcc                                                                                  
000140c5  _ZNKSt3__29basic_iosIcNS_11char_traitsIcEEE4fillEv                                                                                                                                       
000168a3  _ZNKSt3__29basic_iosIcNS_11char_traitsIcEEE5rdbufEv                                                                                                                                      
00006745  _ZNKSt3__29money_getIcNS_19istreambuf_iteratorIcNS_11char_traitsIcEEEEE6do_getES4_S4_bRNS_8ios_baseERjRNS_12basic_stringIcS3_NS_9allocatorIcEEEE                                         
0000b879  _ZNKSt3__29money_getIcNS_19istreambuf_iteratorIcNS_11char_traitsIcEEEEE6do_getES4_S4_bRNS_8ios_baseERjRe                                                                                 
00007355  _ZNKSt3__29money_getIwNS_19istreambuf_iteratorIwNS_11char_traitsIwEEEEE6do_getES4_S4_bRNS_8ios_baseERjRNS_12basic_stringIwS3_NS_9allocatorIwEEEE                                         
0000cb21  _ZNKSt3__29money_getIwNS_19istreambuf_iteratorIwNS_11char_traitsIwEEEEE6do_getES4_S4_bRNS_8ios_baseERjRe                                                                                 
00007bcd  _ZNKSt3__29money_putIcNS_19ostreambuf_iteratorIcNS_11char_traitsIcEEEEE6do_putES4_bRNS_8ios_baseEcRKNS_12basic_stringIcS3_NS_9allocatorIcEEEE                                            
0000759d  _ZNKSt3__29money_putIcNS_19ostreambuf_iteratorIcNS_11char_traitsIcEEEEE6do_putES4_bRNS_8ios_baseEce                                                                                      
000079d5  _ZNKSt3__29money_putIwNS_19ostreambuf_iteratorIwNS_11char_traitsIwEEEEE6do_putES4_bRNS_8ios_baseEwRKNS_12basic_stringIwS3_NS_9allocatorIwEEEE                                            
00007105  _ZNKSt3__29money_putIwNS_19ostreambuf_iteratorIwNS_11char_traitsIwEEEEE6do_putES4_bRNS_8ios_baseEwe                                                                                      
00013e15  _ZNSt3__210__stdinbufIcE5imbueERKNS_6localeE                                                                                                                                             
000167d9  _ZNSt3__210__stdinbufIcE5uflowEv                                                                                                                                                         
0000d8f1  _ZNSt3__210__stdinbufIcE9__getcharEb                                                                                                                                                     
0000fc71  _ZNSt3__210__stdinbufIcE9pbackfailEi                                                                                                                                                     
000167df  _ZNSt3__210__stdinbufIcE9underflowEv                                                                                                                                                     
0001394d  _ZNSt3__210__stdinbufIcEC1EP7__sFILEPi                                                                                                                                                   
00016173  _ZNSt3__210__stdinbufIcED0Ev                                                                                                                                                             
000168a7  _ZNSt3__210__stdinbufIcED1Ev                                                                                                                                                             
000140fd  _ZNSt3__210__stdinbufIwE5imbueERKNS_6localeE                                                                                                                                             
000167e5  _ZNSt3__210__stdinbufIwE5uflowEv                                                                                                                                                         
0000d5b5  _ZNSt3__210__stdinbufIwE9__getcharEb                                                                                                                                                     
0000fbc1  _ZNSt3__210__stdinbufIwE9pbackfailEi                                                                                                                                                     
000167eb  _ZNSt3__210__stdinbufIwE9underflowEv                                                                                                                                                     
00013991  _ZNSt3__210__stdinbufIwEC1EP7__sFILEPi                                                                                                                                                   
00016181  _ZNSt3__210__stdinbufIwED0Ev                                                                                                                                                             
000168ab  _ZNSt3__210__stdinbufIwED1Ev                                                                                                                                                             
000159e5  _ZNSt3__210__time_putD1Ev                                                                                                                                                                
000159e5  _ZNSt3__210__time_putD2Ev                                                                                                                                                                
200213ec  _ZNSt3__210moneypunctIcLb0EE2idE                                                                                                                                                         
0001618f  _ZNSt3__210moneypunctIcLb0EED0Ev                                                                                                                                                         
000168af  _ZNSt3__210moneypunctIcLb0EED1Ev                                                                                                                                                         
200213f4  _ZNSt3__210moneypunctIcLb1EE2idE                                                                                                                                                         
0001619d  _ZNSt3__210moneypunctIcLb1EED0Ev                                                                                                                                                         
000168b3  _ZNSt3__210moneypunctIcLb1EED1Ev                                                                                                                                                         
200213fc  _ZNSt3__210moneypunctIwLb0EE2idE                                                                                                                                                         
000161ab  _ZNSt3__210moneypunctIwLb0EED0Ev                                                                                                                                                         
000168b7  _ZNSt3__210moneypunctIwLb0EED1Ev                                                                                                                                                         
20021404  _ZNSt3__210moneypunctIwLb1EE2idE                                                                                                                                                         
000161b9  _ZNSt3__210moneypunctIwLb1EED0Ev                                                                                                                                                         
000168bb  _ZNSt3__210moneypunctIwLb1EED1Ev                                                                                                                                                         
00014a2b  _ZNSt3__210unique_ptrI10RingBufferI6ISRMsgENS_14default_deleteIS3_EEE5resetEPS3_                                                                                                         
000159fd  _ZNSt3__210unique_ptrI10RingBufferI6ISRMsgENS_14default_deleteIS3_EEEC1ILb1EvEEv                                                                                                         
00014a57  _ZNSt3__210unique_ptrI10RingBufferIcENS_14default_deleteIS2_EEE5resetEPS2_                                                                                                               
00015a15  _ZNSt3__210unique_ptrI10RingBufferIcENS_14default_deleteIS2_EEEC1ILb1EvEEv                                                                                                               
00014a83  _ZNSt3__210unique_ptrIA_6ISRMsgNS_14default_deleteIS2_EEE5resetEDn                                                                                                                       
00015e21  _ZNSt3__210unique_ptrIA_6ISRMsgNS_14default_deleteIS2_EEEC1IPS1_Lb1EvvEET_                                                                                                               
00015fd1  _ZNSt3__210unique_ptrIA_6ISRMsgNS_14default_deleteIS2_EEED1Ev                                                                                                                            
00014aaf  _ZNSt3__210unique_ptrIA_cNS_14default_deleteIS1_EEE5resetEDn                                                                                                                             
00015e33  _ZNSt3__210unique_ptrIA_cNS_14default_deleteIS1_EEEC1IPcLb1EvvEET_                                                                                                                       
00015fe1  _ZNSt3__210unique_ptrIA_cNS_14default_deleteIS1_EEED1Ev                                                                                                                                  
00015ff1  _ZNSt3__210unique_ptrIcPFvPvEE5resetEPc                                                                                                                                                  
00016001  _ZNSt3__210unique_ptrIhPFvPvEE5resetEPh                                                                                                                                                  
00016011  _ZNSt3__210unique_ptrIwPFvPvEE5resetEPw                                                                                                                                                  
00015a2d  _ZNSt3__211__call_onceERVmPvPFvS2_E                                                                                                                                                      
00004915  _ZNSt3__211__money_getIcE13__gather_infoEbRKNS_6localeERNS_10money_base7patternERcS8_RNS_12basic_stringIcNS_11char_traitsIcEENS_9allocatorIcEEEESF_SF_SF_Ri                              
00004cc5  _ZNSt3__211__money_getIwE13__gather_infoEbRKNS_6localeERNS_10money_base7patternERwS8_RNS_12basic_stringIcNS_11char_traitsIcEENS_9allocatorIcEEEERNS9_IwNSA_IwEENSC_IwEEEESJ_SJ_Ri        
00005075  _ZNSt3__211__money_putIcE13__gather_infoEbbRKNS_6localeERNS_10money_base7patternERcS8_RNS_12basic_stringIcNS_11char_traitsIcEENS_9allocatorIcEEEESF_SF_Ri                                
00005f9d  _ZNSt3__211__money_putIcE8__formatEPcRS2_S3_jPKcS5_RKNS_5ctypeIcEEbRKNS_10money_base7patternEccRKNS_12basic_stringIcNS_11char_traitsIcEENS_9allocatorIcEEEESL_SL_i                       
000053bd  _ZNSt3__211__money_putIwE13__gather_infoEbbRKNS_6localeERNS_10money_base7patternERwS8_RNS_12basic_stringIcNS_11char_traitsIcEENS_9allocatorIcEEEERNS9_IwNSA_IwEENSC_IwEEEESJ_Ri          
00005cf9  _ZNSt3__211__money_putIwE8__formatEPwRS2_S3_jPKwS5_RKNS_5ctypeIwEEbRKNS_10money_base7patternEwwRKNS_12basic_stringIcNS_11char_traitsIcEENS_9allocatorIcEEEERKNSE_IwNSF_IwEENSH_IwEEEESQ_i
00013091  _ZNSt3__211__stdoutbufIcE4syncEv                                                                                                                                                         
00014add  _ZNSt3__211__stdoutbufIcE5imbueERKNS_6localeE                                                                                                                                            
00013729  _ZNSt3__211__stdoutbufIcE6xsputnEPKci                                                                                                                                                    
0000f9a9  _ZNSt3__211__stdoutbufIcE8overflowEi                                                                                                                                                     
000134f1  _ZNSt3__211__stdoutbufIcEC1EP7__sFILEPi                                                                                                                                                  
000161c7  _ZNSt3__211__stdoutbufIcED0Ev                                                                                                                                                            
000168bf  _ZNSt3__211__stdoutbufIcED1Ev                                                                                                                                                            
000130dd  _ZNSt3__211__stdoutbufIwE4syncEv                                                                                                                                                         
00014b09  _ZNSt3__211__stdoutbufIwE5imbueERKNS_6localeE                                                                                                                                            
0001376f  _ZNSt3__211__stdoutbufIwE6xsputnEPKwi                                                                                                                                                    
0000f8ed  _ZNSt3__211__stdoutbufIwE8overflowEi                                                                                                                                                     
00013539  _ZNSt3__211__stdoutbufIwEC1EP7__sFILEPi                                                                                                                                                  
000161d5  _ZNSt3__211__stdoutbufIwED0Ev                                                                                                                                                            
000168c3  _ZNSt3__211__stdoutbufIwED1Ev                                                                                                                                                            
00016021  _ZNSt3__211char_traitsIcE11to_int_typeEc                                                                                                                                                 
000156e3  _ZNSt3__211char_traitsIcE4copyEPcPKcj                                                                                                                                                    
00016749  _ZNSt3__211char_traitsIcE4moveEPcPKcj                                                                                                                                                    
00014d73  _ZNSt3__211char_traitsIcE6assignEPcjc                                                                                                                                                    
00015d6d  _ZNSt3__211char_traitsIcE6assignERcRKc                                                                                                                                                   
00016491  _ZNSt3__211char_traitsIcE6lengthEPKc                                                                                                                                                     
000156ff  _ZNSt3__211char_traitsIcE7compareEPKcS3_j                                                                                                                                                
00016751  _ZNSt3__211char_traitsIwE4copyEPwPKwj                                                                                                                                                    
00016759  _ZNSt3__211char_traitsIwE4moveEPwPKwj                                                                                                                                                    
000167f1  _ZNSt3__211char_traitsIwE6assignERwRKw                                                                                                                                                   
000168c7  _ZNSt3__211char_traitsIwE6lengthEPKw                                                                                                                                                     
00009937  _ZNSt3__212__do_nothingEPv                                                                                                                                                               
0000e019  _ZNSt3__212basic_stringIcNS_11char_traitsIcEENS_9allocatorIcEEE21__grow_by_and_replaceEjjjjjjPKc                                                                                         
00011b1f  _ZNSt3__212basic_stringIcNS_11char_traitsIcEENS_9allocatorIcEEE6__initEPKcj                                                                                                              
00011b93  _ZNSt3__212basic_stringIcNS_11char_traitsIcEENS_9allocatorIcEEE6__initEPKcjj                                                                                                             
00011c07  _ZNSt3__212basic_stringIcNS_11char_traitsIcEENS_9allocatorIcEEE6__initEjc                                                                                                                
00015a45  _ZNSt3__212basic_stringIcNS_11char_traitsIcEENS_9allocatorIcEEE6appendEPKc                                                                                                               
0000fdc1  _ZNSt3__212basic_stringIcNS_11char_traitsIcEENS_9allocatorIcEEE6appendEPKcj                                                                                                              
00014b35  _ZNSt3__212basic_stringIcNS_11char_traitsIcEENS_9allocatorIcEEE6appendERKS5_                                                                                                             
00010181  _ZNSt3__212basic_stringIcNS_11char_traitsIcEENS_9allocatorIcEEE6appendEjc                                                                                                                
00015a5d  _ZNSt3__212basic_stringIcNS_11char_traitsIcEENS_9allocatorIcEEE6assignEPKc                                                                                                               
000105b5  _ZNSt3__212basic_stringIcNS_11char_traitsIcEENS_9allocatorIcEEE6assignEPKcj                                                                                                              
0001571b  _ZNSt3__212basic_stringIcNS_11char_traitsIcEENS_9allocatorIcEEE6insertEjPKc                                                                                                              
0000e911  _ZNSt3__212basic_stringIcNS_11char_traitsIcEENS_9allocatorIcEEE6insertEjPKcj                                                                                                             
00011a33  _ZNSt3__212basic_stringIcNS_11char_traitsIcEENS_9allocatorIcEEE6resizeEjc                                                                                                                
0000df27  _ZNSt3__212basic_stringIcNS_11char_traitsIcEENS_9allocatorIcEEE7reserveEj                                                                                                                
0000f82d  _ZNSt3__212basic_stringIcNS_11char_traitsIcEENS_9allocatorIcEEE9__grow_byEjjjjjj                                                                                                         
0000ff09  _ZNSt3__212basic_stringIcNS_11char_traitsIcEENS_9allocatorIcEEE9push_backEc                                                                                                              
00014ee5  _ZNSt3__212basic_stringIcNS_11char_traitsIcEENS_9allocatorIcEEEC1EOS5_                                                                                                                   
00015469  _ZNSt3__212basic_stringIcNS_11char_traitsIcEENS_9allocatorIcEEEC1EPKc                                                                                                                    
00013129  _ZNSt3__212basic_stringIcNS_11char_traitsIcEENS_9allocatorIcEEEC1ERKS5_                                                                                                                  
00015a75  _ZNSt3__212basic_stringIcNS_11char_traitsIcEENS_9allocatorIcEEEC1Ejc                                                                                                                     
00015487  _ZNSt3__212basic_stringIcNS_11char_traitsIcEENS_9allocatorIcEEEC1Ev                                                                                                                      
0001517f  _ZNSt3__212basic_stringIcNS_11char_traitsIcEENS_9allocatorIcEEED1Ev                                                                                                                      
0001148d  _ZNSt3__212basic_stringIcNS_11char_traitsIcEENS_9allocatorIcEEEaSEOS5_                                                                                                                   
00014d99  _ZNSt3__212basic_stringIcNS_11char_traitsIcEENS_9allocatorIcEEEixEj                                                                                                                      
0001649d  _ZNSt3__212basic_stringIcNS_11char_traitsIcEENS_9allocatorIcEEEpLEc                                                                                                                      
0000dc21  _ZNSt3__212basic_stringIwNS_11char_traitsIwEENS_9allocatorIwEEE21__grow_by_and_replaceEjjjjjjPKw                                                                                         
0001080d  _ZNSt3__212basic_stringIwNS_11char_traitsIwEENS_9allocatorIwEEE6__initEPKwj                                                                                                              
0000fe65  _ZNSt3__212basic_stringIwNS_11char_traitsIwEENS_9allocatorIwEEE6appendEPKwj                                                                                                              
00015a8d  _ZNSt3__212basic_stringIwNS_11char_traitsIwEENS_9allocatorIwEEE6assignEPKw                                                                                                               
0001051d  _ZNSt3__212basic_stringIwNS_11char_traitsIwEENS_9allocatorIwEEE6assignEPKwj                                                                                                              
0000d6c9  _ZNSt3__212basic_stringIwNS_11char_traitsIwEENS_9allocatorIwEEE7reserveEj                                                                                                                
0000e9ed  _ZNSt3__212basic_stringIwNS_11char_traitsIwEENS_9allocatorIwEEE9__grow_byEjjjjjj                                                                                                         
0000ffa9  _ZNSt3__212basic_stringIwNS_11char_traitsIwEENS_9allocatorIwEEE9push_backEw                                                                                                              
00013175  _ZNSt3__212basic_stringIwNS_11char_traitsIwEENS_9allocatorIwEEEC1ERKS5_                                                                                                                  
000154a5  _ZNSt3__212basic_stringIwNS_11char_traitsIwEENS_9allocatorIwEEEC1Ev                                                                                                                      
0001519f  _ZNSt3__212basic_stringIwNS_11char_traitsIwEENS_9allocatorIwEEED1Ev                                                                                                                      
000161e3  _ZNSt3__213basic_istreamIcNS_11char_traitsIcEEED0Ev                                                                                                                                      
00015739  _ZNSt3__213basic_istreamIcNS_11char_traitsIcEEED1Ev                                                                                                                                      
00015d81  _ZNSt3__213basic_istreamIcNS_11char_traitsIcEEED2Ev                                                                                                                                      
000161f1  _ZNSt3__213basic_istreamIwNS_11char_traitsIwEEED0Ev                                                                                                                                      
00015755  _ZNSt3__213basic_istreamIwNS_11char_traitsIwEEED1Ev                                                                                                                                      
00015d95  _ZNSt3__213basic_istreamIwNS_11char_traitsIwEEED2Ev                                                                                                                                      
00012fa1  _ZNSt3__213basic_ostreamIcNS_11char_traitsIcEEE5flushEv                                                                                                                                  
000131c1  _ZNSt3__213basic_ostreamIcNS_11char_traitsIcEEE6sentryC1ERS3_                                                                                                                            
0001129b  _ZNSt3__213basic_ostreamIcNS_11char_traitsIcEEE6sentryD1Ev                                                                                                                               
000161ff  _ZNSt3__213basic_ostreamIcNS_11char_traitsIcEEED0Ev                                                                                                                                      
00015771  _ZNSt3__213basic_ostreamIcNS_11char_traitsIcEEED1Ev                                                                                                                                      
00015e45  _ZNSt3__213basic_ostreamIcNS_11char_traitsIcEEED2Ev                                                                                                                                      
0000f151  _ZNSt3__213basic_ostreamIcNS_11char_traitsIcEEElsEi                                                                                                                                      
0000f219  _ZNSt3__213basic_ostreamIcNS_11char_traitsIcEEElsEt                                                                                                                                      
00012ff1  _ZNSt3__213basic_ostreamIwNS_11char_traitsIwEEE5flushEv                                                                                                                                  
0001320d  _ZNSt3__213basic_ostreamIwNS_11char_traitsIwEEE6sentryC1ERS3_                                                                                                                            
00011317  _ZNSt3__213basic_ostreamIwNS_11char_traitsIwEEE6sentryD1Ev                                                                                                                               
0001620d  _ZNSt3__213basic_ostreamIwNS_11char_traitsIwEEED0Ev                                                                                                                                      
0001578d  _ZNSt3__213basic_ostreamIwNS_11char_traitsIwEEED1Ev                                                                                                                                      
00015e57  _ZNSt3__213basic_ostreamIwNS_11char_traitsIwEEED2Ev                                                                                                                                      
000150d7  _ZNSt3__214__num_get_base10__get_baseERNS_8ios_baseE                                                                                                                                     
00016b3a  _ZNSt3__214__num_get_base5__srcE                                                                                                                                                         
0001333d  _ZNSt3__214__num_put_base12__format_intEPcPKcbj                                                                                                                                          
00010f25  _ZNSt3__214__num_put_base14__format_floatEPcPKcj                                                                                                                                         
00013f01  _ZNSt3__214__num_put_base18__identify_paddingEPcS1_RKNS_8ios_baseE                                                                                                                       
00007dc1  _ZNSt3__214__scan_keywordINS_19istreambuf_iteratorIcNS_11char_traitsIcEEEEPKNS_12basic_stringIcS3_NS_9allocatorIcEEEENS_5ctypeIcEEEET0_RT_SE_SD_SD_RKT1_Rjb                              
00007fb1  _ZNSt3__214__scan_keywordINS_19istreambuf_iteratorIwNS_11char_traitsIwEEEEPKNS_12basic_stringIwS3_NS_9allocatorIwEEEENS_5ctypeIwEEEET0_RT_SE_SD_SD_RKT1_Rjb                              
00015883  _ZNSt3__214__shared_count16__release_sharedEv                                                                                                                                            
0000b257  _ZNSt3__214__shared_countD1Ev                                                                                                                                                            
0000b257  _ZNSt3__214__shared_countD2Ev                                                                                                                                                            
00013a5b  _ZNSt3__214__split_bufferIPNS_6locale5facetERNS_15__sso_allocatorIS3_Lj28EEEEC1EjjS6_                                                                                                    
000149a1  _ZNSt3__214__split_bufferIPNS_6locale5facetERNS_15__sso_allocatorIS3_Lj28EEEED1Ev                                                                                                        
00011c7d  _ZNSt3__215__num_get_floatIdEET_PKcS3_Rj                                                                                                                                                 
00011cf1  _ZNSt3__215__num_get_floatIeEET_PKcS3_Rj                                                                                                                                                 
00011765  _ZNSt3__215__num_get_floatIfEET_PKcS3_Rj                                                                                                                                                 
000168cb  _ZNSt3__215basic_streambufIcNS_11char_traitsIcEEE4syncEv                                                                                                                                 
0000b877  _ZNSt3__215basic_streambufIcNS_11char_traitsIcEEE5imbueERKNS_6localeE                                                                                                                    
00015c33  _ZNSt3__215basic_streambufIcNS_11char_traitsIcEEE5sgetcEv                                                                                                                                
0001670b  _ZNSt3__215basic_streambufIcNS_11char_traitsIcEEE5sputnEPKci                                                                                                                             
00014f09  _ZNSt3__215basic_streambufIcNS_11char_traitsIcEEE5uflowEv                                                                                                                                
0000c8a7  _ZNSt3__215basic_streambufIcNS_11char_traitsIcEEE6setbufEPci                                                                                                                             
00011d65  _ZNSt3__215basic_streambufIcNS_11char_traitsIcEEE6xsgetnEPci                                                                                                                             
00012701  _ZNSt3__215basic_streambufIcNS_11char_traitsIcEEE6xsputnEPKci                                                                                                                            
000154c3  _ZNSt3__215basic_streambufIcNS_11char_traitsIcEEE7seekoffExNS_8ios_base7seekdirEj                                                                                                        
00014c0d  _ZNSt3__215basic_streambufIcNS_11char_traitsIcEEE7seekposENS_4fposIiEEj                                                                                                                  
000167f7  _ZNSt3__215basic_streambufIcNS_11char_traitsIcEEE8overflowEi                                                                                                                             
000167fd  _ZNSt3__215basic_streambufIcNS_11char_traitsIcEEE9pbackfailEi                                                                                                                            
000168cf  _ZNSt3__215basic_streambufIcNS_11char_traitsIcEEE9showmanycEv                                                                                                                            
00016803  _ZNSt3__215basic_streambufIcNS_11char_traitsIcEEE9underflowEv                                                                                                                            
00014f2d  _ZNSt3__215basic_streambufIcNS_11char_traitsIcEEEC1Ev                                                                                                                                    
000168d3  _ZNSt3__215basic_streambufIcNS_11char_traitsIcEEEC2Ev                                                                                                                                    
0001621b  _ZNSt3__215basic_streambufIcNS_11char_traitsIcEEED0Ev                                                                                                                                    
00016229  _ZNSt3__215basic_streambufIcNS_11char_traitsIcEEED1Ev                                                                                                                                    
000168d7  _ZNSt3__215basic_streambufIcNS_11char_traitsIcEEED2Ev                                                                                                                                    
000168db  _ZNSt3__215basic_streambufIwNS_11char_traitsIwEEE4syncEv                                                                                                                                 
0000cecf  _ZNSt3__215basic_streambufIwNS_11char_traitsIwEEE5imbueERKNS_6localeE                                                                                                                    
00015c49  _ZNSt3__215basic_streambufIwNS_11char_traitsIwEEE5sgetcEv                                                                                                                                
00014f51  _ZNSt3__215basic_streambufIwNS_11char_traitsIwEEE5uflowEv                                                                                                                                
0000e1f7  _ZNSt3__215basic_streambufIwNS_11char_traitsIwEEE6setbufEPwi                                                                                                                             
000117dd  _ZNSt3__215basic_streambufIwNS_11char_traitsIwEEE6xsgetnEPwi                                                                                                                             
000123c9  _ZNSt3__215basic_streambufIwNS_11char_traitsIwEEE6xsputnEPKwi                                                                                                                            
000154e1  _ZNSt3__215basic_streambufIwNS_11char_traitsIwEEE7seekoffExNS_8ios_base7seekdirEj                                                                                                        
00014c37  _ZNSt3__215basic_streambufIwNS_11char_traitsIwEEE7seekposENS_4fposIiEEj                                                                                                                  
00016809  _ZNSt3__215basic_streambufIwNS_11char_traitsIwEEE8overflowEi                                                                                                                             
0001680f  _ZNSt3__215basic_streambufIwNS_11char_traitsIwEEE9pbackfailEi                                                                                                                            
000168df  _ZNSt3__215basic_streambufIwNS_11char_traitsIwEEE9showmanycEv                                                                                                                            
00016815  _ZNSt3__215basic_streambufIwNS_11char_traitsIwEEE9underflowEv                                                                                                                            
00014f75  _ZNSt3__215basic_streambufIwNS_11char_traitsIwEEEC1Ev                                                                                                                                    
000168e3  _ZNSt3__215basic_streambufIwNS_11char_traitsIwEEEC2Ev                                                                                                                                    
00016237  _ZNSt3__215basic_streambufIwNS_11char_traitsIwEEED0Ev                                                                                                                                    
00016245  _ZNSt3__215basic_streambufIwNS_11char_traitsIwEEED1Ev                                                                                                                                    
000168e7  _ZNSt3__215basic_streambufIwNS_11char_traitsIwEEED2Ev                                                                                                                                    
00011dd9  _ZNSt3__216__check_groupingERKNS_12basic_stringIcNS_11char_traitsIcEENS_9allocatorIcEEEEPjS8_Rj                                                                                          
0000eb9d  _ZNSt3__216__pad_and_outputIcNS_11char_traitsIcEEEENS_19ostreambuf_iteratorIT_T0_EES6_PKS4_S8_S8_RNS_8ios_baseES4_                                                                       
0000d381  _ZNSt3__216__pad_and_outputIwNS_11char_traitsIwEEEENS_19ostreambuf_iteratorIT_T0_EES6_PKS4_S8_S8_RNS_8ios_baseES4_                                                                       
000151bf  _ZNSt3__217__call_once_proxyINS_5tupleIJONS_34_GLOBAL__N__10_locale_cpp_a718320311__fake_bindEEEEEEvPv                                                                                   
000164a9  _ZNSt3__217__compressed_pairIP10RingBufferI6ISRMsgENS_14default_deleteIS3_EEE5firstEv                                                                                                    
000164b5  _ZNSt3__217__compressed_pairIP10RingBufferI6ISRMsgENS_14default_deleteIS3_EEE6secondEv                                                                                                   
000164c1  _ZNSt3__217__compressed_pairIP10RingBufferIcENS_14default_deleteIS2_EEE5firstEv                                                                                                          
000164cd  _ZNSt3__217__compressed_pairIP10RingBufferIcENS_14default_deleteIS2_EEE6secondEv                                                                                                         
000164d9  _ZNSt3__217__compressed_pairIP6ISRMsgNS_14default_deleteIA_S1_EEE5firstEv                                                                                                                
000164e5  _ZNSt3__217__compressed_pairIP6ISRMsgNS_14default_deleteIA_S1_EEE6secondEv                                                                                                               
00015aa5  _ZNSt3__217__compressed_pairIP6ISRMsgNS_14default_deleteIA_S1_EEEC1IRS2_Lb1EEEOT_                                                                                                        
000164f1  _ZNSt3__217__compressed_pairIPcNS_14default_deleteIA_cEEE5firstEv                                                                                                                        
000164fd  _ZNSt3__217__compressed_pairIPcNS_14default_deleteIA_cEEE6secondEv                                                                                                                       
00015abd  _ZNSt3__217__compressed_pairIPcNS_14default_deleteIA_cEEEC1IRS1_Lb1EEEOT_                                                                                                                
000108a1  _ZNSt3__219__double_or_nothingIcEEvRNS_10unique_ptrIT_PFvPvEEERPS2_S9_                                                                                                                   
00010935  _ZNSt3__219__double_or_nothingIjEEvRNS_10unique_ptrIT_PFvPvEEERPS2_S9_                                                                                                                   
0000fd19  _ZNSt3__219__double_or_nothingIwEEvRNS_10unique_ptrIT_PFvPvEEERPS2_S9_                                                                                                                   
20020af4  _ZNSt3__219__start_std_streamsE                                                                                                                                                          
000151df  _ZNSt3__219istreambuf_iteratorIcNS_11char_traitsIcEEEppEv                                                                                                                                
000151ff  _ZNSt3__219istreambuf_iteratorIwNS_11char_traitsIwEEEppEv                                                                                                                                
00014dbf  _ZNSt3__219ostreambuf_iteratorIcNS_11char_traitsIcEEEC1ERNS_13basic_ostreamIcS2_EE                                                                                                       
00014683  _ZNSt3__219ostreambuf_iteratorIcNS_11char_traitsIcEEEaSEc                                                                                                                                
000146b3  _ZNSt3__219ostreambuf_iteratorIwNS_11char_traitsIwEEEaSEw                                                                                                                                
0000e4b9  _ZNSt3__220__get_up_to_n_digitsIcNS_19istreambuf_iteratorIcNS_11char_traitsIcEEEEEEiRT0_S5_RjRKNS_5ctypeIT_EEi                                                                           
0000e109  _ZNSt3__220__get_up_to_n_digitsIwNS_19istreambuf_iteratorIwNS_11char_traitsIwEEEEEEiRT0_S5_RjRKNS_5ctypeIT_EEi                                                                           
00016715  _ZNSt3__220__throw_length_errorEPKc                                                                                                                                                      
000168eb  _ZNSt3__220__throw_out_of_rangeEPKc                                                                                                                                                      
000168ef  _ZNSt3__221__throw_runtime_errorEPKc                                                                                                                                                     
00016509  _ZNSt3__222__compressed_pair_elemINS_12basic_stringIcNS_11char_traitsIcEENS_9allocatorIcEEE5__repELi0ELb0EE5__getEv                                                                      
00015e69  _ZNSt3__222__compressed_pair_elemINS_12basic_stringIcNS_11char_traitsIcEENS_9allocatorIcEEE5__repELi0ELb0EEC1Ev                                                                          
00016515  _ZNSt3__222__compressed_pair_elemINS_12basic_stringIcNS_11char_traitsIcEENS_9allocatorIcEEE5__repELi0ELb0EEC2Ev                                                                          
0000e9eb  _ZNSt3__222__compressed_pair_elemINS_12basic_stringIwNS_11char_traitsIwEENS_9allocatorIwEEE5__repELi0ELb0EE5__getEv                                                                      
00016031  _ZNSt3__222__compressed_pair_elemINS_12basic_stringIwNS_11char_traitsIwEENS_9allocatorIwEEE5__repELi0ELb0EEC1Ev                                                                          
000168f3  _ZNSt3__222__compressed_pair_elemINS_12basic_stringIwNS_11char_traitsIwEENS_9allocatorIwEEE5__repELi0ELb0EEC2Ev                                                                          
00016521  _ZNSt3__222__compressed_pair_elemINS_14default_deleteI10RingBufferI6ISRMsgEEELi1ELb1EE5__getEv                                                                                           
0001652d  _ZNSt3__222__compressed_pair_elemINS_14default_deleteI10RingBufferIcEEELi1ELb1EE5__getEv                                                                                                 
00016539  _ZNSt3__222__compressed_pair_elemINS_14default_deleteIA_6ISRMsgEELi1ELb1EE5__getEv                                                                                                       
00016545  _ZNSt3__222__compressed_pair_elemINS_14default_deleteIA_cEELi1ELb1EE5__getEv                                                                                                             
0000ec73  _ZNSt3__222__compressed_pair_elemINS_9allocatorIcEELi1ELb1EEC1IRKS2_vEEOT_                                                                                                               
0000fa5b  _ZNSt3__222__compressed_pair_elemINS_9allocatorIcEELi1ELb1EEC1IS2_vEEOT_                                                                                                                 
000168f7  _ZNSt3__222__compressed_pair_elemINS_9allocatorIcEELi1ELb1EEC2IRKS2_vEEOT_                                                                                                               
000168fb  _ZNSt3__222__compressed_pair_elemINS_9allocatorIcEELi1ELb1EEC2IS2_vEEOT_                                                                                                                 
0000fb0f  _ZNSt3__222__compressed_pair_elemINS_9allocatorIwEELi1ELb1EEC1IS2_vEEOT_                                                                                                                 
000168ff  _ZNSt3__222__compressed_pair_elemINS_9allocatorIwEELi1ELb1EEC2IS2_vEEOT_                                                                                                                 
00016551  _ZNSt3__222__compressed_pair_elemIP10RingBufferI6ISRMsgELi0ELb0EE5__getEv                                                                                                                
0001655d  _ZNSt3__222__compressed_pair_elemIP10RingBufferIcELi0ELb0EE5__getEv                                                                                                                      
00016569  _ZNSt3__222__compressed_pair_elemIP6ISRMsgLi0ELb0EE5__getEv                                                                                                                              
00015c5f  _ZNSt3__222__compressed_pair_elemIP6ISRMsgLi0ELb0EEC1IRS2_vEEOT_                                                                                                                         
00016041  _ZNSt3__222__compressed_pair_elemIP6ISRMsgLi0ELb0EEC2IRS2_vEEOT_                                                                                                                         
00016575  _ZNSt3__222__compressed_pair_elemIPcLi0ELb0EE5__getEv                                                                                                                                    
00015c75  _ZNSt3__222__compressed_pair_elemIPcLi0ELb0EEC1IRS1_vEEOT_                                                                                                                               
00016051  _ZNSt3__222__compressed_pair_elemIPcLi0ELb0EEC2IRS1_vEEOT_                                                                                                                               
0000f469  _ZNSt3__224__put_character_sequenceIcNS_11char_traitsIcEEEERNS_13basic_ostreamIT_T0_EES7_PKS4_j                                                                                          
0001064b  _ZNSt3__225__num_get_signed_integralIlEET_PKcS3_Rji                                                                                                                                      
000109c9  _ZNSt3__225__num_get_signed_integralIxEET_PKcS3_Rji                                                                                                                                      
00011507  _ZNSt3__227__num_get_unsigned_integralIjEET_PKcS3_Rji                                                                                                                                    
00011581  _ZNSt3__227__num_get_unsigned_integralImEET_PKcS3_Rji                                                                                                                                    
00011855  _ZNSt3__227__num_get_unsigned_integralItEET_PKcS3_Rji                                                                                                                                    
00011e4d  _ZNSt3__227__num_get_unsigned_integralIyEET_PKcS3_Rji                                                                                                                                    
00011393  _ZNSt3__234_GLOBAL__N__10_string_cpp_11932bae9as_stringINS_12basic_stringIcNS_11char_traitsIcEENS_9allocatorIcEEEEPFYiPcjPKczEiEET_T0_SD_PKNSD_10value_typeET1_                          
20020340  _ZNSt3__23cinE                                                                                                                                                                           
200201f0  _ZNSt3__24cerrE                                                                                                                                                                          
20020298  _ZNSt3__24clogE                                                                                                                                                                          
20020148  _ZNSt3__24coutE                                                                                                                                                                          
00016581  _ZNSt3__24moveIRNS_12basic_stringIcNS_11char_traitsIcEENS_9allocatorIcEEEEEEONS_16remove_referenceIT_E4typeEOS9_                                                                         
20020398  _ZNSt3__24wcinE                                                                                                                                                                          
00016761  _ZNSt3__25ctypeIcE13classic_tableEv                                                                                                                                                      
20020b8c  _ZNSt3__25ctypeIcE2idE                                                                                                                                                                   
00014f99  _ZNSt3__25ctypeIcEC1EPKhbj                                                                                                                                                               
00014f99  _ZNSt3__25ctypeIcEC2EPKhbj                                                                                                                                                               
00016253  _ZNSt3__25ctypeIcED0Ev                                                                                                                                                                   
00015ad5  _ZNSt3__25ctypeIcED1Ev                                                                                                                                                                   
00015ad5  _ZNSt3__25ctypeIcED2Ev                                                                                                                                                                   
20020b84  _ZNSt3__25ctypeIwE2idE                                                                                                                                                                   
00016261  _ZNSt3__25ctypeIwED0Ev                                                                                                                                                                   
00016903  _ZNSt3__25ctypeIwED1Ev                                                                                                                                                                   
00016903  _ZNSt3__25ctypeIwED2Ev                                                                                                                                                                   
20020244  _ZNSt3__25wcerrE                                                                                                                                                                         
200202ec  _ZNSt3__25wclogE                                                                                                                                                                         
2002019c  _ZNSt3__25wcoutE                                                                                                                                                                         
00014135  _ZNSt3__26__clocEv                                                                                                                                                                       
00013c5d  _ZNSt3__26locale2id5__getEv                                                                                                                                                              
00016061  _ZNSt3__26locale2id6__initEv                                                                                                                                                             
20020af8  _ZNSt3__26locale2id9__next_idE                                                                                                                                                           
00015aed  _ZNSt3__26locale5__imp11make_globalEv                                                                                                                                                    
000157a9  _ZNSt3__26locale5__imp12make_classicEv                                                                                                                                                   
00012083  _ZNSt3__26locale5__imp7installEPNS0_5facetEl                                                                                                                                             
0000384d  _ZNSt3__26locale5__impC1Ej                                                                                                                                                               
0000384d  _ZNSt3__26locale5__impC2Ej                                                                                                                                                               
0001626f  _ZNSt3__26locale5__impD0Ev                                                                                                                                                               
00010fa5  _ZNSt3__26locale5__impD1Ev                                                                                                                                                               
00010fa5  _ZNSt3__26locale5__impD2Ev                                                                                                                                                               
0001658d  _ZNSt3__26locale5facet16__on_zero_sharedEv                                                                                                                                               
0001627d  _ZNSt3__26locale5facetD0Ev                                                                                                                                                               
00016907  _ZNSt3__26locale5facetD1Ev                                                                                                                                                               
00016907  _ZNSt3__26locale5facetD2Ev                                                                                                                                                               
00014b61  _ZNSt3__26locale7classicEv                                                                                                                                                               
000146e5  _ZNSt3__26locale8__globalEv                                                                                                                                                              
00016599  _ZNSt3__26localeC1ERKS0_                                                                                                                                                                 
00015c8b  _ZNSt3__26localeC1Ev                                                                                                                                                                     
00016599  _ZNSt3__26localeC2ERKS0_                                                                                                                                                                 
00015c8b  _ZNSt3__26localeC2Ev                                                                                                                                                                     
00015b05  _ZNSt3__26localeD1Ev                                                                                                                                                                     
00015b05  _ZNSt3__26localeD2Ev                                                                                                                                                                     
00015b1d  _ZNSt3__26vectorIPNS_6locale5facetENS_15__sso_allocatorIS3_Lj28EEEE18__construct_at_endEj                                                                                                
0000e59d  _ZNSt3__26vectorIPNS_6locale5facetENS_15__sso_allocatorIS3_Lj28EEEE8__appendEj                                                                                                           
00013d5d  _ZNSt3__26vectorIPNS_6locale5facetENS_15__sso_allocatorIS3_Lj28EEEE8allocateEj                                                                                                           
00014fbd  _ZNSt3__26vectorIPNS_6locale5facetENS_15__sso_allocatorIS3_Lj28EEEEC1Ej                                                                                                                  
20020bac  _ZNSt3__27codecvtIDiciE2idE                                                                                                                                                              
0001628b  _ZNSt3__27codecvtIDiciED0Ev                                                                                                                                                              
0001690b  _ZNSt3__27codecvtIDiciED1Ev                                                                                                                                                              
0001690b  _ZNSt3__27codecvtIDiciED2Ev                                                                                                                                                              
20020ba4  _ZNSt3__27codecvtIDsciE2idE                                                                                                                                                              
00016299  _ZNSt3__27codecvtIDsciED0Ev                                                                                                                                                              
0001690f  _ZNSt3__27codecvtIDsciED1Ev                                                                                                                                                              
0001690f  _ZNSt3__27codecvtIDsciED2Ev                                                                                                                                                              
20020b94  _ZNSt3__27codecvtIcciE2idE                                                                                                                                                               
000162a7  _ZNSt3__27codecvtIcciED0Ev                                                                                                                                                               
00016913  _ZNSt3__27codecvtIcciED1Ev                                                                                                                                                               
00016913  _ZNSt3__27codecvtIcciED2Ev                                                                                                                                                               
20020b9c  _ZNSt3__27codecvtIwciE2idE                                                                                                                                                               
000157c5  _ZNSt3__27codecvtIwciEC1Ej                                                                                                                                                               
000157c5  _ZNSt3__27codecvtIwciEC2Ej                                                                                                                                                               
000162b5  _ZNSt3__27codecvtIwciED0Ev                                                                                                                                                               
00014fe1  _ZNSt3__27codecvtIwciED1Ev                                                                                                                                                               
00014fe1  _ZNSt3__27codecvtIwciED2Ev                                                                                                                                                               
2002140c  _ZNSt3__27collateIcE2idE                                                                                                                                                                 
000162c3  _ZNSt3__27collateIcED0Ev                                                                                                                                                                 
00016917  _ZNSt3__27collateIcED1Ev                                                                                                                                                                 
20021414  _ZNSt3__27collateIwE2idE                                                                                                                                                                 
000162d1  _ZNSt3__27collateIwED0Ev                                                                                                                                                                 
0001691b  _ZNSt3__27collateIwED1Ev                                                                                                                                                                 
000165a5  _ZNSt3__27forwardIRP6ISRMsgEEOT_RNS_16remove_referenceIS4_E4typeE                                                                                                                        
000165b1  _ZNSt3__27forwardIRPcEEOT_RNS_16remove_referenceIS3_E4typeE                                                                                                                              
2002141c  _ZNSt3__27num_getIcNS_19istreambuf_iteratorIcNS_11char_traitsIcEEEEE2idE                                                                                                                 
000162df  _ZNSt3__27num_getIcNS_19istreambuf_iteratorIcNS_11char_traitsIcEEEEED0Ev                                                                                                                 
0001691f  _ZNSt3__27num_getIcNS_19istreambuf_iteratorIcNS_11char_traitsIcEEEEED1Ev                                                                                                                 
20021424  _ZNSt3__27num_getIwNS_19istreambuf_iteratorIwNS_11char_traitsIwEEEEE2idE                                                                                                                 
000162ed  _ZNSt3__27num_getIwNS_19istreambuf_iteratorIwNS_11char_traitsIwEEEEED0Ev                                                                                                                 
00016923  _ZNSt3__27num_getIwNS_19istreambuf_iteratorIwNS_11char_traitsIwEEEEED1Ev                                                                                                                 
2002142c  _ZNSt3__27num_putIcNS_19ostreambuf_iteratorIcNS_11char_traitsIcEEEEE2idE                                                                                                                 
000162fb  _ZNSt3__27num_putIcNS_19ostreambuf_iteratorIcNS_11char_traitsIcEEEEED0Ev                                                                                                                 
00016927  _ZNSt3__27num_putIcNS_19ostreambuf_iteratorIcNS_11char_traitsIcEEEEED1Ev                                                                                                                 
20021434  _ZNSt3__27num_putIwNS_19ostreambuf_iteratorIwNS_11char_traitsIwEEEEE2idE                                                                                                                 
00016309  _ZNSt3__27num_putIwNS_19ostreambuf_iteratorIwNS_11char_traitsIwEEEEED0Ev                                                                                                                 
0001692b  _ZNSt3__27num_putIwNS_19ostreambuf_iteratorIwNS_11char_traitsIwEEEEED1Ev                                                                                                                 
00014de5  _ZNSt3__28ios_base16__call_callbacksENS0_5eventE                                                                                                                                         
00006239  _ZNSt3__28ios_base4InitC1Ev                                                                                                                                                              
00006239  _ZNSt3__28ios_base4InitC2Ev                                                                                                                                                              
00014715  _ZNSt3__28ios_base4InitD1Ev                                                                                                                                                              
00014715  _ZNSt3__28ios_base4InitD2Ev                                                                                                                                                              
00013c9d  _ZNSt3__28ios_base4initEPv                                                                                                                                                               
000165bd  _ZNSt3__28ios_base5clearEj                                                                                                                                                               
0001589d  _ZNSt3__28ios_base5widthEi                                                                                                                                                               
00016317  _ZNSt3__28ios_baseD0Ev                                                                                                                                                                   
0001416d  _ZNSt3__28ios_baseD1Ev                                                                                                                                                                   
0001416d  _ZNSt3__28ios_baseD2Ev                                                                                                                                                                   
2002143c  _ZNSt3__28messagesIcE2idE                                                                                                                                                                
00016325  _ZNSt3__28messagesIcED0Ev                                                                                                                                                                
0001692f  _ZNSt3__28messagesIcED1Ev                                                                                                                                                                
20021444  _ZNSt3__28messagesIwE2idE                                                                                                                                                                
00016333  _ZNSt3__28messagesIwED0Ev                                                                                                                                                                
00016933  _ZNSt3__28messagesIwED1Ev                                                                                                                                                                
20020bb4  _ZNSt3__28numpunctIcE2idE                                                                                                                                                                
000141a5  _ZNSt3__28numpunctIcEC1Ej                                                                                                                                                                
000141a5  _ZNSt3__28numpunctIcEC2Ej                                                                                                                                                                
00016341  _ZNSt3__28numpunctIcED0Ev                                                                                                                                                                
000158b7  _ZNSt3__28numpunctIcED1Ev                                                                                                                                                                
000158b7  _ZNSt3__28numpunctIcED2Ev                                                                                                                                                                
20020bbc  _ZNSt3__28numpunctIwE2idE                                                                                                                                                                
000141dd  _ZNSt3__28numpunctIwEC1Ej                                                                                                                                                                
000141dd  _ZNSt3__28numpunctIwEC2Ej                                                                                                                                                                
0001634f  _ZNSt3__28numpunctIwED0Ev                                                                                                                                                                
000158d1  _ZNSt3__28numpunctIwED1Ev                                                                                                                                                                
000158d1  _ZNSt3__28numpunctIwED2Ev                                                                                                                                                                
2002144c  _ZNSt3__28time_getIcNS_19istreambuf_iteratorIcNS_11char_traitsIcEEEEE2idE                                                                                                                
0001635d  _ZNSt3__28time_getIcNS_19istreambuf_iteratorIcNS_11char_traitsIcEEEEED0Ev                                                                                                                
00016937  _ZNSt3__28time_getIcNS_19istreambuf_iteratorIcNS_11char_traitsIcEEEEED1Ev                                                                                                                
20021454  _ZNSt3__28time_getIwNS_19istreambuf_iteratorIwNS_11char_traitsIwEEEEE2idE                                                                                                                
0001636b  _ZNSt3__28time_getIwNS_19istreambuf_iteratorIwNS_11char_traitsIwEEEEED0Ev                                                                                                                
0001693b  _ZNSt3__28time_getIwNS_19istreambuf_iteratorIwNS_11char_traitsIwEEEEED1Ev                                                                                                                
2002145c  _ZNSt3__28time_putIcNS_19ostreambuf_iteratorIcNS_11char_traitsIcEEEEE2idE                                                                                                                
000158eb  _ZNSt3__28time_putIcNS_19ostreambuf_iteratorIcNS_11char_traitsIcEEEEED0Ev                                                                                                                
00015da9  _ZNSt3__28time_putIcNS_19ostreambuf_iteratorIcNS_11char_traitsIcEEEEED1Ev                                                                                                                
20021464  _ZNSt3__28time_putIwNS_19ostreambuf_iteratorIwNS_11char_traitsIwEEEEE2idE                                                                                                                
00015905  _ZNSt3__28time_putIwNS_19ostreambuf_iteratorIwNS_11char_traitsIwEEEEED0Ev                                                                                                                
00015dbd  _ZNSt3__28time_putIwNS_19ostreambuf_iteratorIwNS_11char_traitsIwEEEEED1Ev                                                                                                                
0000e1f9  _ZNSt3__29__num_getIcE17__stage2_int_loopEciPcRS2_RjcRKNS_12basic_stringIcNS_11char_traitsIcEENS_9allocatorIcEEEEPjRSD_PKc                                                               
0000c3a1  _ZNSt3__29__num_getIcE19__stage2_float_loopEcRbRcPcRS4_ccRKNS_12basic_stringIcNS_11char_traitsIcEENS_9allocatorIcEEEEPjRSE_RjS4_                                                         
00012431  _ZNSt3__29__num_getIcE19__stage2_float_prepERNS_8ios_baseEPcRcS5_                                                                                                                        
0000e2e5  _ZNSt3__29__num_getIwE17__stage2_int_loopEwiPcRS2_RjwRKNS_12basic_stringIcNS_11char_traitsIcEENS_9allocatorIcEEEEPjRSD_PKw                                                               
0000c10d  _ZNSt3__29__num_getIwE19__stage2_float_loopEwRbRcPcRS4_wwRKNS_12basic_stringIcNS_11char_traitsIcEENS_9allocatorIcEEEEPjRSE_RjPw                                                          
00012499  _ZNSt3__29__num_getIwE19__stage2_float_prepERNS_8ios_baseEPwRwS5_                                                                                                                        
000093f5  _ZNSt3__29__num_putIcE21__widen_and_group_intEPcS2_S2_S2_RS2_S3_RKNS_6localeE                                                                                                            
00006e9d  _ZNSt3__29__num_putIcE23__widen_and_group_floatEPcS2_S2_S2_RS2_S3_RKNS_6localeE                                                                                                          
00009229  _ZNSt3__29__num_putIwE21__widen_and_group_intEPcS2_S2_PwRS3_S4_RKNS_6localeE                                                                                                             
000069b9  _ZNSt3__29__num_putIwE23__widen_and_group_floatEPcS2_S2_PwRS3_S4_RKNS_6localeE                                                                                                           
00016769  _ZNSt3__29basic_iosIcNS_11char_traitsIcEEE8setstateEj                                                                                                                                    
00016379  _ZNSt3__29basic_iosIcNS_11char_traitsIcEEED0Ev                                                                                                                                           
0001693f  _ZNSt3__29basic_iosIcNS_11char_traitsIcEEED1Ev                                                                                                                                           
00016943  _ZNSt3__29basic_iosIcNS_11char_traitsIcEEED2Ev                                                                                                                                           
00016387  _ZNSt3__29basic_iosIwNS_11char_traitsIwEEED0Ev                                                                                                                                           
00016947  _ZNSt3__29basic_iosIwNS_11char_traitsIwEEED1Ev                                                                                                                                           
0001694b  _ZNSt3__29basic_iosIwNS_11char_traitsIwEEED2Ev                                                                                                                                           
2002146c  _ZNSt3__29money_getIcNS_19istreambuf_iteratorIcNS_11char_traitsIcEEEEE2idE                                                                                                               
00001759  _ZNSt3__29money_getIcNS_19istreambuf_iteratorIcNS_11char_traitsIcEEEEE8__do_getERS4_S4_bRKNS_6localeEjRjRbRKNS_5ctypeIcEERNS_10unique_ptrIcPFvPvEEERPcSM_                                
00016395  _ZNSt3__29money_getIcNS_19istreambuf_iteratorIcNS_11char_traitsIcEEEEED0Ev                                                                                                               
0001694f  _ZNSt3__29money_getIcNS_19istreambuf_iteratorIcNS_11char_traitsIcEEEEED1Ev                                                                                                               
20021474  _ZNSt3__29money_getIwNS_19istreambuf_iteratorIwNS_11char_traitsIwEEEEE2idE                                                                                                               
000020b1  _ZNSt3__29money_getIwNS_19istreambuf_iteratorIwNS_11char_traitsIwEEEEE8__do_getERS4_S4_bRKNS_6localeEjRjRbRKNS_5ctypeIwEERNS_10unique_ptrIwPFvPvEEERPwSM_                                
000163a3  _ZNSt3__29money_getIwNS_19istreambuf_iteratorIwNS_11char_traitsIwEEEEED0Ev                                                                                                               
00016953  _ZNSt3__29money_getIwNS_19istreambuf_iteratorIwNS_11char_traitsIwEEEEED1Ev                                                                                                               
2002147c  _ZNSt3__29money_putIcNS_19ostreambuf_iteratorIcNS_11char_traitsIcEEEEE2idE                                                                                                               
000163b1  _ZNSt3__29money_putIcNS_19ostreambuf_iteratorIcNS_11char_traitsIcEEEEED0Ev                                                                                                               
00016957  _ZNSt3__29money_putIcNS_19ostreambuf_iteratorIcNS_11char_traitsIcEEEEED1Ev                                                                                                               
20021484  _ZNSt3__29money_putIwNS_19ostreambuf_iteratorIwNS_11char_traitsIwEEEEE2idE                                                                                                               
000163bf  _ZNSt3__29money_putIwNS_19ostreambuf_iteratorIwNS_11char_traitsIwEEEEED0Ev                                                                                                               
0001695b  _ZNSt3__29money_putIwNS_19ostreambuf_iteratorIwNS_11char_traitsIwEEEEED1Ev                                                                                                               
000143c9  _ZNSt3__29to_stringEi                                                                                                                                                                    
00011025  _ZNSt3__2eqINS_9allocatorIcEEEEbRKNS_12basic_stringIcNS_11char_traitsIcEET_EES9_                                                                                                         
00012a6d  _ZNSt3__2eqIcNS_11char_traitsIcEEEEbRKNS_19istreambuf_iteratorIT_T0_EES8_                                                                                                                
00013cdd  _ZNSt3__2eqIcNS_11char_traitsIcEENS_9allocatorIcEEEEbRKNS_12basic_stringIT_T0_T1_EEPKS6_                                                                                                 
00015b35  _ZNSt3__2lsINS_11char_traitsIcEEEERNS_13basic_ostreamIcT_EES6_PKc                                                                                                                        
0001521f  _ZNSt3__2lsIcNS_11char_traitsIcEENS_9allocatorIcEEEERNS_13basic_ostreamIT_T0_EES9_RKNS_12basic_stringIS6_S7_T1_EE                                                                        
000154ff  _ZNSt3__2neIcNS_11char_traitsIcEENS_9allocatorIcEEEEbRKNS_12basic_stringIT_T0_T1_EEPKS6_                                                                                                 
00012acb  _ZNSt3__2neIwNS_11char_traitsIwEEEEbRKNS_19istreambuf_iteratorIT_T0_EES8_                                                                                                                
0001551d  _ZNSt3__2plIcNS_11char_traitsIcEENS_9allocatorIcEEEENS_12basic_stringIT_T0_T1_EEOS9_PKS6_                                                                                                
0001553b  _ZNSt3__2plIcNS_11char_traitsIcEENS_9allocatorIcEEEENS_12basic_stringIT_T0_T1_EEOS9_RKS9_                                                                                                
00015559  _ZNSt3__2plIcNS_11char_traitsIcEENS_9allocatorIcEEEENS_12basic_stringIT_T0_T1_EEOS9_SA_                                                                                                  
0001523f  _ZNSt3__2plIcNS_11char_traitsIcEENS_9allocatorIcEEEENS_12basic_stringIT_T0_T1_EEPKS6_OS9_                                                                                                
00010a59  _ZNSt3__2plIcNS_11char_traitsIcEENS_9allocatorIcEEEENS_12basic_stringIT_T0_T1_EEPKS6_RKS9_                                                                                               
00010047  _ZNSt9type_infoD1Ev                                                                                                                                                                      
00010047  _ZNSt9type_infoD2Ev                                                                                                                                                                      
000165c9  _ZSt15get_new_handlerv                                                                                                                                                                   
000169d7  _ZSt17__throw_bad_allocv                                                                                                                                                                 
0001695f  _ZSt18uncaught_exceptionv                                                                                                                                                                
00018548  _ZTIN10__cxxabiv117__class_type_infoE                                                                                                                                                    
00018554  _ZTIN10__cxxabiv120__si_class_type_infoE                                                                                                                                                 
00018560  _ZTIN10__cxxabiv121__vmi_class_type_infoE                                                                                                                                                
0001856c  _ZTINSt3__210__stdinbufIcEE                                                                                                                                                              
00018578  _ZTINSt3__210__stdinbufIwEE                                                                                                                                                              
00018614  _ZTINSt3__210__time_putE                                                                                                                                                                 
0001861c  _ZTINSt3__210ctype_baseE                                                                                                                                                                 
00018624  _ZTINSt3__210money_baseE                                                                                                                                                                 
00017c44  _ZTINSt3__210moneypunctIcLb0EEE                                                                                                                                                          
00017c64  _ZTINSt3__210moneypunctIcLb1EEE                                                                                                                                                          
00017c84  _ZTINSt3__210moneypunctIwLb0EEE                                                                                                                                                          
00017ca4  _ZTINSt3__210moneypunctIwLb1EEE                                                                                                                                                          
0001862c  _ZTINSt3__211__money_getIcEE                                                                                                                                                             
00018634  _ZTINSt3__211__money_getIwEE                                                                                                                                                             
0001863c  _ZTINSt3__211__money_putIcEE                                                                                                                                                             
00018644  _ZTINSt3__211__money_putIwEE                                                                                                                                                             
00018584  _ZTINSt3__211__stdoutbufIcEE                                                                                                                                                             
00018590  _ZTINSt3__211__stdoutbufIwEE                                                                                                                                                             
0001864c  _ZTINSt3__212codecvt_baseE                                                                                                                                                               
00018148  _ZTINSt3__213basic_istreamIcNS_11char_traitsIcEEEE                                                                                                                                       
00018160  _ZTINSt3__213basic_istreamIwNS_11char_traitsIwEEEE                                                                                                                                       
00018178  _ZTINSt3__213basic_ostreamIcNS_11char_traitsIcEEEE                                                                                                                                       
00018190  _ZTINSt3__213basic_ostreamIwNS_11char_traitsIwEEEE                                                                                                                                       
00018654  _ZTINSt3__213messages_baseE                                                                                                                                                              
0001865c  _ZTINSt3__214__num_get_baseE                                                                                                                                                             
00018664  _ZTINSt3__214__num_put_baseE                                                                                                                                                             
0001866c  _ZTINSt3__214__shared_countE                                                                                                                                                             
00018674  _ZTINSt3__215basic_streambufIcNS_11char_traitsIcEEEE                                                                                                                                     
0001867c  _ZTINSt3__215basic_streambufIwNS_11char_traitsIwEEEE                                                                                                                                     
00018684  _ZTINSt3__220__time_get_c_storageIcEE                                                                                                                                                    
0001868c  _ZTINSt3__220__time_get_c_storageIwEE                                                                                                                                                    
00017cc4  _ZTINSt3__25ctypeIcEE                                                                                                                                                                    
00017ce4  _ZTINSt3__25ctypeIwEE                                                                                                                                                                    
0001859c  _ZTINSt3__26locale5__impE                                                                                                                                                                
000185a8  _ZTINSt3__26locale5facetE                                                                                                                                                                
00017d04  _ZTINSt3__27codecvtIDiciEE                                                                                                                                                               
00017d24  _ZTINSt3__27codecvtIDsciEE                                                                                                                                                               
00017d44  _ZTINSt3__27codecvtIcciEE                                                                                                                                                                
00017d64  _ZTINSt3__27codecvtIwciEE                                                                                                                                                                
000185b4  _ZTINSt3__27collateIcEE                                                                                                                                                                  
000185c0  _ZTINSt3__27collateIwEE                                                                                                                                                                  
00017d84  _ZTINSt3__27num_getIcNS_19istreambuf_iteratorIcNS_11char_traitsIcEEEEEE                                                                                                                  
00017da4  _ZTINSt3__27num_getIwNS_19istreambuf_iteratorIwNS_11char_traitsIwEEEEEE                                                                                                                  
00017dc4  _ZTINSt3__27num_putIcNS_19ostreambuf_iteratorIcNS_11char_traitsIcEEEEEE                                                                                                                  
00017de4  _ZTINSt3__27num_putIwNS_19ostreambuf_iteratorIwNS_11char_traitsIwEEEEEE                                                                                                                  
00018694  _ZTINSt3__28ios_baseE                                                                                                                                                                    
00017e04  _ZTINSt3__28messagesIcEE                                                                                                                                                                 
00017e24  _ZTINSt3__28messagesIwEE                                                                                                                                                                 
000185cc  _ZTINSt3__28numpunctIcEE                                                                                                                                                                 
000185d8  _ZTINSt3__28numpunctIwEE                                                                                                                                                                 
00017aa4  _ZTINSt3__28time_getIcNS_19istreambuf_iteratorIcNS_11char_traitsIcEEEEEE                                                                                                                 
00017acc  _ZTINSt3__28time_getIwNS_19istreambuf_iteratorIwNS_11char_traitsIwEEEEEE                                                                                                                 
00017e44  _ZTINSt3__28time_putIcNS_19ostreambuf_iteratorIcNS_11char_traitsIcEEEEEE                                                                                                                 
00017e64  _ZTINSt3__28time_putIwNS_19ostreambuf_iteratorIwNS_11char_traitsIwEEEEEE                                                                                                                 
000181a8  _ZTINSt3__29__num_getIcEE                                                                                                                                                                
000181c0  _ZTINSt3__29__num_getIwEE                                                                                                                                                                
000181d8  _ZTINSt3__29__num_putIcEE                                                                                                                                                                
000181f0  _ZTINSt3__29__num_putIwEE                                                                                                                                                                
000185e4  _ZTINSt3__29basic_iosIcNS_11char_traitsIcEEEE                                                                                                                                            
000185f0  _ZTINSt3__29basic_iosIwNS_11char_traitsIwEEEE                                                                                                                                            
00017e84  _ZTINSt3__29money_getIcNS_19istreambuf_iteratorIcNS_11char_traitsIcEEEEEE                                                                                                                
00017ea4  _ZTINSt3__29money_getIwNS_19istreambuf_iteratorIwNS_11char_traitsIwEEEEEE                                                                                                                
00017ec4  _ZTINSt3__29money_putIcNS_19ostreambuf_iteratorIcNS_11char_traitsIcEEEEEE                                                                                                                
00017ee4  _ZTINSt3__29money_putIwNS_19ostreambuf_iteratorIwNS_11char_traitsIwEEEEEE                                                                                                                
0001869c  _ZTINSt3__29time_baseE                                                                                                                                                                   
000186a4  _ZTISt9type_info                                                                                                                                                                         
00017bdb  _ZTSN10__cxxabiv117__class_type_infoE                                                                                                                                                    
00017bb6  _ZTSN10__cxxabiv120__si_class_type_infoE                                                                                                                                                 
00017b90  _ZTSN10__cxxabiv121__vmi_class_type_infoE                                                                                                                                                
00018208  _ZTSNSt3__210__stdinbufIcEE                                                                                                                                                              
00018220  _ZTSNSt3__210__stdinbufIwEE                                                                                                                                                              
00018375  _ZTSNSt3__210__time_putE                                                                                                                                                                 
0001838a  _ZTSNSt3__210ctype_baseE                                                                                                                                                                 
0001839f  _ZTSNSt3__210money_baseE                                                                                                                                                                 
00017f84  _ZTSNSt3__210moneypunctIcLb0EEE                                                                                                                                                          
00017fa0  _ZTSNSt3__210moneypunctIcLb1EEE                                                                                                                                                          
00017fbc  _ZTSNSt3__210moneypunctIwLb0EEE                                                                                                                                                          
00017fd8  _ZTSNSt3__210moneypunctIwLb1EEE                                                                                                                                                          
00018064  _ZTSNSt3__211__money_getIcEE                                                                                                                                                             
0001807d  _ZTSNSt3__211__money_getIwEE                                                                                                                                                             
00018096  _ZTSNSt3__211__money_putIcEE                                                                                                                                                             
000180af  _ZTSNSt3__211__money_putIwEE                                                                                                                                                             
000180c8  _ZTSNSt3__211__stdoutbufIcEE                                                                                                                                                             
000180e1  _ZTSNSt3__211__stdoutbufIwEE                                                                                                                                                             
00018280  _ZTSNSt3__212codecvt_baseE                                                                                                                                                               
00017994  _ZTSNSt3__213basic_istreamIcNS_11char_traitsIcEEEE                                                                                                                                       
000179c3  _ZTSNSt3__213basic_istreamIwNS_11char_traitsIwEEEE                                                                                                                                       
000179f2  _ZTSNSt3__213basic_ostreamIcNS_11char_traitsIcEEEE                                                                                                                                       
00017a21  _ZTSNSt3__213basic_ostreamIwNS_11char_traitsIwEEEE                                                                                                                                       
00018238  _ZTSNSt3__213messages_baseE                                                                                                                                                              
000180fa  _ZTSNSt3__214__num_get_baseE                                                                                                                                                             
00018113  _ZTSNSt3__214__num_put_baseE                                                                                                                                                             
0001812c  _ZTSNSt3__214__shared_countE                                                                                                                                                             
00017780  _ZTSNSt3__215basic_streambufIcNS_11char_traitsIcEEEE                                                                                                                                     
000177b1  _ZTSNSt3__215basic_streambufIwNS_11char_traitsIwEEEE                                                                                                                                     
00017bfd  _ZTSNSt3__220__time_get_c_storageIcEE                                                                                                                                                    
00017c1f  _ZTSNSt3__220__time_get_c_storageIwEE                                                                                                                                                    
0001846b  _ZTSNSt3__25ctypeIcEE                                                                                                                                                                    
0001847d  _ZTSNSt3__25ctypeIwEE                                                                                                                                                                    
000182c5  _ZTSNSt3__26locale5__impE                                                                                                                                                                
000182db  _ZTSNSt3__26locale5facetE                                                                                                                                                                
00018297  _ZTSNSt3__27codecvtIDiciEE                                                                                                                                                               
000182ae  _ZTSNSt3__27codecvtIDsciEE                                                                                                                                                               
000182f1  _ZTSNSt3__27codecvtIcciEE                                                                                                                                                                
00018307  _ZTSNSt3__27codecvtIwciEE                                                                                                                                                                
00018408  _ZTSNSt3__27collateIcEE                                                                                                                                                                  
0001841c  _ZTSNSt3__27collateIwEE                                                                                                                                                                  
000172ae  _ZTSNSt3__27num_getIcNS_19istreambuf_iteratorIcNS_11char_traitsIcEEEEEE                                                                                                                  
000172f2  _ZTSNSt3__27num_getIwNS_19istreambuf_iteratorIwNS_11char_traitsIwEEEEEE                                                                                                                  
00017336  _ZTSNSt3__27num_putIcNS_19ostreambuf_iteratorIcNS_11char_traitsIcEEEEEE                                                                                                                  
0001737a  _ZTSNSt3__27num_putIwNS_19ostreambuf_iteratorIwNS_11char_traitsIwEEEEEE                                                                                                                  
0001848f  _ZTSNSt3__28ios_baseE                                                                                                                                                                    
000183b4  _ZTSNSt3__28messagesIcEE                                                                                                                                                                 
000183c9  _ZTSNSt3__28messagesIwEE                                                                                                                                                                 
000183de  _ZTSNSt3__28numpunctIcEE                                                                                                                                                                 
000183f3  _ZTSNSt3__28numpunctIwEE                                                                                                                                                                 
00017156  _ZTSNSt3__28time_getIcNS_19istreambuf_iteratorIcNS_11char_traitsIcEEEEEE                                                                                                                 
0001719b  _ZTSNSt3__28time_getIwNS_19istreambuf_iteratorIwNS_11char_traitsIwEEEEEE                                                                                                                 
000171e0  _ZTSNSt3__28time_putIcNS_19ostreambuf_iteratorIcNS_11char_traitsIcEEEEEE                                                                                                                 
00017225  _ZTSNSt3__28time_putIwNS_19ostreambuf_iteratorIwNS_11char_traitsIwEEEEEE                                                                                                                 
0001831d  _ZTSNSt3__29__num_getIcEE                                                                                                                                                                
00018333  _ZTSNSt3__29__num_getIwEE                                                                                                                                                                
00018349  _ZTSNSt3__29__num_putIcEE                                                                                                                                                                
0001835f  _ZTSNSt3__29__num_putIwEE                                                                                                                                                                
00017a50  _ZTSNSt3__29basic_iosIcNS_11char_traitsIcEEEE                                                                                                                                            
00017a7a  _ZTSNSt3__29basic_iosIwNS_11char_traitsIwEEEE                                                                                                                                            
00016fb4  _ZTSNSt3__29money_getIcNS_19istreambuf_iteratorIcNS_11char_traitsIcEEEEEE                                                                                                                
00016ffa  _ZTSNSt3__29money_getIwNS_19istreambuf_iteratorIwNS_11char_traitsIwEEEEEE                                                                                                                
00017040  _ZTSNSt3__29money_putIcNS_19ostreambuf_iteratorIcNS_11char_traitsIcEEEEEE                                                                                                                
00017086  _ZTSNSt3__29money_putIwNS_19ostreambuf_iteratorIwNS_11char_traitsIwEEEEEE                                                                                                                
00018458  _ZTSNSt3__29time_baseE                                                                                                                                                                   
0001852e  _ZTSSt9type_info                                                                                                                                                                         
0001783c  _ZTTNSt3__213basic_istreamIcNS_11char_traitsIcEEEE                                                                                                                                       
0001786c  _ZTTNSt3__213basic_istreamIwNS_11char_traitsIwEEEE                                                                                                                                       
0001789c  _ZTTNSt3__213basic_ostreamIcNS_11char_traitsIcEEEE                                                                                                                                       
000178cc  _ZTTNSt3__213basic_ostreamIwNS_11char_traitsIwEEEE                                                                                                                                       
000184b4  _ZTVN10__cxxabiv117__class_type_infoE                                                                                                                                                    
000184c4  _ZTVN10__cxxabiv120__si_class_type_infoE                                                                                                                                                 
000184d4  _ZTVN10__cxxabiv121__vmi_class_type_infoE                                                                                                                                                
00017404  _ZTVNSt3__210__stdinbufIcEE                                                                                                                                                              
00017444  _ZTVNSt3__210__stdinbufIwEE                                                                                                                                                              
00017604  _ZTVNSt3__210moneypunctIcLb0EEE                                                                                                                                                          
0001763c  _ZTVNSt3__210moneypunctIcLb1EEE                                                                                                                                                          
00017674  _ZTVNSt3__210moneypunctIwLb0EEE                                                                                                                                                          
000176ac  _ZTVNSt3__210moneypunctIwLb1EEE                                                                                                                                                          
00017484  _ZTVNSt3__211__stdoutbufIcEE                                                                                                                                                             
000174c4  _ZTVNSt3__211__stdoutbufIwEE                                                                                                                                                             
00017814  _ZTVNSt3__213basic_istreamIcNS_11char_traitsIcEEEE                                                                                                                                       
00017844  _ZTVNSt3__213basic_istreamIwNS_11char_traitsIwEEEE                                                                                                                                       
00017874  _ZTVNSt3__213basic_ostreamIcNS_11char_traitsIcEEEE                                                                                                                                       
000178a4  _ZTVNSt3__213basic_ostreamIwNS_11char_traitsIwEEEE                                                                                                                                       
00017504  _ZTVNSt3__215basic_streambufIcNS_11char_traitsIcEEEE                                                                                                                                     
00017544  _ZTVNSt3__215basic_streambufIwNS_11char_traitsIwEEEE                                                                                                                                     
000176e4  _ZTVNSt3__25ctypeIcEE                                                                                                                                                                    
000173c0  _ZTVNSt3__25ctypeIwEE                                                                                                                                                                    
00018430  _ZTVNSt3__26locale5__impE                                                                                                                                                                
00018444  _ZTVNSt3__26locale5facetE                                                                                                                                                                
000178d4  _ZTVNSt3__27codecvtIDiciEE                                                                                                                                                               
00017904  _ZTVNSt3__27codecvtIDsciEE                                                                                                                                                               
00017934  _ZTVNSt3__27codecvtIcciEE                                                                                                                                                                
00017964  _ZTVNSt3__27codecvtIwciEE                                                                                                                                                                
00017f04  _ZTVNSt3__27collateIcEE                                                                                                                                                                  
00017f24  _ZTVNSt3__27collateIwEE                                                                                                                                                                  
00017584  _ZTVNSt3__27num_getIcNS_19istreambuf_iteratorIcNS_11char_traitsIcEEEEEE                                                                                                                  
000175c4  _ZTVNSt3__27num_getIwNS_19istreambuf_iteratorIwNS_11char_traitsIwEEEEEE                                                                                                                  
00017718  _ZTVNSt3__27num_putIcNS_19ostreambuf_iteratorIcNS_11char_traitsIcEEEEEE                                                                                                                  
0001774c  _ZTVNSt3__27num_putIwNS_19ostreambuf_iteratorIwNS_11char_traitsIwEEEEEE                                                                                                                  
000184e4  _ZTVNSt3__28ios_baseE                                                                                                                                                                    
00017f44  _ZTVNSt3__28messagesIcEE                                                                                                                                                                 
00017f64  _ZTVNSt3__28messagesIwEE                                                                                                                                                                 
00017af4  _ZTVNSt3__28numpunctIcEE                                                                                                                                                                 
00017b1c  _ZTVNSt3__28numpunctIwEE                                                                                                                                                                 
00016ec0  _ZTVNSt3__28time_getIcNS_19istreambuf_iteratorIcNS_11char_traitsIcEEEEEE                                                                                                                 
00016f14  _ZTVNSt3__28time_getIwNS_19istreambuf_iteratorIwNS_11char_traitsIwEEEEEE                                                                                                                 
00018250  _ZTVNSt3__28time_putIcNS_19ostreambuf_iteratorIcNS_11char_traitsIcEEEEEE                                                                                                                 
00018268  _ZTVNSt3__28time_putIwNS_19ostreambuf_iteratorIwNS_11char_traitsIwEEEEEE                                                                                                                 
000184f4  _ZTVNSt3__29basic_iosIcNS_11char_traitsIcEEEE                                                                                                                                            
00018504  _ZTVNSt3__29basic_iosIwNS_11char_traitsIwEEEE                                                                                                                                            
00017ff4  _ZTVNSt3__29money_getIcNS_19istreambuf_iteratorIcNS_11char_traitsIcEEEEEE                                                                                                                
00018010  _ZTVNSt3__29money_getIwNS_19istreambuf_iteratorIwNS_11char_traitsIwEEEEEE                                                                                                                
0001802c  _ZTVNSt3__29money_putIcNS_19ostreambuf_iteratorIcNS_11char_traitsIcEEEEEE                                                                                                                
00018048  _ZTVNSt3__29money_putIwNS_19ostreambuf_iteratorIwNS_11char_traitsIwEEEEEE                                                                                                                
000165d5  _ZTv0_n12_NSt3__213basic_istreamIcNS_11char_traitsIcEEED0Ev                                                                                                                              
000165e1  _ZTv0_n12_NSt3__213basic_istreamIcNS_11char_traitsIcEEED1Ev                                                                                                                              
000165ed  _ZTv0_n12_NSt3__213basic_istreamIwNS_11char_traitsIwEEED0Ev                                                                                                                              
000165f9  _ZTv0_n12_NSt3__213basic_istreamIwNS_11char_traitsIwEEED1Ev                                                                                                                              
00016605  _ZTv0_n12_NSt3__213basic_ostreamIcNS_11char_traitsIcEEED0Ev                                                                                                                              
00016611  _ZTv0_n12_NSt3__213basic_ostreamIcNS_11char_traitsIcEEED1Ev                                                                                                                              
0001661d  _ZTv0_n12_NSt3__213basic_ostreamIwNS_11char_traitsIwEEED0Ev                                                                                                                              
00016629  _ZTv0_n12_NSt3__213basic_ostreamIwNS_11char_traitsIwEEED1Ev                                                                                                                              
000170cc  _ZZN10RingBufferI6ISRMsgE3AddES0_Es                                                                                                                                                      
00017111  _ZZN10RingBufferIcE3AddEcEs                                                                                                                                                              
000186ac  _ZZNKSt3__220__vector_base_commonILb1EE20__throw_length_errorEvEs                                                                                                                        
00018514  _ZZNKSt3__221__basic_string_commonILb1EE20__throw_length_errorEvEs                                                                                                                       
00018521  _ZZNKSt3__221__basic_string_commonILb1EE20__throw_out_of_rangeEvEs                                                                                                                       
00016ced  _ZZNKSt3__27num_getIcNS_19istreambuf_iteratorIcNS_11char_traitsIcEEEEE6do_getES4_S4_RNS_8ios_baseERjRPvEs                                                                                
00017c41  _ZZNKSt3__27num_getIwNS_19istreambuf_iteratorIwNS_11char_traitsIwEEEEE6do_getES4_S4_RNS_8ios_baseERjRPvEs                                                                                
00018547  _ZZNKSt3__27num_putIcNS_19ostreambuf_iteratorIcNS_11char_traitsIcEEEEE6do_putES4_RNS_8ios_baseEcdEs                                                                                      
00016e66  _ZZNKSt3__27num_putIcNS_19ostreambuf_iteratorIcNS_11char_traitsIcEEEEE6do_putES4_RNS_8ios_baseEceEs                                                                                      
000173be  _ZZNKSt3__27num_putIcNS_19ostreambuf_iteratorIcNS_11char_traitsIcEEEEE6do_putES4_RNS_8ios_baseEclEs                                                                                      
000177e2  _ZZNKSt3__27num_putIcNS_19ostreambuf_iteratorIcNS_11char_traitsIcEEEEE6do_putES4_RNS_8ios_baseEcmEs                                                                                      
00018145  _ZZNKSt3__27num_putIcNS_19ostreambuf_iteratorIcNS_11char_traitsIcEEEEE6do_putES4_RNS_8ios_baseEcxEs                                                                                      
000184a1  _ZZNKSt3__27num_putIcNS_19ostreambuf_iteratorIcNS_11char_traitsIcEEEEE6do_putES4_RNS_8ios_baseEcyEs                                                                                      
000186bf  _ZZNKSt3__27num_putIwNS_19ostreambuf_iteratorIwNS_11char_traitsIwEEEEE6do_putES4_RNS_8ios_baseEwdEs                                                                                      
000186d6  _ZZNKSt3__27num_putIwNS_19ostreambuf_iteratorIwNS_11char_traitsIwEEEEE6do_putES4_RNS_8ios_baseEweEs                                                                                      
000186d8  _ZZNKSt3__27num_putIwNS_19ostreambuf_iteratorIwNS_11char_traitsIwEEEEE6do_putES4_RNS_8ios_baseEwlEs                                                                                      
000186da  _ZZNKSt3__27num_putIwNS_19ostreambuf_iteratorIwNS_11char_traitsIwEEEEE6do_putES4_RNS_8ios_baseEwmEs                                                                                      
000186d0  _ZZNKSt3__27num_putIwNS_19ostreambuf_iteratorIwNS_11char_traitsIwEEEEE6do_putES4_RNS_8ios_baseEwxEs                                                                                      
000186d3  _ZZNKSt3__27num_putIwNS_19ostreambuf_iteratorIwNS_11char_traitsIwEEEEE6do_putES4_RNS_8ios_baseEwyEs                                                                                      
000186c8  _ZZNKSt3__29money_getIcNS_19istreambuf_iteratorIcNS_11char_traitsIcEEEEE6do_getES4_S4_bRNS_8ios_baseERjReEs_0                                                                            
000186cc  _ZZNKSt3__29money_getIwNS_19istreambuf_iteratorIwNS_11char_traitsIwEEEEE6do_getES4_S4_bRNS_8ios_baseERjReEs_0                                                                            
000186b3  _ZZNKSt3__29money_putIcNS_19ostreambuf_iteratorIcNS_11char_traitsIcEEEEE6do_putES4_bRNS_8ios_baseEceEs                                                                                   
000186b9  _ZZNKSt3__29money_putIwNS_19ostreambuf_iteratorIwNS_11char_traitsIwEEEEE6do_putES4_bRNS_8ios_baseEweEs                                                                                   
00017b44  _ZZNSt3__210__stdinbufIcE5imbueERKNS_6localeEEs                                                                                                                                          
00017b6a  _ZZNSt3__210__stdinbufIwE5imbueERKNS_6localeEEs                                                                                                                                          
20020a30  _ZZNSt3__234_GLOBAL__N__10_locale_cpp_a71832034makeINS_10moneypunctIcLb0EEEjEERT_T0_E3buf                                                                                                
20020a38  _ZZNSt3__234_GLOBAL__N__10_locale_cpp_a71832034makeINS_10moneypunctIcLb1EEEjEERT_T0_E3buf                                                                                                
20020a40  _ZZNSt3__234_GLOBAL__N__10_locale_cpp_a71832034makeINS_10moneypunctIwLb0EEEjEERT_T0_E3buf                                                                                                
20020a48  _ZZNSt3__234_GLOBAL__N__10_locale_cpp_a71832034makeINS_10moneypunctIwLb1EEEjEERT_T0_E3buf                                                                                                
20020970  _ZZNSt3__234_GLOBAL__N__10_locale_cpp_a71832034makeINS_5ctypeIcEEDnbjEERT_T0_T1_T2_E3buf                                                                                                 
20020a50  _ZZNSt3__234_GLOBAL__N__10_locale_cpp_a71832034makeINS_5ctypeIwEEjEERT_T0_E3buf                                                                                                          
20020510  _ZZNSt3__234_GLOBAL__N__10_locale_cpp_a71832034makeINS_6locale5__impEjEERT_T0_E3buf                                                                                                      
20020a58  _ZZNSt3__234_GLOBAL__N__10_locale_cpp_a71832034makeINS_7codecvtIDiciEEjEERT_T0_E3buf                                                                                                     
20020a60  _ZZNSt3__234_GLOBAL__N__10_locale_cpp_a71832034makeINS_7codecvtIDsciEEjEERT_T0_E3buf                                                                                                     
20020a68  _ZZNSt3__234_GLOBAL__N__10_locale_cpp_a71832034makeINS_7codecvtIcciEEjEERT_T0_E3buf                                                                                                      
20020980  _ZZNSt3__234_GLOBAL__N__10_locale_cpp_a71832034makeINS_7codecvtIwciEEjEERT_T0_E3buf                                                                                                      
20020a70  _ZZNSt3__234_GLOBAL__N__10_locale_cpp_a71832034makeINS_7collateIcEEjEERT_T0_E3buf                                                                                                        
20020a78  _ZZNSt3__234_GLOBAL__N__10_locale_cpp_a71832034makeINS_7collateIwEEjEERT_T0_E3buf                                                                                                        
20020a80  _ZZNSt3__234_GLOBAL__N__10_locale_cpp_a71832034makeINS_7num_getIcNS_19istreambuf_iteratorIcNS_11char_traitsIcEEEEEEjEERT_T0_E3buf                                                        
20020a88  _ZZNSt3__234_GLOBAL__N__10_locale_cpp_a71832034makeINS_7num_getIwNS_19istreambuf_iteratorIwNS_11char_traitsIwEEEEEEjEERT_T0_E3buf                                                        
20020a90  _ZZNSt3__234_GLOBAL__N__10_locale_cpp_a71832034makeINS_7num_putIcNS_19ostreambuf_iteratorIcNS_11char_traitsIcEEEEEEjEERT_T0_E3buf                                                        
20020a98  _ZZNSt3__234_GLOBAL__N__10_locale_cpp_a71832034makeINS_7num_putIwNS_19ostreambuf_iteratorIwNS_11char_traitsIwEEEEEEjEERT_T0_E3buf                                                        
20020aa0  _ZZNSt3__234_GLOBAL__N__10_locale_cpp_a71832034makeINS_8messagesIcEEjEERT_T0_E3buf                                                                                                       
20020aa8  _ZZNSt3__234_GLOBAL__N__10_locale_cpp_a71832034makeINS_8messagesIwEEjEERT_T0_E3buf                                                                                                       
20020940  _ZZNSt3__234_GLOBAL__N__10_locale_cpp_a71832034makeINS_8numpunctIcEEjEERT_T0_E3buf                                                                                                       
20020958  _ZZNSt3__234_GLOBAL__N__10_locale_cpp_a71832034makeINS_8numpunctIwEEjEERT_T0_E3buf                                                                                                       
20020990  _ZZNSt3__234_GLOBAL__N__10_locale_cpp_a71832034makeINS_8time_getIcNS_19istreambuf_iteratorIcNS_11char_traitsIcEEEEEEjEERT_T0_E3buf                                                       
200209a0  _ZZNSt3__234_GLOBAL__N__10_locale_cpp_a71832034makeINS_8time_getIwNS_19istreambuf_iteratorIwNS_11char_traitsIwEEEEEEjEERT_T0_E3buf                                                       
200209b0  _ZZNSt3__234_GLOBAL__N__10_locale_cpp_a71832034makeINS_8time_putIcNS_19ostreambuf_iteratorIcNS_11char_traitsIcEEEEEEjEERT_T0_E3buf                                                       
200209c0  _ZZNSt3__234_GLOBAL__N__10_locale_cpp_a71832034makeINS_8time_putIwNS_19ostreambuf_iteratorIwNS_11char_traitsIwEEEEEEjEERT_T0_E3buf                                                       
20020ab0  _ZZNSt3__234_GLOBAL__N__10_locale_cpp_a71832034makeINS_9money_getIcNS_19istreambuf_iteratorIcNS_11char_traitsIcEEEEEEjEERT_T0_E3buf                                                      
20020ab8  _ZZNSt3__234_GLOBAL__N__10_locale_cpp_a71832034makeINS_9money_getIwNS_19istreambuf_iteratorIwNS_11char_traitsIwEEEEEEjEERT_T0_E3buf                                                      
20020ac0  _ZZNSt3__234_GLOBAL__N__10_locale_cpp_a71832034makeINS_9money_putIcNS_19ostreambuf_iteratorIcNS_11char_traitsIcEEEEEEjEERT_T0_E3buf                                                      
20020ac8  _ZZNSt3__234_GLOBAL__N__10_locale_cpp_a71832034makeINS_9money_putIwNS_19ostreambuf_iteratorIwNS_11char_traitsIwEEEEEEjEERT_T0_E3buf                                                      
0001726a  _ZZNSt3__29allocatorIwE8allocateEjPKvEs                                                                                                                                                  
000169bf  _ZdaPv                                                                                                                                                                                   
00016771  _ZdlPv                                                                                                                                                                                   
000169c3  _ZdlPvj                                                                                                                                                                                  
000169c7  _Znaj                                                                                                                                                                                    
000150f9  _Znwj                                                                                                                                                                                    
200203f0  __CIOBUF_                                                                                                                                                                                
20010000  __STACK_END                                                                                                                                                                              
00010000  __STACK_SIZE                                                                                                                                                                             
20000200  __STACK_TOP                                                                                                                                                                              
00010000  __SYSMEM_SIZE                                                                                                                                                                            
00018798  __TI_CINIT_Base                                                                                                                                                                          
000187a8  __TI_CINIT_Limit                                                                                                                                                                         
00018784  __TI_Handler_Table_Base                                                                                                                                                                  
00018790  __TI_Handler_Table_Limit                                                                                                                                                                 
00012951  __TI_auto_init_nobinit                                                                                                                                                                   
0001021d  __TI_buff_read                                                                                                                                                                           
000143fd  __TI_cleanup                                                                                                                                                                             
200213cc  __TI_cleanup_ptr                                                                                                                                                                         
00011ec1  __TI_closefile                                                                                                                                                                           
00012569  __TI_decompress_lzss                                                                                                                                                                     
000163cd  __TI_decompress_none                                                                                                                                                                     
00013259  __TI_doflush                                                                                                                                                                             
200213d0  __TI_dtors_ptr                                                                                                                                                                           
200213d4  __TI_enable_exit_profile_output                                                                                                                                                          
200213bc  __TI_ft_end                                                                                                                                                                              
ffffffff  __TI_pprof_out_hndl                                                                                                                                                                      
00000cf9  __TI_printfi                                                                                                                                                                             
ffffffff  __TI_prof_data_size                                                                                                                                                                      
ffffffff  __TI_prof_data_start                                                                                                                                                                     
00013387  __TI_rd_ok                                                                                                                                                                               
00014431  __TI_readmsg                                                                                                                                                                             
00000209  __TI_scanfi                                                                                                                                                                              
00000000  __TI_static_base__                                                                                                                                                                       
200205b0  __TI_tmpnams                                                                                                                                                                             
00014215  __TI_writemsg                                                                                                                                                                            
0001288f  __TI_wrt_ok                                                                                                                                                                              
0001664d  __TI_zero_init                                                                                                                                                                           
000169cb  ___mb_cur_max_l                                                                                                                                                                          
000169cf  __abort_execution                                                                                                                                                                        
00014465  __aeabi_atexit                                                                                                                                                                           
00010c8d  __aeabi_cdcmpeq                                                                                                                                                                          
00010c8d  __aeabi_cdcmple                                                                                                                                                                          
00010d13  __aeabi_cdrcmple                                                                                                                                                                         
00012015  __aeabi_d2f                                                                                                                                                                              
000135c9  __aeabi_d2iz                                                                                                                                                                             
0000978b  __aeabi_dadd                                                                                                                                                                             
0000cd99  __aeabi_ddiv                                                                                                                                                                             
0000de2b  __aeabi_dmul                                                                                                                                                                             
00009781  __aeabi_dsub                                                                                                                                                                             
00016779  __aeabi_errno_addr                                                                                                                                                                       
000149fd  __aeabi_i2d                                                                                                                                                                              
00011c7b  __aeabi_idiv0                                                                                                                                                                            
00011c7b  __aeabi_ldiv0                                                                                                                                                                            
00015b7d  __aeabi_lmul                                                                                                                                                                             
000115fb  __aeabi_memclr                                                                                                                                                                           
000115fb  __aeabi_memclr4                                                                                                                                                                          
000115fb  __aeabi_memclr8                                                                                                                                                                          
000102b9  __aeabi_memcpy                                                                                                                                                                           
000102b9  __aeabi_memcpy4                                                                                                                                                                          
000102b9  __aeabi_memcpy8                                                                                                                                                                          
000115fd  __aeabi_memset                                                                                                                                                                           
000115fd  __aeabi_memset4                                                                                                                                                                          
000115fd  __aeabi_memset8                                                                                                                                                                          
200213c8  __aeabi_stderr                                                                                                                                                                           
200213c0  __aeabi_stdin                                                                                                                                                                            
200213c4  __aeabi_stdout                                                                                                                                                                           
000106e1  __aeabi_uldivmod                                                                                                                                                                         
ffffffff  __binit__                                                                                                                                                                                
ffffffff  __c_args__                                                                                                                                                                               
00016635  __cxa_guard_acquire                                                                                                                                                                      
0001671f  __cxa_guard_release                                                                                                                                                                      
00016641  __cxa_ia64_exit                                                                                                                                                                          
00015005  __cxa_vec_ctor                                                                                                                                                                           
000157e1  __cxa_vec_dtor                                                                                                                                                                           
20020af0  __dso_handle                                                                                                                                                                             
UNDEFED   __mpu_init                                                                                                                                                                               
20000000  __stack                                                                                                                                                                                  
00004353  __sti___11_Monitor_cpp_3f121771                                                                                                                                                          
00015261  __sti___12_iostream_cpp_d173592a__prio101                                                                                                                                                
0000b54b  __sti___15_ISRMsgMaker_cpp_eccfd1d2                                                                                                                                                      
00002d05  __sti___15_TimeHandler_cpp_6e5cdf1e                                                                                                                                                      
0000bdf7  __sti___15_UART0Driver_cpp_941492a3                                                                                                                                                      
000031ed  __sti___16_ComandCenter_cpp_a0fed181                                                                                                                                                     
0000fb8f  __sti___17_SysTickDriver_cpp_2c575148                                                                                                                                                    
00009951  __sti___8_main_cpp_main                                                                                                                                                                  
0000ced1  __vla_alloc                                                                                                                                                                              
000118cd  __vla_dealloc                                                                                                                                                                            
0001424d  _c_int00_noargs                                                                                                                                                                          
00016bec  _ctypes_                                                                                                                                                                                 
200212e4  _device                                                                                                                                                                                  
200211f4  _ftable                                                                                                                                                                                  
200213e4  _lock                                                                                                                                                                                    
00010777  _nop                                                                                                                                                                                     
2002135c  _stream                                                                                                                                                                                  
20010000  _sys_memory                                                                                                                                                                              
UNDEFED   _system_post_cinit                                                                                                                                                                       
000169d3  _system_pre_init                                                                                                                                                                         
200213ac  _tz                                                                                                                                                                                      
200213e8  _unlock                                                                                                                                                                                  
000169d7  abort                                                                                                                                                                                    
0001591f  asprintf_l                                                                                                                                                                               
000132a5  atoi                                                                                                                                                                                     
ffffffff  binit                                                                                                                                                                                    
00012b85  close                                                                                                                                                                                    
00015dd1  copysign                                                                                                                                                                                 
00015e8d  copysignf                                                                                                                                                                                
00015dd1  copysignl                                                                                                                                                                                
20021490  errno                                                                                                                                                                                    
00013581  exit                                                                                                                                                                                     
00011411  fflush                                                                                                                                                                                   
00010ea1  fgetc                                                                                                                                                                                    
00010ea1  fgetwc                                                                                                                                                                                   
000147a5  finddevice                                                                                                                                                                               
0000eac5  free                                                                                                                                                                                     
0001140f  freelocale                                                                                                                                                                               
00012765  frexp                                                                                                                                                                                    
00012765  frexpl                                                                                                                                                                                   
000127c9  fseek                                                                                                                                                                                    
0000b9f9  fwrite                                                                                                                                                                                   
00000000  g_pfnVectors                                                                                                                                                                             
00010ea1  getc                                                                                                                                                                                     
000139d5  getdevice                                                                                                                                                                                
00015281  iswlower                                                                                                                                                                                 
0000da01  ldexp                                                                                                                                                                                    
0000eee9  ldexpf                                                                                                                                                                                   
0000da01  ldexpl                                                                                                                                                                                   
00014c61  lseek                                                                                                                                                                                    
00012efb  ltoa                                                                                                                                                                                     
00009939  main                                                                                                                                                                                     
00011945  malloc                                                                                                                                                                                   
00016659  mbrlen                                                                                                                                                                                   
000169db  mbrlen_l                                                                                                                                                                                 
00014e0b  mbrtowc                                                                                                                                                                                  
000169df  mbrtowc_l                                                                                                                                                                                
00013041  mbsnrtowcs                                                                                                                                                                               
00016665  mbsnrtowcs_l                                                                                                                                                                             
00016071  mbsrtowcs                                                                                                                                                                                
000169e3  mbsrtowcs_l                                                                                                                                                                              
000149cf  mbtowc                                                                                                                                                                                   
000169e7  mbtowc_l                                                                                                                                                                                 
000157fd  memccpy                                                                                                                                                                                  
000152a1  memchr                                                                                                                                                                                   
00015029  memcmp                                                                                                                                                                                   
000102b9  memcpy                                                                                                                                                                                   
0001504d  memmove                                                                                                                                                                                  
00011603  memset                                                                                                                                                                                   
00014285  minit                                                                                                                                                                                    
000169eb  newlocale                                                                                                                                                                                
20020ad0  parmbuf                                                                                                                                                                                  
00014cb1  read                                                                                                                                                                                     
0000d7dd  realloc                                                                                                                                                                                  
00014b8d  remove                                                                                                                                                                                   
0000da01  scalbn                                                                                                                                                                                   
0000eee9  scalbnf                                                                                                                                                                                  
0000da01  scalbnl                                                                                                                                                                                  
0000e835  setvbuf                                                                                                                                                                                  
000132f1  snprintf                                                                                                                                                                                 
00015819  snprintf_l                                                                                                                                                                               
000142bd  sscanf                                                                                                                                                                                   
00015939  sscanf_l                                                                                                                                                                                 
00015ca1  strchr                                                                                                                                                                                   
00015b95  strcmp                                                                                                                                                                                   
00015de5  strcpy                                                                                                                                                                                   
000033e9  strftime                                                                                                                                                                                 
000169ef  strftime_l                                                                                                                                                                               
00015df9  strlen                                                                                                                                                                                   
000142f5  strncpy                                                                                                                                                                                  
00015bad  strrchr                                                                                                                                                                                  
00003cad  strtod                                                                                                                                                                                   
00016081  strtod_l                                                                                                                                                                                 
0000454d  strtof                                                                                                                                                                                   
000169f3  strtof_l                                                                                                                                                                                 
0000d005  strtol                                                                                                                                                                                   
00003cad  strtold                                                                                                                                                                                  
00016091  strtold_l                                                                                                                                                                                
0000819d  strtoll                                                                                                                                                                                  
000169f7  strtoll_l                                                                                                                                                                                
0000db11  strtoul                                                                                                                                                                                  
0000bfb1  strtoull                                                                                                                                                                                 
000169fb  strtoull_l                                                                                                                                                                               
000110a5  ungetc                                                                                                                                                                                   
00014b8d  unlink                                                                                                                                                                                   
0001432b  vasprintf                                                                                                                                                                                
00016789  vasprintf_l                                                                                                                                                                              
00013d1d  vsnprintf                                                                                                                                                                                
000152c1  vsscanf                                                                                                                                                                                  
000152e1  wcrtomb                                                                                                                                                                                  
000169ff  wcrtomb_l                                                                                                                                                                                
00015e9f  wcslen                                                                                                                                                                                   
00011aa9  wcsnrtombs                                                                                                                                                                               
0001667d  wcsnrtombs_l                                                                                                                                                                             
0001681b  wmemcpy                                                                                                                                                                                  
00016821  wmemmove                                                                                                                                                                                 
00015e0d  wmemset                                                                                                                                                                                  
00014cd9  write                                                                                                                                                                                    


GLOBAL SYMBOLS: SORTED BY Symbol Address 

address   name                                                                                                                                                                                     
-------   ----                                                                                                                                                                                     
00000000  __TI_static_base__                                                                                                                                                                       
00000000  g_pfnVectors                                                                                                                                                                             
00000209  __TI_scanfi                                                                                                                                                                              
00000cf9  __TI_printfi                                                                                                                                                                             
00001757  _ZNKSt3__222__compressed_pair_elemINS_12basic_stringIwNS_11char_traitsIwEENS_9allocatorIwEEE5__repELi0ELb0EE5__getEv                                                                     
00001759  _ZNSt3__29money_getIcNS_19istreambuf_iteratorIcNS_11char_traitsIcEEEEE8__do_getERS4_S4_bRKNS_6localeEjRjRbRKNS_5ctypeIcEERNS_10unique_ptrIcPFvPvEEERPcSM_                                
000020af  _ZNKSt3__28messagesIcE8do_closeEi                                                                                                                                                        
000020b1  _ZNSt3__29money_getIwNS_19istreambuf_iteratorIwNS_11char_traitsIwEEEEE8__do_getERS4_S4_bRKNS_6localeEjRjRbRKNS_5ctypeIwEERNS_10unique_ptrIwPFvPvEEERPwSM_                                
00002921  _ZN11TimeHandler7SetTimeER3smh                                                                                                                                                           
00002941  _ZN11TimeHandler7SetDateER3dmy                                                                                                                                                           
00002955  _ZN11TimeHandler8SetAlarmER3smh                                                                                                                                                          
00002961  _ZN11TimeHandler12TickTenthSecEv                                                                                                                                                         
00002981  _ZN11TimeHandler7TickSecEv                                                                                                                                                               
000029a1  _ZN11TimeHandler7TickMinEv                                                                                                                                                               
000029c1  _ZN11TimeHandler8TickHourEv                                                                                                                                                              
000029e1  _ZN11TimeHandler7TickDayEv                                                                                                                                                               
00002a2b  _ZN11TimeHandler9TickMonthEv                                                                                                                                                             
00002a4b  _ZN11TimeHandler8TickYearEv                                                                                                                                                              
00002a73  _ZN11TimeHandler13CheckLeapYearEv                                                                                                                                                        
00002ac7  _ZN11TimeHandler10CheckAlarmEv                                                                                                                                                           
00002b19  _ZN11TimeHandler12CreateSMHStrER3smh                                                                                                                                                     
00002bad  _ZN11TimeHandler12CreateDMYStrER3dmy                                                                                                                                                     
00002c3d  _ZN11TimeHandler18LexicalIntToStringEth                                                                                                                                                  
00002cef  _ZN11TimeHandler14GetTimeHandlerEv                                                                                                                                                       
00002d05  __sti___15_TimeHandler_cpp_6e5cdf1e                                                                                                                                                      
00002f1d  _ZN13CommandCenterC1Ev                                                                                                                                                                   
00002f1d  _ZN13CommandCenterC2Ev                                                                                                                                                                   
00002f4b  _ZN13CommandCenter13HandleCommandENSt3__212basic_stringIcNS0_11char_traitsIcEENS0_9allocatorIcEEEE                                                                                       
000030ef  _ZN13CommandCenter11TimeCommandENSt3__212basic_stringIcNS0_11char_traitsIcEENS0_9allocatorIcEEEE                                                                                         
000030ff  _ZN13CommandCenter11DateCommandENSt3__212basic_stringIcNS0_11char_traitsIcEENS0_9allocatorIcEEEE                                                                                         
0000310f  _ZN13CommandCenter12AlarmCommandENSt3__212basic_stringIcNS0_11char_traitsIcEENS0_9allocatorIcEEEE                                                                                        
00003129  _ZN13CommandCenter7ToUpperERNSt3__212basic_stringIcNS0_11char_traitsIcEENS0_9allocatorIcEEEE                                                                                             
00003179  _ZN13CommandCenter16GetCommandCenterEv                                                                                                                                                   
000031ed  __sti___16_ComandCenter_cpp_a0fed181                                                                                                                                                     
000033e9  strftime                                                                                                                                                                                 
0000384d  _ZNSt3__26locale5__impC1Ej                                                                                                                                                               
0000384d  _ZNSt3__26locale5__impC2Ej                                                                                                                                                               
00003cad  strtod                                                                                                                                                                                   
00003cad  strtold                                                                                                                                                                                  
0000410d  _ZN7MonitorC1Ev                                                                                                                                                                          
0000410d  _ZN7MonitorC2Ev                                                                                                                                                                          
00004153  _ZN7Monitor11CentralLoopEv                                                                                                                                                               
00004191  _ZN7Monitor19CheckMessageHandlerER7MsgTypeRc                                                                                                                                             
000041f3  _ZN7Monitor10HandleUARTEc                                                                                                                                                                
000042f7  _ZN7Monitor13HandleSYSTICKEv                                                                                                                                                             
00004301  _ZN7Monitor12PrintNewLineEv                                                                                                                                                              
00004323  _ZN7Monitor8PrintMsgENSt3__212basic_stringIcNS0_11char_traitsIcEENS0_9allocatorIcEEEE                                                                                                    
0000434d  _ZN7Monitor10GetMonitorEv                                                                                                                                                                
00004353  __sti___11_Monitor_cpp_3f121771                                                                                                                                                          
0000454d  strtof                                                                                                                                                                                   
00004915  _ZNSt3__211__money_getIcE13__gather_infoEbRKNS_6localeERNS_10money_base7patternERcS8_RNS_12basic_stringIcNS_11char_traitsIcEENS_9allocatorIcEEEESF_SF_SF_Ri                              
00004cc5  _ZNSt3__211__money_getIwE13__gather_infoEbRKNS_6localeERNS_10money_base7patternERwS8_RNS_12basic_stringIcNS_11char_traitsIcEENS_9allocatorIcEEEERNS9_IwNSA_IwEENSC_IwEEEESJ_SJ_Ri        
00005075  _ZNSt3__211__money_putIcE13__gather_infoEbbRKNS_6localeERNS_10money_base7patternERcS8_RNS_12basic_stringIcNS_11char_traitsIcEENS_9allocatorIcEEEESF_SF_Ri                                
000053bd  _ZNSt3__211__money_putIwE13__gather_infoEbbRKNS_6localeERNS_10money_base7patternERwS8_RNS_12basic_stringIcNS_11char_traitsIcEENS_9allocatorIcEEEERNS9_IwNSA_IwEENSC_IwEEEESJ_Ri          
00005705  _ZNKSt3__28time_getIcNS_19istreambuf_iteratorIcNS_11char_traitsIcEEEEE6do_getES4_S4_RNS_8ios_baseERjP2tmcc                                                                               
00005a01  _ZNKSt3__28time_getIwNS_19istreambuf_iteratorIwNS_11char_traitsIwEEEEE6do_getES4_S4_RNS_8ios_baseERjP2tmcc                                                                               
00005cf9  _ZNSt3__211__money_putIwE8__formatEPwRS2_S3_jPKwS5_RKNS_5ctypeIwEEbRKNS_10money_base7patternEwwRKNS_12basic_stringIcNS_11char_traitsIcEENS_9allocatorIcEEEERKNSE_IwNSF_IwEENSH_IwEEEESQ_i
00005f9d  _ZNSt3__211__money_putIcE8__formatEPcRS2_S3_jPKcS5_RKNS_5ctypeIcEEbRKNS_10money_base7patternEccRKNS_12basic_stringIcNS_11char_traitsIcEENS_9allocatorIcEEEESL_SL_i                       
00006237  _ZNKSt3__28messagesIwE8do_closeEi                                                                                                                                                        
00006239  _ZNSt3__28ios_base4InitC1Ev                                                                                                                                                              
00006239  _ZNSt3__28ios_base4InitC2Ev                                                                                                                                                              
000064cd  _ZNKSt3__220__time_get_c_storageIwE8__monthsEv                                                                                                                                           
00006745  _ZNKSt3__29money_getIcNS_19istreambuf_iteratorIcNS_11char_traitsIcEEEEE6do_getES4_S4_bRNS_8ios_baseERjRNS_12basic_stringIcS3_NS_9allocatorIcEEEE                                         
000069b9  _ZNSt3__29__num_putIwE23__widen_and_group_floatEPcS2_S2_PwRS3_S4_RKNS_6localeE                                                                                                           
00006e9d  _ZNSt3__29__num_putIcE23__widen_and_group_floatEPcS2_S2_S2_RS2_S3_RKNS_6localeE                                                                                                          
00007105  _ZNKSt3__29money_putIwNS_19ostreambuf_iteratorIwNS_11char_traitsIwEEEEE6do_putES4_bRNS_8ios_baseEwe                                                                                      
00007355  _ZNKSt3__29money_getIwNS_19istreambuf_iteratorIwNS_11char_traitsIwEEEEE6do_getES4_S4_bRNS_8ios_baseERjRNS_12basic_stringIwS3_NS_9allocatorIwEEEE                                         
0000759d  _ZNKSt3__29money_putIcNS_19ostreambuf_iteratorIcNS_11char_traitsIcEEEEE6do_putES4_bRNS_8ios_baseEce                                                                                      
000077d9  _ZNKSt3__220__time_get_c_storageIcE8__monthsEv                                                                                                                                           
000079d5  _ZNKSt3__29money_putIwNS_19ostreambuf_iteratorIwNS_11char_traitsIwEEEEE6do_putES4_bRNS_8ios_baseEwRKNS_12basic_stringIwS3_NS_9allocatorIwEEEE                                            
00007bcd  _ZNKSt3__29money_putIcNS_19ostreambuf_iteratorIcNS_11char_traitsIcEEEEE6do_putES4_bRNS_8ios_baseEcRKNS_12basic_stringIcS3_NS_9allocatorIcEEEE                                            
00007dc1  _ZNSt3__214__scan_keywordINS_19istreambuf_iteratorIcNS_11char_traitsIcEEEEPKNS_12basic_stringIcS3_NS_9allocatorIcEEEENS_5ctypeIcEEEET0_RT_SE_SD_SD_RKT1_Rjb                              
00007fb1  _ZNSt3__214__scan_keywordINS_19istreambuf_iteratorIwNS_11char_traitsIwEEEEPKNS_12basic_stringIwS3_NS_9allocatorIwEEEENS_5ctypeIwEEEET0_RT_SE_SD_SD_RKT1_Rjb                              
0000819d  strtoll                                                                                                                                                                                  
00008379  _ZNKSt3__27num_getIwNS_19istreambuf_iteratorIwNS_11char_traitsIwEEEEE15__do_get_signedIlEES4_S4_S4_RNS_8ios_baseERjRT_                                                                   
00008551  _ZNKSt3__27num_getIwNS_19istreambuf_iteratorIwNS_11char_traitsIwEEEEE15__do_get_signedIxEES4_S4_S4_RNS_8ios_baseERjRT_                                                                   
00008729  _ZNKSt3__27num_getIwNS_19istreambuf_iteratorIwNS_11char_traitsIwEEEEE17__do_get_unsignedIjEES4_S4_S4_RNS_8ios_baseERjRT_                                                                 
00008901  _ZNKSt3__27num_getIwNS_19istreambuf_iteratorIwNS_11char_traitsIwEEEEE17__do_get_unsignedImEES4_S4_S4_RNS_8ios_baseERjRT_                                                                 
00008ad9  _ZNKSt3__27num_getIwNS_19istreambuf_iteratorIwNS_11char_traitsIwEEEEE17__do_get_unsignedItEES4_S4_S4_RNS_8ios_baseERjRT_                                                                 
00008cb1  _ZNKSt3__27num_getIwNS_19istreambuf_iteratorIwNS_11char_traitsIwEEEEE17__do_get_unsignedIyEES4_S4_S4_RNS_8ios_baseERjRT_                                                                 
00009229  _ZNSt3__29__num_putIwE21__widen_and_group_intEPcS2_S2_PwRS3_S4_RKNS_6localeE                                                                                                             
000093f5  _ZNSt3__29__num_putIcE21__widen_and_group_intEPcS2_S2_S2_RS2_S3_RKNS_6localeE                                                                                                            
000095bd  _ZNKSt3__27num_getIwNS_19istreambuf_iteratorIwNS_11char_traitsIwEEEEE6do_getES4_S4_RNS_8ios_baseERjRPv                                                                                   
00009781  __aeabi_dsub                                                                                                                                                                             
0000978b  __aeabi_dadd                                                                                                                                                                             
00009937  _ZNSt3__212__do_nothingEPv                                                                                                                                                               
00009939  main                                                                                                                                                                                     
00009951  __sti___8_main_cpp_main                                                                                                                                                                  
00009aed  _ZNKSt3__220__time_get_c_storageIwE7__weeksEv                                                                                                                                            
00009c9d  _ZNKSt3__27num_getIcNS_19istreambuf_iteratorIcNS_11char_traitsIcEEEEE15__do_get_signedIxEES4_S4_S4_RNS_8ios_baseERjRT_                                                                   
00009e4d  _ZNKSt3__27num_getIcNS_19istreambuf_iteratorIcNS_11char_traitsIcEEEEE17__do_get_unsignedIyEES4_S4_S4_RNS_8ios_baseERjRT_                                                                 
00009ffd  _ZNKSt3__27num_getIcNS_19istreambuf_iteratorIcNS_11char_traitsIcEEEEE6do_getES4_S4_RNS_8ios_baseERjRPv                                                                                   
0000a1ad  _ZNKSt3__27num_getIcNS_19istreambuf_iteratorIcNS_11char_traitsIcEEEEE15__do_get_signedIlEES4_S4_S4_RNS_8ios_baseERjRT_                                                                   
0000a359  _ZNKSt3__27num_getIcNS_19istreambuf_iteratorIcNS_11char_traitsIcEEEEE17__do_get_unsignedIjEES4_S4_S4_RNS_8ios_baseERjRT_                                                                 
0000a505  _ZNKSt3__27num_getIcNS_19istreambuf_iteratorIcNS_11char_traitsIcEEEEE17__do_get_unsignedImEES4_S4_S4_RNS_8ios_baseERjRT_                                                                 
0000a6b1  _ZNKSt3__27num_getIcNS_19istreambuf_iteratorIcNS_11char_traitsIcEEEEE17__do_get_unsignedItEES4_S4_S4_RNS_8ios_baseERjRT_                                                                 
0000a85d  _ZNKSt3__27num_getIcNS_19istreambuf_iteratorIcNS_11char_traitsIcEEEEE23__do_get_floating_pointIdEES4_S4_S4_RNS_8ios_baseERjRT_                                                           
0000aa09  _ZNKSt3__27num_getIcNS_19istreambuf_iteratorIcNS_11char_traitsIcEEEEE23__do_get_floating_pointIeEES4_S4_S4_RNS_8ios_baseERjRT_                                                           
0000abb5  _ZNKSt3__27num_getIwNS_19istreambuf_iteratorIwNS_11char_traitsIwEEEEE23__do_get_floating_pointIdEES4_S4_S4_RNS_8ios_baseERjRT_                                                           
0000ad5f  _ZNKSt3__27num_getIwNS_19istreambuf_iteratorIwNS_11char_traitsIwEEEEE23__do_get_floating_pointIeEES4_S4_S4_RNS_8ios_baseERjRT_                                                           
0000af09  _ZNKSt3__27num_getIcNS_19istreambuf_iteratorIcNS_11char_traitsIcEEEEE23__do_get_floating_pointIfEES4_S4_S4_RNS_8ios_baseERjRT_                                                           
0000b0b1  _ZNKSt3__27num_getIwNS_19istreambuf_iteratorIwNS_11char_traitsIwEEEEE23__do_get_floating_pointIfEES4_S4_S4_RNS_8ios_baseERjRT_                                                           
0000b257  _ZNSt3__214__shared_countD1Ev                                                                                                                                                            
0000b257  _ZNSt3__214__shared_countD2Ev                                                                                                                                                            
0000b259  _ZNKSt3__28time_getIwNS_19istreambuf_iteratorIwNS_11char_traitsIwEEEEE3getES4_S4_RNS_8ios_baseERjP2tmPKwSC_                                                                              
0000b3e9  _ZN11ISRMsgMakerC1Ev                                                                                                                                                                     
0000b3e9  _ZN11ISRMsgMakerC2Ev                                                                                                                                                                     
0000b453  _ZN11ISRMsgMaker8QueueMsgE7MsgTypec                                                                                                                                                      
0000b47f  _ZN11ISRMsgMaker12GetFromQueueER7MsgTypeRc                                                                                                                                               
0000b4ad  _ZN11ISRMsgMaker13CheckISRQueueEv                                                                                                                                                        
0000b4bd  _ZN11ISRMsgMaker14QueueOutputMsgENSt3__212basic_stringIcNS0_11char_traitsIcEENS0_9allocatorIcEEEE                                                                                        
0000b521  _ZN11ISRMsgMaker17OutputBufferEmptyEv                                                                                                                                                    
0000b533  _ZN11ISRMsgMaker13GetOutputCharEv                                                                                                                                                        
0000b545  _ZN11ISRMsgMaker14GetISRMsgMakerEv                                                                                                                                                       
0000b54b  __sti___15_ISRMsgMaker_cpp_eccfd1d2                                                                                                                                                      
0000b571  _ZNKSt3__28time_getIcNS_19istreambuf_iteratorIcNS_11char_traitsIcEEEEE3getES4_S4_RNS_8ios_baseERjP2tmPKcSC_                                                                              
0000b877  _ZNSt3__215basic_streambufIcNS_11char_traitsIcEEE5imbueERKNS_6localeE                                                                                                                    
0000b879  _ZNKSt3__29money_getIcNS_19istreambuf_iteratorIcNS_11char_traitsIcEEEEE6do_getES4_S4_bRNS_8ios_baseERjRe                                                                                 
0000b9f9  fwrite                                                                                                                                                                                   
0000bced  _ZN11UART0DriverC1Ev                                                                                                                                                                     
0000bced  _ZN11UART0DriverC2Ev                                                                                                                                                                     
0000bd03  _ZN11UART0Driver9UART0InitEv                                                                                                                                                             
0000bd63  _ZN11UART0Driver11UART0EnableEm                                                                                                                                                          
0000bd79  _ZN11UART0Driver12UART0HandlerEv                                                                                                                                                         
0000bddb  _ZN11UART0Driver15JumpStartOutputEc                                                                                                                                                      
0000bdf1  _ZN11UART0Driver14GetUART0DriverEv                                                                                                                                                       
0000bdf7  __sti___15_UART0Driver_cpp_941492a3                                                                                                                                                      
0000be55  _ZNKSt3__220__time_get_c_storageIcE7__weeksEv                                                                                                                                            
0000bfb1  strtoull                                                                                                                                                                                 
0000c10d  _ZNSt3__29__num_getIwE19__stage2_float_loopEwRbRcPcRS4_wwRKNS_12basic_stringIcNS_11char_traitsIcEENS_9allocatorIcEEEEPjRSE_RjPw                                                          
0000c3a1  _ZNSt3__29__num_getIcE19__stage2_float_loopEcRbRcPcRS4_ccRKNS_12basic_stringIcNS_11char_traitsIcEENS_9allocatorIcEEEEPjRSE_RjS4_                                                         
0000c4e9  _ZNKSt3__27num_putIcNS_19ostreambuf_iteratorIcNS_11char_traitsIcEEEEE6do_putES4_RNS_8ios_baseEcd                                                                                         
0000c629  _ZNKSt3__27num_putIwNS_19ostreambuf_iteratorIwNS_11char_traitsIwEEEEE6do_putES4_RNS_8ios_baseEwe                                                                                         
0000c8a7  _ZNSt3__215basic_streambufIcNS_11char_traitsIcEEE6setbufEPci                                                                                                                             
0000c8a9  _ZNKSt3__27num_putIcNS_19ostreambuf_iteratorIcNS_11char_traitsIcEEEEE6do_putES4_RNS_8ios_baseEce                                                                                         
0000c9e5  _ZNKSt3__27num_putIwNS_19ostreambuf_iteratorIwNS_11char_traitsIwEEEEE6do_putES4_RNS_8ios_baseEwd                                                                                         
0000cb21  _ZNKSt3__29money_getIwNS_19istreambuf_iteratorIwNS_11char_traitsIwEEEEE6do_getES4_S4_bRNS_8ios_baseERjRe                                                                                 
0000cd99  __aeabi_ddiv                                                                                                                                                                             
0000cecf  _ZNSt3__215basic_streambufIwNS_11char_traitsIwEEE5imbueERKNS_6localeE                                                                                                                    
0000ced1  __vla_alloc                                                                                                                                                                              
0000d005  strtol                                                                                                                                                                                   
0000d135  _ZNKSt3__27codecvtIwciE5do_inERiPKcS4_RS4_PwS6_RS6_                                                                                                                                      
0000d381  _ZNSt3__216__pad_and_outputIwNS_11char_traitsIwEEEENS_19ostreambuf_iteratorIT_T0_EES6_PKS4_S8_S8_RNS_8ios_baseES4_                                                                       
0000d49d  _ZNKSt3__27codecvtIwciE6do_outERiPKwS4_RS4_PcS6_RS6_                                                                                                                                     
0000d5b5  _ZNSt3__210__stdinbufIwE9__getcharEb                                                                                                                                                     
0000d6c9  _ZNSt3__212basic_stringIwNS_11char_traitsIwEENS_9allocatorIwEEE7reserveEj                                                                                                                
0000d7dd  realloc                                                                                                                                                                                  
0000d8f1  _ZNSt3__210__stdinbufIcE9__getcharEb                                                                                                                                                     
0000da01  ldexp                                                                                                                                                                                    
0000da01  ldexpl                                                                                                                                                                                   
0000da01  scalbn                                                                                                                                                                                   
0000da01  scalbnl                                                                                                                                                                                  
0000db11  strtoul                                                                                                                                                                                  
0000dc21  _ZNSt3__212basic_stringIwNS_11char_traitsIwEENS_9allocatorIwEEE21__grow_by_and_replaceEjjjjjjPKw                                                                                         
0000de2b  __aeabi_dmul                                                                                                                                                                             
0000df27  _ZNSt3__212basic_stringIcNS_11char_traitsIcEENS_9allocatorIcEEE7reserveEj                                                                                                                
0000e019  _ZNSt3__212basic_stringIcNS_11char_traitsIcEENS_9allocatorIcEEE21__grow_by_and_replaceEjjjjjjPKc                                                                                         
0000e109  _ZNSt3__220__get_up_to_n_digitsIwNS_19istreambuf_iteratorIwNS_11char_traitsIwEEEEEEiRT0_S5_RjRKNS_5ctypeIT_EEi                                                                           
0000e1f7  _ZNSt3__215basic_streambufIwNS_11char_traitsIwEEE6setbufEPwi                                                                                                                             
0000e1f9  _ZNSt3__29__num_getIcE17__stage2_int_loopEciPcRS2_RjcRKNS_12basic_stringIcNS_11char_traitsIcEENS_9allocatorIcEEEEPjRSD_PKc                                                               
0000e2e5  _ZNSt3__29__num_getIwE17__stage2_int_loopEwiPcRS2_RjwRKNS_12basic_stringIcNS_11char_traitsIcEENS_9allocatorIcEEEEPjRSD_PKw                                                               
0000e3d1  _ZNKSt3__220__time_get_c_storageIwE3__cEv                                                                                                                                                
0000e4b9  _ZNSt3__220__get_up_to_n_digitsIcNS_19istreambuf_iteratorIcNS_11char_traitsIcEEEEEEiRT0_S5_RjRKNS_5ctypeIT_EEi                                                                           
0000e59d  _ZNSt3__26vectorIPNS_6locale5facetENS_15__sso_allocatorIS3_Lj28EEEE8__appendEj                                                                                                           
0000e67d  _ZNKSt3__27num_getIcNS_19istreambuf_iteratorIcNS_11char_traitsIcEEEEE6do_getES4_S4_RNS_8ios_baseERjRb                                                                                    
0000e759  _ZNKSt3__27num_getIwNS_19istreambuf_iteratorIwNS_11char_traitsIwEEEEE6do_getES4_S4_RNS_8ios_baseERjRb                                                                                    
0000e835  setvbuf                                                                                                                                                                                  
0000e911  _ZNSt3__212basic_stringIcNS_11char_traitsIcEENS_9allocatorIcEEE6insertEjPKcj                                                                                                             
0000e9eb  _ZNSt3__222__compressed_pair_elemINS_12basic_stringIwNS_11char_traitsIwEENS_9allocatorIwEEE5__repELi0ELb0EE5__getEv                                                                      
0000e9ed  _ZNSt3__212basic_stringIwNS_11char_traitsIwEENS_9allocatorIwEEE9__grow_byEjjjjjj                                                                                                         
0000eac5  free                                                                                                                                                                                     
0000eb9d  _ZNSt3__216__pad_and_outputIcNS_11char_traitsIcEEEENS_19ostreambuf_iteratorIT_T0_EES6_PKS4_S8_S8_RNS_8ios_baseES4_                                                                       
0000ec73  _ZNSt3__222__compressed_pair_elemINS_9allocatorIcEELi1ELb1EEC1IRKS2_vEEOT_                                                                                                               
0000ec75  _ZNKSt3__220__time_get_c_storageIwE3__rEv                                                                                                                                                
0000ed49  _ZNKSt3__220__time_get_c_storageIwE3__XEv                                                                                                                                                
0000ee19  _ZNKSt3__220__time_get_c_storageIwE3__xEv                                                                                                                                                
0000eee9  ldexpf                                                                                                                                                                                   
0000eee9  scalbnf                                                                                                                                                                                  
0000efb9  _ZNKSt3__27num_putIcNS_19ostreambuf_iteratorIcNS_11char_traitsIcEEEEE6do_putES4_RNS_8ios_baseEcx                                                                                         
0000f085  _ZNKSt3__27num_putIwNS_19ostreambuf_iteratorIwNS_11char_traitsIwEEEEE6do_putES4_RNS_8ios_baseEwx                                                                                         
0000f151  _ZNSt3__213basic_ostreamIcNS_11char_traitsIcEEElsEi                                                                                                                                      
0000f219  _ZNSt3__213basic_ostreamIcNS_11char_traitsIcEEElsEt                                                                                                                                      
0000f2e1  _ZNKSt3__27num_putIcNS_19ostreambuf_iteratorIcNS_11char_traitsIcEEEEE6do_putES4_RNS_8ios_baseEcy                                                                                         
0000f3a5  _ZNKSt3__27num_putIwNS_19ostreambuf_iteratorIwNS_11char_traitsIwEEEEE6do_putES4_RNS_8ios_baseEwy                                                                                         
0000f469  _ZNSt3__224__put_character_sequenceIcNS_11char_traitsIcEEEERNS_13basic_ostreamIT_T0_EES7_PKS4_j                                                                                          
0000f52d  _ZNKSt3__27num_putIcNS_19ostreambuf_iteratorIcNS_11char_traitsIcEEEEE6do_putES4_RNS_8ios_baseEcl                                                                                         
0000f5ed  _ZNKSt3__27num_putIcNS_19ostreambuf_iteratorIcNS_11char_traitsIcEEEEE6do_putES4_RNS_8ios_baseEcm                                                                                         
0000f6ad  _ZNKSt3__27num_putIwNS_19ostreambuf_iteratorIwNS_11char_traitsIwEEEEE6do_putES4_RNS_8ios_baseEwl                                                                                         
0000f76d  _ZNKSt3__27num_putIwNS_19ostreambuf_iteratorIwNS_11char_traitsIwEEEEE6do_putES4_RNS_8ios_baseEwm                                                                                         
0000f82d  _ZNSt3__212basic_stringIcNS_11char_traitsIcEENS_9allocatorIcEEE9__grow_byEjjjjjj                                                                                                         
0000f8ed  _ZNSt3__211__stdoutbufIwE8overflowEi                                                                                                                                                     
0000f9a9  _ZNSt3__211__stdoutbufIcE8overflowEi                                                                                                                                                     
0000fa5b  _ZNSt3__222__compressed_pair_elemINS_9allocatorIcEELi1ELb1EEC1IS2_vEEOT_                                                                                                                 
0000fb0f  _ZNSt3__222__compressed_pair_elemINS_9allocatorIwEELi1ELb1EEC1IS2_vEEOT_                                                                                                                 
0000fb11  _ZN13SysTickDriverC1Ev                                                                                                                                                                   
0000fb11  _ZN13SysTickDriverC2Ev                                                                                                                                                                   
0000fb2d  _ZN13SysTickDriver12SysTickStartEv                                                                                                                                                       
0000fb41  _ZN13SysTickDriver11SysTickStopEv                                                                                                                                                        
0000fb55  _ZN13SysTickDriver13SysTickEnableEb                                                                                                                                                      
0000fb7f  _ZN13SysTickDriver14SysTickHandlerEv                                                                                                                                                     
0000fb89  _ZN13SysTickDriver16GetSysTickDriverEv                                                                                                                                                   
0000fb8f  __sti___17_SysTickDriver_cpp_2c575148                                                                                                                                                    
0000fbc1  _ZNSt3__210__stdinbufIwE9pbackfailEi                                                                                                                                                     
0000fc71  _ZNSt3__210__stdinbufIcE9pbackfailEi                                                                                                                                                     
0000fd19  _ZNSt3__219__double_or_nothingIwEEvRNS_10unique_ptrIT_PFvPvEEERPS2_S9_                                                                                                                   
0000fdc1  _ZNSt3__212basic_stringIcNS_11char_traitsIcEENS_9allocatorIcEEE6appendEPKcj                                                                                                              
0000fe65  _ZNSt3__212basic_stringIwNS_11char_traitsIwEENS_9allocatorIwEEE6appendEPKwj                                                                                                              
0000ff09  _ZNSt3__212basic_stringIcNS_11char_traitsIcEENS_9allocatorIcEEE9push_backEc                                                                                                              
0000ffa9  _ZNSt3__212basic_stringIwNS_11char_traitsIwEENS_9allocatorIwEEE9push_backEw                                                                                                              
00010000  __STACK_SIZE                                                                                                                                                                             
00010000  __SYSMEM_SIZE                                                                                                                                                                            
00010047  _ZNSt9type_infoD1Ev                                                                                                                                                                      
00010047  _ZNSt9type_infoD2Ev                                                                                                                                                                      
00010049  _ZNKSt3__27num_putIwNS_19ostreambuf_iteratorIwNS_11char_traitsIwEEEEE6do_putES4_RNS_8ios_baseEwPKv                                                                                       
000100e5  _ZNKSt3__27num_putIwNS_19ostreambuf_iteratorIwNS_11char_traitsIwEEEEE6do_putES4_RNS_8ios_baseEwb                                                                                         
00010181  _ZNSt3__212basic_stringIcNS_11char_traitsIcEENS_9allocatorIcEEE6appendEjc                                                                                                                
0001021d  __TI_buff_read                                                                                                                                                                           
000102b9  __aeabi_memcpy                                                                                                                                                                           
000102b9  __aeabi_memcpy4                                                                                                                                                                          
000102b9  __aeabi_memcpy8                                                                                                                                                                          
000102b9  memcpy                                                                                                                                                                                   
00010355  _ZNKSt3__210__time_put8__do_putEPwRS1_PK2tmcc                                                                                                                                            
000103ed  _ZNKSt3__27num_putIcNS_19ostreambuf_iteratorIcNS_11char_traitsIcEEEEE6do_putES4_RNS_8ios_baseEcPKv                                                                                       
00010485  _ZNKSt3__27num_putIcNS_19ostreambuf_iteratorIcNS_11char_traitsIcEEEEE6do_putES4_RNS_8ios_baseEcb                                                                                         
0001051d  _ZNSt3__212basic_stringIwNS_11char_traitsIwEENS_9allocatorIwEEE6assignEPKwj                                                                                                              
000105b5  _ZNSt3__212basic_stringIcNS_11char_traitsIcEENS_9allocatorIcEEE6assignEPKcj                                                                                                              
0001064b  _ZNSt3__225__num_get_signed_integralIlEET_PKcS3_Rji                                                                                                                                      
000106e1  __aeabi_uldivmod                                                                                                                                                                         
00010777  _nop                                                                                                                                                                                     
00010779  _ZNKSt3__220__time_get_c_storageIwE7__am_pmEv                                                                                                                                            
0001080d  _ZNSt3__212basic_stringIwNS_11char_traitsIwEENS_9allocatorIwEEE6__initEPKwj                                                                                                              
000108a1  _ZNSt3__219__double_or_nothingIcEEvRNS_10unique_ptrIT_PFvPvEEERPS2_S9_                                                                                                                   
00010935  _ZNSt3__219__double_or_nothingIjEEvRNS_10unique_ptrIT_PFvPvEEERPS2_S9_                                                                                                                   
000109c9  _ZNSt3__225__num_get_signed_integralIxEET_PKcS3_Rji                                                                                                                                      
00010a59  _ZNSt3__2plIcNS_11char_traitsIcEENS_9allocatorIcEEEENS_12basic_stringIT_T0_T1_EEPKS6_RKS9_                                                                                               
00010ae9  _ZNKSt3__220__time_get_c_storageIcE7__am_pmEv                                                                                                                                            
00010b75  _ZNKSt3__28numpunctIwE11do_truenameEv                                                                                                                                                    
00010c01  _ZNKSt3__28numpunctIwE12do_falsenameEv                                                                                                                                                   
00010c8d  __aeabi_cdcmpeq                                                                                                                                                                          
00010c8d  __aeabi_cdcmple                                                                                                                                                                          
00010d13  __aeabi_cdrcmple                                                                                                                                                                         
00010d99  _ZNKSt3__220__time_get_c_storageIcE3__cEv                                                                                                                                                
00010e1d  _ZNKSt3__27collateIwE12do_transformEPKwS3_                                                                                                                                               
00010ea1  fgetc                                                                                                                                                                                    
00010ea1  fgetwc                                                                                                                                                                                   
00010ea1  getc                                                                                                                                                                                     
00010f25  _ZNSt3__214__num_put_base14__format_floatEPcPKcj                                                                                                                                         
00010fa5  _ZNSt3__26locale5__impD1Ev                                                                                                                                                               
00010fa5  _ZNSt3__26locale5__impD2Ev                                                                                                                                                               
00011025  _ZNSt3__2eqINS_9allocatorIcEEEEbRKNS_12basic_stringIcNS_11char_traitsIcEET_EES9_                                                                                                         
000110a5  ungetc                                                                                                                                                                                   
00011125  _ZNKSt3__212basic_stringIcNS_11char_traitsIcEENS_9allocatorIcEEE7compareEjjPKcj                                                                                                          
000111a3  _ZNKSt3__28time_getIcNS_19istreambuf_iteratorIcNS_11char_traitsIcEEEEE11__get_am_pmERiRS4_S4_RjRKNS_5ctypeIcEE                                                                           
0001121f  _ZNKSt3__28time_getIwNS_19istreambuf_iteratorIwNS_11char_traitsIwEEEEE11__get_am_pmERiRS4_S4_RjRKNS_5ctypeIwEE                                                                           
0001129b  _ZNSt3__213basic_ostreamIcNS_11char_traitsIcEEE6sentryD1Ev                                                                                                                               
00011317  _ZNSt3__213basic_ostreamIwNS_11char_traitsIwEEE6sentryD1Ev                                                                                                                               
00011393  _ZNSt3__234_GLOBAL__N__10_string_cpp_11932bae9as_stringINS_12basic_stringIcNS_11char_traitsIcEENS_9allocatorIcEEEEPFYiPcjPKczEiEET_T0_SD_PKNSD_10value_typeET1_                          
0001140f  freelocale                                                                                                                                                                               
00011411  fflush                                                                                                                                                                                   
0001148d  _ZNSt3__212basic_stringIcNS_11char_traitsIcEENS_9allocatorIcEEEaSEOS5_                                                                                                                   
00011507  _ZNSt3__227__num_get_unsigned_integralIjEET_PKcS3_Rji                                                                                                                                    
00011581  _ZNSt3__227__num_get_unsigned_integralImEET_PKcS3_Rji                                                                                                                                    
000115fb  __aeabi_memclr                                                                                                                                                                           
000115fb  __aeabi_memclr4                                                                                                                                                                          
000115fb  __aeabi_memclr8                                                                                                                                                                          
000115fd  __aeabi_memset                                                                                                                                                                           
000115fd  __aeabi_memset4                                                                                                                                                                          
000115fd  __aeabi_memset8                                                                                                                                                                          
00011603  memset                                                                                                                                                                                   
000116ed  _ZNKSt3__220__time_get_c_storageIcE3__rEv                                                                                                                                                
00011765  _ZNSt3__215__num_get_floatIfEET_PKcS3_Rj                                                                                                                                                 
000117dd  _ZNSt3__215basic_streambufIwNS_11char_traitsIwEEE6xsgetnEPwi                                                                                                                             
00011855  _ZNSt3__227__num_get_unsigned_integralItEET_PKcS3_Rji                                                                                                                                    
000118cd  __vla_dealloc                                                                                                                                                                            
00011945  malloc                                                                                                                                                                                   
00011a33  _ZNSt3__212basic_stringIcNS_11char_traitsIcEENS_9allocatorIcEEE6resizeEjc                                                                                                                
00011aa9  wcsnrtombs                                                                                                                                                                               
00011b1f  _ZNSt3__212basic_stringIcNS_11char_traitsIcEENS_9allocatorIcEEE6__initEPKcj                                                                                                              
00011b93  _ZNSt3__212basic_stringIcNS_11char_traitsIcEENS_9allocatorIcEEE6__initEPKcjj                                                                                                             
00011c07  _ZNSt3__212basic_stringIcNS_11char_traitsIcEENS_9allocatorIcEEE6__initEjc                                                                                                                
00011c7b  __aeabi_idiv0                                                                                                                                                                            
00011c7b  __aeabi_ldiv0                                                                                                                                                                            
00011c7d  _ZNSt3__215__num_get_floatIdEET_PKcS3_Rj                                                                                                                                                 
00011cf1  _ZNSt3__215__num_get_floatIeEET_PKcS3_Rj                                                                                                                                                 
00011d65  _ZNSt3__215basic_streambufIcNS_11char_traitsIcEEE6xsgetnEPci                                                                                                                             
00011dd9  _ZNSt3__216__check_groupingERKNS_12basic_stringIcNS_11char_traitsIcEENS_9allocatorIcEEEEPjS8_Rj                                                                                          
00011e4d  _ZNSt3__227__num_get_unsigned_integralIyEET_PKcS3_Rji                                                                                                                                    
00011ec1  __TI_closefile                                                                                                                                                                           
00012015  __aeabi_d2f                                                                                                                                                                              
00012083  _ZNSt3__26locale5__imp7installEPNS0_5facetEl                                                                                                                                             
000120f1  HOSTlseek                                                                                                                                                                                
00012159  HOSTrename                                                                                                                                                                               
000121c1  _ZNKSt3__220__time_get_c_storageIcE3__XEv                                                                                                                                                
00012229  _ZNKSt3__220__time_get_c_storageIcE3__xEv                                                                                                                                                
00012291  _ZNKSt3__28time_getIcNS_19istreambuf_iteratorIcNS_11char_traitsIcEEEEE13__get_percentERS4_S4_RjRKNS_5ctypeIcEE                                                                           
000122f9  _ZNKSt3__28time_getIwNS_19istreambuf_iteratorIwNS_11char_traitsIwEEEEE13__get_percentERS4_S4_RjRKNS_5ctypeIwEE                                                                           
00012361  _ZNKSt3__28time_putIwNS_19ostreambuf_iteratorIwNS_11char_traitsIwEEEEE6do_putES4_RNS_8ios_baseEwPK2tmcc                                                                                  
000123c9  _ZNSt3__215basic_streambufIwNS_11char_traitsIwEEE6xsputnEPKwi                                                                                                                            
00012431  _ZNSt3__29__num_getIcE19__stage2_float_prepERNS_8ios_baseEPcRcS5_                                                                                                                        
00012499  _ZNSt3__29__num_getIwE19__stage2_float_prepERNS_8ios_baseEPwRwS5_                                                                                                                        
00012569  __TI_decompress_lzss                                                                                                                                                                     
000125d1  _ZNKSt3__28time_putIcNS_19ostreambuf_iteratorIcNS_11char_traitsIcEEEEE6do_putES4_RNS_8ios_baseEcPK2tmcc                                                                                  
00012639  _ZN10RingBufferI6ISRMsgE3AddES0_                                                                                                                                                         
0001269d  _ZN10RingBufferIcE3AddEc                                                                                                                                                                 
00012701  _ZNSt3__215basic_streambufIcNS_11char_traitsIcEEE6xsputnEPKci                                                                                                                            
00012765  frexp                                                                                                                                                                                    
00012765  frexpl                                                                                                                                                                                   
000127c9  fseek                                                                                                                                                                                    
0001282d  _ZN10RingBufferI6ISRMsgE3GetEv                                                                                                                                                           
0001288f  __TI_wrt_ok                                                                                                                                                                              
000128f1  HOSTopen                                                                                                                                                                                 
00012951  __TI_auto_init_nobinit                                                                                                                                                                   
000129b1  _ZNKSt3__219istreambuf_iteratorIcNS_11char_traitsIcEEE5equalERKS3_                                                                                                                       
00012a0f  _ZNKSt3__219istreambuf_iteratorIwNS_11char_traitsIwEEE5equalERKS3_                                                                                                                       
00012a6d  _ZNSt3__2eqIcNS_11char_traitsIcEEEEbRKNS_19istreambuf_iteratorIT_T0_EES8_                                                                                                                
00012acb  _ZNSt3__2neIwNS_11char_traitsIwEEEEbRKNS_19istreambuf_iteratorIT_T0_EES8_                                                                                                                
00012b29  _ZNKSt3__27collateIcE12do_transformEPKcS3_                                                                                                                                               
00012b85  close                                                                                                                                                                                    
00012be1  _ZNKSt3__234_GLOBAL__N__10_string_cpp_11932bae14initial_stringINS_12basic_stringIcNS_11char_traitsIcEENS_9allocatorIcEEEEiLb0EEclEv                                                      
00012c3b  _ZNKSt3__28time_getIwNS_19istreambuf_iteratorIwNS_11char_traitsIwEEEEE11do_get_dateES4_S4_RNS_8ios_baseERjP2tm                                                                           
00012c95  _ZNKSt3__28time_getIwNS_19istreambuf_iteratorIwNS_11char_traitsIwEEEEE17__get_white_spaceERS4_S4_RjRKNS_5ctypeIwEE                                                                       
00012cf1  HOSTread                                                                                                                                                                                 
00012d49  HOSTwrite                                                                                                                                                                                
00012da1  _ZNKSt3__28time_getIcNS_19istreambuf_iteratorIcNS_11char_traitsIcEEEEE17__get_white_spaceERS4_S4_RjRKNS_5ctypeIcEE                                                                       
00012df9  _ZN10RingBufferIcE3GetEv                                                                                                                                                                 
00012e4f  _ZNKSt3__28time_getIcNS_19istreambuf_iteratorIcNS_11char_traitsIcEEEEE11do_get_dateES4_S4_RNS_8ios_baseERjP2tm                                                                           
00012efb  ltoa                                                                                                                                                                                     
00012fa1  _ZNSt3__213basic_ostreamIcNS_11char_traitsIcEEE5flushEv                                                                                                                                  
