******************************************************************************
                  TI ARM Linker PC v18.1.2                     
******************************************************************************
>> Linked Mon Sep 24 16:40:04 2018

OUTPUT FILE NAME:   <WhiteTower.out>
ENTRY POINT SYMBOL: "_c_int00_noargs"  address: 00018845


MEMORY CONFIGURATION

         name            origin    length      used     unused   attr    fill
----------------------  --------  ---------  --------  --------  ----  --------
  FLASH                 00000000   00100000  0001cee7  000e3119  R  X
  SRAM                  20000000   00040000  00021bed  0001e413  RW X


SEGMENT ALLOCATION MAP

run origin  load origin   length   init length attrs members
----------  ----------- ---------- ----------- ----- -------
00000000    00000000    0001cef0   0001cef0    r-x
  00000000    00000000    00000208   00000208    r-- .intvecs
  00000208    00000208    0001a7fc   0001a7fc    r-x .text
  0001aa08    0001aa08    0000240f   0000240f    r-- .const
  0001ce18    0001ce18    0000001c   0000001c    r-- .init_array
  0001ce38    0001ce38    000000b8   000000b8    r-- .cinit
20000000    20000000    00021bed   00000000    rw-
  20000000    20000000    00010000   00000000    rw- .stack
  20010000    20010000    00010000   00000000    rw- .sysmem
  20020000    20020000    00001260   00000000    rw- .data
  20021260    20021260    0000098d   00000000    rw- .bss


SECTION ALLOCATION MAP

 output                                  attributes/
section   page    origin      length       input sections
--------  ----  ----------  ----------   ----------------
.intvecs   0    00000000    00000208     
                  00000000    00000208     tm4c1294ncpdt_startup_ccs.obj (.intvecs)

.text      0    00000208    0001a7fc     
                  00000208    00002a70     ZooKeeper.obj (.text)
                  00002c78    00000dd8     ComandCenter.obj (.text)
                  00003a50    00000be8     TimeHandler.obj (.text)
                  00004638    00000af0     rtsv7M4_T_le_v4SPD16_eabi.lib : _scanfi.c.obj (.text:__TI_scanfi)
                  00005128    00000a5e                                   : _printfi.c.obj (.text:__TI_printfi)
                  00005b86    00000002                                   : string.cpp.obj (.text:_ZNKSt3__222__compressed_pair_elemINS_12basic_stringIcNS_11char_traitsIcEENS_9allocatorIcEEE5__repELi0ELb0EE5__getEv)
                  00005b88    00000956                                   : locale.cpp.obj (.text:_ZNSt3__29money_getIcNS_19istreambuf_iteratorIcNS_11char_traitsIcEEEEE8__do_getERS4_S4_bRKNS_6localeEjRjRbRKNS_5ctypeIcEERNS_10unique_ptrIcPFvPvEEERPcSM_)
                  000064de    00000002                                   : string.cpp.obj (.text:_ZNKSt3__222__compressed_pair_elemINS_12basic_stringIwNS_11char_traitsIwEENS_9allocatorIwEEE5__repELi0ELb0EE5__getEv)
                  000064e0    00000870                                   : locale.cpp.obj (.text:_ZNSt3__29money_getIwNS_19istreambuf_iteratorIwNS_11char_traitsIwEEEEE8__do_getERS4_S4_bRKNS_6localeEjRjRbRKNS_5ctypeIwEERNS_10unique_ptrIwPFvPvEEERPwSM_)
                  00006d50    00000850     Monitor.obj (.text)
                  000075a0    00000464     rtsv7M4_T_le_v4SPD16_eabi.lib : strftime.c.obj (.text:strftime)
                  00007a04    00000460                                   : locale.cpp.obj (.text:_ZNSt3__26locale5__impC1Ej)
                  00007e64    00000460                                   : strtod.c.obj (.text:strtod)
                  000082c4    000003c8                                   : strtof.c.obj (.text:strtof)
                  0000868c    000003b0                                   : locale.cpp.obj (.text:_ZNSt3__211__money_getIcE13__gather_infoEbRKNS_6localeERNS_10money_base7patternERcS8_RNS_12basic_stringIcNS_11char_traitsIcEENS_9allocatorIcEEEESF_SF_SF_Ri)
                  00008a3c    000003b0                                   : locale.cpp.obj (.text:_ZNSt3__211__money_getIwE13__gather_infoEbRKNS_6localeERNS_10money_base7patternERwS8_RNS_12basic_stringIcNS_11char_traitsIcEENS_9allocatorIcEEEERNS9_IwNSA_IwEENSC_IwEEEESJ_SJ_Ri)
                  00008dec    000003a4     GlobalConfig.obj (.text)
                  00009190    00000370     main.obj (.text)
                  00009500    00000348     rtsv7M4_T_le_v4SPD16_eabi.lib : locale.cpp.obj (.text:_ZNSt3__211__money_putIcE13__gather_infoEbbRKNS_6localeERNS_10money_base7patternERcS8_RNS_12basic_stringIcNS_11char_traitsIcEENS_9allocatorIcEEEESF_SF_Ri)
                  00009848    00000348                                   : locale.cpp.obj (.text:_ZNSt3__211__money_putIwE13__gather_infoEbbRKNS_6localeERNS_10money_base7patternERwS8_RNS_12basic_stringIcNS_11char_traitsIcEENS_9allocatorIcEEEERNS9_IwNSA_IwEENSC_IwEEEESJ_Ri)
                  00009b90    000002fc                                   : locale.cpp.obj (.text:_ZNKSt3__28time_getIcNS_19istreambuf_iteratorIcNS_11char_traitsIcEEEEE6do_getES4_S4_RNS_8ios_baseERjP2tmcc)
                  00009e8c    000002f8                                   : locale.cpp.obj (.text:_ZNKSt3__28time_getIwNS_19istreambuf_iteratorIwNS_11char_traitsIwEEEEE6do_getES4_S4_RNS_8ios_baseERjP2tmcc)
                  0000a184    000002a4                                   : locale.cpp.obj (.text:_ZNSt3__211__money_putIwE8__formatEPwRS2_S3_jPKwS5_RKNS_5ctypeIwEEbRKNS_10money_base7patternEwwRKNS_12basic_stringIcNS_11char_traitsIcEENS_9allocatorIcEEEERKNSE_IwNSF_IwEENSH_IwEEEESQ_i)
                  0000a428    0000029a                                   : locale.cpp.obj (.text:_ZNSt3__211__money_putIcE8__formatEPcRS2_S3_jPKcS5_RKNS_5ctypeIcEEbRKNS_10money_base7patternEccRKNS_12basic_stringIcNS_11char_traitsIcEENS_9allocatorIcEEEESL_SL_i)
                  0000a6c2    00000002                                   : locale.cpp.obj (.text:_ZNKSt3__28messagesIcE8do_closeEi)
                  0000a6c4    00000294                                   : iostream.cpp.obj (.text:_ZNSt3__28ios_base4InitC1Ev)
                  0000a958    00000278                                   : locale.cpp.obj (.text:_ZNKSt3__220__time_get_c_storageIwE8__monthsEv)
                  0000abd0    00000274                                   : locale.cpp.obj (.text:_ZNKSt3__29money_getIcNS_19istreambuf_iteratorIcNS_11char_traitsIcEEEEE6do_getES4_S4_bRNS_8ios_baseERjRNS_12basic_stringIcS3_NS_9allocatorIcEEEE)
                  0000ae44    00000274                                   : locale.cpp.obj (.text:_ZNSt3__29__num_putIwE23__widen_and_group_floatEPcS2_S2_PwRS3_S4_RKNS_6localeE)
                  0000b0b8    00000270                                   : _printfi.c.obj (.text:_pconv_a)
                  0000b328    00000268                                   : locale.cpp.obj (.text:_ZNSt3__29__num_putIcE23__widen_and_group_floatEPcS2_S2_S2_RS2_S3_RKNS_6localeE)
                  0000b590    00000250                                   : locale.cpp.obj (.text:_ZNKSt3__29money_putIwNS_19ostreambuf_iteratorIwNS_11char_traitsIwEEEEE6do_putES4_bRNS_8ios_baseEwe)
                  0000b7e0    00000248                                   : locale.cpp.obj (.text:_ZNKSt3__29money_getIwNS_19istreambuf_iteratorIwNS_11char_traitsIwEEEEE6do_getES4_S4_bRNS_8ios_baseERjRNS_12basic_stringIwS3_NS_9allocatorIwEEEE)
                  0000ba28    0000023c                                   : locale.cpp.obj (.text:_ZNKSt3__29money_putIcNS_19ostreambuf_iteratorIcNS_11char_traitsIcEEEEE6do_putES4_bRNS_8ios_baseEce)
                  0000bc64    0000020c     ISRMsgHandler.obj (.text)
                  0000be70    000001fc     rtsv7M4_T_le_v4SPD16_eabi.lib : locale.cpp.obj (.text:_ZNKSt3__220__time_get_c_storageIcE8__monthsEv)
                  0000c06c    000001f8                                   : locale.cpp.obj (.text:_ZNKSt3__29money_putIwNS_19ostreambuf_iteratorIwNS_11char_traitsIwEEEEE6do_putES4_bRNS_8ios_baseEwRKNS_12basic_stringIwS3_NS_9allocatorIwEEEE)
                  0000c264    000001f4                                   : locale.cpp.obj (.text:_ZNKSt3__29money_putIcNS_19ostreambuf_iteratorIcNS_11char_traitsIcEEEEE6do_putES4_bRNS_8ios_baseEcRKNS_12basic_stringIcS3_NS_9allocatorIcEEEE)
                  0000c458    000001f0                                   : locale.cpp.obj (.text:_ZNSt3__214__scan_keywordINS_19istreambuf_iteratorIcNS_11char_traitsIcEEEEPKNS_12basic_stringIcS3_NS_9allocatorIcEEEENS_5ctypeIcEEEET0_RT_SE_SD_SD_RKT1_Rjb)
                  0000c648    000001ec                                   : locale.cpp.obj (.text:_ZNSt3__214__scan_keywordINS_19istreambuf_iteratorIwNS_11char_traitsIwEEEEPKNS_12basic_stringIwS3_NS_9allocatorIwEEEENS_5ctypeIwEEEET0_RT_SE_SD_SD_RKT1_Rjb)
                  0000c834    000001dc                                   : strtoll.c.obj (.text:strtoll)
                  0000ca10    000001d8                                   : locale.cpp.obj (.text:_ZNKSt3__27num_getIwNS_19istreambuf_iteratorIwNS_11char_traitsIwEEEEE15__do_get_signedIlEES4_S4_S4_RNS_8ios_baseERjRT_)
                  0000cbe8    000001d8                                   : locale.cpp.obj (.text:_ZNKSt3__27num_getIwNS_19istreambuf_iteratorIwNS_11char_traitsIwEEEEE15__do_get_signedIxEES4_S4_S4_RNS_8ios_baseERjRT_)
                  0000cdc0    000001d8                                   : locale.cpp.obj (.text:_ZNKSt3__27num_getIwNS_19istreambuf_iteratorIwNS_11char_traitsIwEEEEE17__do_get_unsignedIjEES4_S4_S4_RNS_8ios_baseERjRT_)
                  0000cf98    000001d8                                   : locale.cpp.obj (.text:_ZNKSt3__27num_getIwNS_19istreambuf_iteratorIwNS_11char_traitsIwEEEEE17__do_get_unsignedImEES4_S4_S4_RNS_8ios_baseERjRT_)
                  0000d170    000001d8                                   : locale.cpp.obj (.text:_ZNKSt3__27num_getIwNS_19istreambuf_iteratorIwNS_11char_traitsIwEEEEE17__do_get_unsignedItEES4_S4_S4_RNS_8ios_baseERjRT_)
                  0000d348    000001d8                                   : locale.cpp.obj (.text:_ZNKSt3__27num_getIwNS_19istreambuf_iteratorIwNS_11char_traitsIwEEEEE17__do_get_unsignedIyEES4_S4_S4_RNS_8ios_baseERjRT_)
                  0000d520    000001d0                                   : locale.cpp.obj (.text:_ZN32_INTERNAL_10_locale_cpp_a7183203St3__213utf8_to_utf16EPKhS1_RS1_PtS3_RS3_mNS_12codecvt_modeE)
                  0000d6f0    000001d0                                   : _printfi.c.obj (.text:_pconv_g)
                  0000d8c0    000001cc                                   : locale.cpp.obj (.text:_ZNSt3__29__num_putIwE21__widen_and_group_intEPcS2_S2_PwRS3_S4_RKNS_6localeE)
                  0000da8c    000001c8                                   : locale.cpp.obj (.text:_ZNSt3__29__num_putIcE21__widen_and_group_intEPcS2_S2_S2_RS2_S3_RKNS_6localeE)
                  0000dc54    000001c4                                   : locale.cpp.obj (.text:_ZNKSt3__27num_getIwNS_19istreambuf_iteratorIwNS_11char_traitsIwEEEEE6do_getES4_S4_RNS_8ios_baseERjRPv)
                  0000de18    000001c4     Monitor.obj (.text:_ZNSt3__2lsINS_11char_traitsIcEEEERNS_13basic_ostreamIcT_EES6_PKc)
                  0000dfdc    000001b6     rtsv7M4_T_le_v4SPD16_eabi.lib : fd_add_t2.asm.obj (.text)
                  0000e192    00000002                                   : locale.cpp.obj (.text:_ZNKSt3__28messagesIwE8do_closeEi)
                  0000e194    000001b0                                   : locale.cpp.obj (.text:_ZNKSt3__220__time_get_c_storageIwE7__weeksEv)
                  0000e344    000001b0                                   : locale.cpp.obj (.text:_ZNKSt3__27num_getIcNS_19istreambuf_iteratorIcNS_11char_traitsIcEEEEE15__do_get_signedIxEES4_S4_S4_RNS_8ios_baseERjRT_)
                  0000e4f4    000001b0                                   : locale.cpp.obj (.text:_ZNKSt3__27num_getIcNS_19istreambuf_iteratorIcNS_11char_traitsIcEEEEE17__do_get_unsignedIyEES4_S4_S4_RNS_8ios_baseERjRT_)
                  0000e6a4    000001b0                                   : locale.cpp.obj (.text:_ZNKSt3__27num_getIcNS_19istreambuf_iteratorIcNS_11char_traitsIcEEEEE6do_getES4_S4_RNS_8ios_baseERjRPv)
                  0000e854    000001ac                                   : locale.cpp.obj (.text:_ZNKSt3__27num_getIcNS_19istreambuf_iteratorIcNS_11char_traitsIcEEEEE15__do_get_signedIlEES4_S4_S4_RNS_8ios_baseERjRT_)
                  0000ea00    000001ac                                   : locale.cpp.obj (.text:_ZNKSt3__27num_getIcNS_19istreambuf_iteratorIcNS_11char_traitsIcEEEEE17__do_get_unsignedIjEES4_S4_S4_RNS_8ios_baseERjRT_)
                  0000ebac    000001ac                                   : locale.cpp.obj (.text:_ZNKSt3__27num_getIcNS_19istreambuf_iteratorIcNS_11char_traitsIcEEEEE17__do_get_unsignedImEES4_S4_S4_RNS_8ios_baseERjRT_)
                  0000ed58    000001ac                                   : locale.cpp.obj (.text:_ZNKSt3__27num_getIcNS_19istreambuf_iteratorIcNS_11char_traitsIcEEEEE17__do_get_unsignedItEES4_S4_S4_RNS_8ios_baseERjRT_)
                  0000ef04    000001ac                                   : locale.cpp.obj (.text:_ZNKSt3__27num_getIcNS_19istreambuf_iteratorIcNS_11char_traitsIcEEEEE23__do_get_floating_pointIdEES4_S4_S4_RNS_8ios_baseERjRT_)
                  0000f0b0    000001ac                                   : locale.cpp.obj (.text:_ZNKSt3__27num_getIcNS_19istreambuf_iteratorIcNS_11char_traitsIcEEEEE23__do_get_floating_pointIeEES4_S4_S4_RNS_8ios_baseERjRT_)
                  0000f25c    000001aa                                   : locale.cpp.obj (.text:_ZNKSt3__27num_getIwNS_19istreambuf_iteratorIwNS_11char_traitsIwEEEEE23__do_get_floating_pointIdEES4_S4_S4_RNS_8ios_baseERjRT_)
                  0000f406    000001aa                                   : locale.cpp.obj (.text:_ZNKSt3__27num_getIwNS_19istreambuf_iteratorIwNS_11char_traitsIwEEEEE23__do_get_floating_pointIeEES4_S4_S4_RNS_8ios_baseERjRT_)
                  0000f5b0    000001a8                                   : locale.cpp.obj (.text:_ZNKSt3__27num_getIcNS_19istreambuf_iteratorIcNS_11char_traitsIcEEEEE23__do_get_floating_pointIfEES4_S4_S4_RNS_8ios_baseERjRT_)
                  0000f758    000001a6                                   : locale.cpp.obj (.text:_ZNKSt3__27num_getIwNS_19istreambuf_iteratorIwNS_11char_traitsIwEEEEE23__do_get_floating_pointIfEES4_S4_S4_RNS_8ios_baseERjRT_)
                  0000f8fe    00000002                                   : string.cpp.obj (.text:_ZNSt3__211char_traitsIcE11to_int_typeEc)
                  0000f900    00000190                                   : locale.cpp.obj (.text:_ZNKSt3__28time_getIwNS_19istreambuf_iteratorIwNS_11char_traitsIwEEEEE3getES4_S4_RNS_8ios_baseERjP2tmPKwSC_)
                  0000fa90    00000184                                   : locale.cpp.obj (.text:_ZNKSt3__28time_getIcNS_19istreambuf_iteratorIcNS_11char_traitsIcEEEEE3getES4_S4_RNS_8ios_baseERjP2tmPKcSC_)
                  0000fc14    00000182                                   : locale.cpp.obj (.text:_ZN32_INTERNAL_10_locale_cpp_a7183203St3__212utf8_to_ucs4EPKhS1_RS1_PjS3_RS3_mNS_12codecvt_modeE)
                  0000fd96    00000002                                   : locale.cpp.obj (.text:_ZNSt3__212__do_nothingEPv)
                  0000fd98    00000180                                   : locale.cpp.obj (.text:_ZNKSt3__29money_getIcNS_19istreambuf_iteratorIcNS_11char_traitsIcEEEEE6do_getES4_S4_bRNS_8ios_baseERjRe)
                  0000ff18    00000180                                   : fwrite.c.obj (.text:fwrite)
                  00010098    00000174                                   : locale.cpp.obj (.text:_ZN32_INTERNAL_10_locale_cpp_a7183203St3__213utf16_to_utf8EPKtS1_RS1_PhS3_RS3_mNS_12codecvt_modeE)
                  0001020c    0000016c     TimeHandler.obj (.text:_ZNSt3__224__put_character_sequenceIcNS_11char_traitsIcEEEERNS_13basic_ostreamIT_T0_EES7_PKS4_j)
                  00010378    0000015c     rtsv7M4_T_le_v4SPD16_eabi.lib : locale.cpp.obj (.text:_ZNKSt3__220__time_get_c_storageIcE7__weeksEv)
                  000104d4    0000015c                                   : strtoull.c.obj (.text:strtoull)
                  00010630    0000014c                                   : locale.cpp.obj (.text:_ZNSt3__29__num_getIwE19__stage2_float_loopEwRbRcPcRS4_wwRKNS_12basic_stringIcNS_11char_traitsIcEENS_9allocatorIcEEEEPjRSE_RjPw)
                  0001077c    00000148                                   : locale.cpp.obj (.text:_ZN32_INTERNAL_10_locale_cpp_a7183203St3__220utf8_to_utf16_lengthEPKhS1_jmNS_12codecvt_modeE)
                  000108c4    00000148                                   : locale.cpp.obj (.text:_ZNSt3__29__num_getIcE19__stage2_float_loopEcRbRcPcRS4_ccRKNS_12basic_stringIcNS_11char_traitsIcEENS_9allocatorIcEEEEPjRSE_RjS4_)
                  00010a0c    00000140                                   : locale.cpp.obj (.text:_ZNKSt3__27num_putIcNS_19ostreambuf_iteratorIcNS_11char_traitsIcEEEEE6do_putES4_RNS_8ios_baseEcd)
                  00010b4c    00000140                                   : locale.cpp.obj (.text:_ZNKSt3__27num_putIwNS_19ostreambuf_iteratorIwNS_11char_traitsIwEEEEE6do_putES4_RNS_8ios_baseEwe)
                  00010c8c    0000013e                                   : locale.cpp.obj (.text:_ZN32_INTERNAL_10_locale_cpp_a7183203St3__219utf8_to_ucs4_lengthEPKhS1_jmNS_12codecvt_modeE)
                  00010dca    00000002                                   : memory.cpp.obj (.text:_ZNSt3__214__shared_countD1Ev)
                  00010dcc    0000013c                                   : locale.cpp.obj (.text:_ZNKSt3__27num_putIcNS_19ostreambuf_iteratorIcNS_11char_traitsIcEEEEE6do_putES4_RNS_8ios_baseEce)
                  00010f08    0000013c                                   : locale.cpp.obj (.text:_ZNKSt3__27num_putIwNS_19ostreambuf_iteratorIwNS_11char_traitsIwEEEEE6do_putES4_RNS_8ios_baseEwd)
                  00011044    0000013c                                   : locale.cpp.obj (.text:_ZNKSt3__29money_getIwNS_19istreambuf_iteratorIwNS_11char_traitsIwEEEEE6do_getES4_S4_bRNS_8ios_baseERjRe)
                  00011180    0000013c                                   : _printfi.c.obj (.text:_pconv_e)
                  000112bc    00000136                                   : fd_div_t2.asm.obj (.text)
                  000113f2    00000002                                   : ios.cpp.obj (.text:_ZNSt3__215basic_streambufIcNS_11char_traitsIcEEE5imbueERKNS_6localeE)
                  000113f4    00000134                                   : vla_alloc.c.obj (.text:__vla_alloc)
                  00011528    00000130                                   : strtol.c.obj (.text:strtol)
                  00011658    0000012c                                   : locale.cpp.obj (.text:_ZNKSt3__27codecvtIwciE5do_inERiPKcS4_RS4_PwS6_RS6_)
                  00011784    00000120                                   : _printfi.c.obj (.text:fcvt)
                  000118a4    0000011c                                   : locale.cpp.obj (.text:_ZNSt3__216__pad_and_outputIwNS_11char_traitsIwEEEENS_19ostreambuf_iteratorIT_T0_EES6_PKS4_S8_S8_RNS_8ios_baseES4_)
                  000119c0    00000118                                   : locale.cpp.obj (.text:_ZNKSt3__27codecvtIwciE6do_outERiPKwS4_RS4_PcS6_RS6_)
                  00011ad8    00000114                                   : iostream.cpp.obj (.text:_ZNSt3__210__stdinbufIwE9__getcharEb)
                  00011bec    00000114                                   : string.cpp.obj (.text:_ZNSt3__212basic_stringIwNS_11char_traitsIwEENS_9allocatorIwEEE7reserveEj)
                  00011d00    00000114                                   : fputs.c.obj (.text:fputs)
                  00011e14    00000114                                   : memory.c.obj (.text:realloc)
                  00011f28    00000110                                   : iostream.cpp.obj (.text:_ZNSt3__210__stdinbufIcE9__getcharEb)
                  00012038    00000110                                   : s_scalbn.c.obj (.text:scalbn)
                  00012148    00000110                                   : strtoul.c.obj (.text:strtoul)
                  00012258    0000010c                                   : string.cpp.obj (.text:_ZNSt3__212basic_stringIwNS_11char_traitsIwEENS_9allocatorIwEEE21__grow_by_and_replaceEjjjjjjPKw)
                  00012364    00000108     UART0Driver.obj (.text)
                  0001246c    000000fe     rtsv7M4_T_le_v4SPD16_eabi.lib : locale.cpp.obj (.text:_ZN32_INTERNAL_10_locale_cpp_a7183203St3__212ucs4_to_utf8EPKjS1_RS1_PhS3_RS3_mNS_12codecvt_modeE)
                  0001256a    000000fc                                   : fd_mul_t2.asm.obj (.text)
                  00012666    000000f2                                   : string.cpp.obj (.text:_ZNSt3__212basic_stringIcNS_11char_traitsIcEENS_9allocatorIcEEE7reserveEj)
                  00012758    000000f0                                   : string.cpp.obj (.text:_ZNSt3__212basic_stringIcNS_11char_traitsIcEENS_9allocatorIcEEE21__grow_by_and_replaceEjjjjjjPKc)
                  00012848    000000f0                                   : locale.cpp.obj (.text:_ZNSt3__216__pad_and_outputIcNS_11char_traitsIcEEEENS_19ostreambuf_iteratorIT_T0_EES6_PKS4_S8_S8_RNS_8ios_baseES4_)
                  00012938    000000ee                                   : locale.cpp.obj (.text:_ZNSt3__220__get_up_to_n_digitsIwNS_19istreambuf_iteratorIwNS_11char_traitsIwEEEEEEiRT0_S5_RjRKNS_5ctypeIT_EEi)
                  00012a26    00000002                                   : ios.cpp.obj (.text:_ZNSt3__215basic_streambufIcNS_11char_traitsIcEEE6setbufEPci)
                  00012a28    000000ec                                   : locale.cpp.obj (.text:_ZNSt3__29__num_getIcE17__stage2_int_loopEciPcRS2_RjcRKNS_12basic_stringIcNS_11char_traitsIcEENS_9allocatorIcEEEEPjRSD_PKc)
                  00012b14    000000ec                                   : locale.cpp.obj (.text:_ZNSt3__29__num_getIwE17__stage2_int_loopEwiPcRS2_RjwRKNS_12basic_stringIcNS_11char_traitsIcEENS_9allocatorIcEEEEPjRSD_PKw)
                  00012c00    000000e8                                   : locale.cpp.obj (.text:_ZNKSt3__220__time_get_c_storageIwE3__cEv)
                  00012ce8    000000e4                                   : locale.cpp.obj (.text:_ZNSt3__220__get_up_to_n_digitsIcNS_19istreambuf_iteratorIcNS_11char_traitsIcEEEEEEiRT0_S5_RjRKNS_5ctypeIT_EEi)
                  00012dcc    000000e0                                   : locale.cpp.obj (.text:_ZNSt3__26vectorIPNS_6locale5facetENS_15__sso_allocatorIS3_Lj28EEEE8__appendEj)
                  00012eac    000000dc                                   : locale.cpp.obj (.text:_ZNKSt3__27num_getIcNS_19istreambuf_iteratorIcNS_11char_traitsIcEEEEE6do_getES4_S4_RNS_8ios_baseERjRb)
                  00012f88    000000dc                                   : locale.cpp.obj (.text:_ZNKSt3__27num_getIwNS_19istreambuf_iteratorIwNS_11char_traitsIwEEEEE6do_getES4_S4_RNS_8ios_baseERjRb)
                  00013064    000000dc                                   : setvbuf.c.obj (.text:setvbuf)
                  00013140    000000da                                   : string.cpp.obj (.text:_ZNSt3__212basic_stringIcNS_11char_traitsIcEENS_9allocatorIcEEE6insertEjPKcj)
                  0001321a    00000002                                   : ios.cpp.obj (.text:_ZNSt3__215basic_streambufIwNS_11char_traitsIwEEE5imbueERKNS_6localeE)
                  0001321c    000000d8                                   : string.cpp.obj (.text:_ZNSt3__212basic_stringIwNS_11char_traitsIwEENS_9allocatorIwEEE9__grow_byEjjjjjj)
                  000132f4    000000d8                                   : memory.c.obj (.text:free)
                  000133cc    000000d4                                   : locale.cpp.obj (.text:_ZNKSt3__220__time_get_c_storageIwE3__rEv)
                  000134a0    000000d0                                   : locale.cpp.obj (.text:_ZNKSt3__220__time_get_c_storageIwE3__XEv)
                  00013570    000000d0                                   : locale.cpp.obj (.text:_ZNKSt3__220__time_get_c_storageIwE3__xEv)
                  00013640    000000d0                                   : s_scalbnf.c.obj (.text:scalbnf)
                  00013710    000000cc                                   : locale.cpp.obj (.text:_ZNKSt3__27num_putIcNS_19ostreambuf_iteratorIcNS_11char_traitsIcEEEEE6do_putES4_RNS_8ios_baseEcx)
                  000137dc    000000cc                                   : locale.cpp.obj (.text:_ZNKSt3__27num_putIwNS_19ostreambuf_iteratorIwNS_11char_traitsIwEEEEE6do_putES4_RNS_8ios_baseEwx)
                  000138a8    000000c8                                   : ios.cpp.obj (.text:_ZNSt3__213basic_ostreamIcNS_11char_traitsIcEEElsEi)
                  00013970    000000c8                                   : ios.cpp.obj (.text:_ZNSt3__213basic_ostreamIcNS_11char_traitsIcEEElsEt)
                  00013a38    000000c4                                   : locale.cpp.obj (.text:_ZNKSt3__27num_putIcNS_19ostreambuf_iteratorIcNS_11char_traitsIcEEEEE6do_putES4_RNS_8ios_baseEcy)
                  00013afc    000000c4                                   : locale.cpp.obj (.text:_ZNKSt3__27num_putIwNS_19ostreambuf_iteratorIwNS_11char_traitsIwEEEEE6do_putES4_RNS_8ios_baseEwy)
                  00013bc0    000000c0                                   : locale.cpp.obj (.text:_ZNKSt3__27num_putIcNS_19ostreambuf_iteratorIcNS_11char_traitsIcEEEEE6do_putES4_RNS_8ios_baseEcl)
                  00013c80    000000c0                                   : locale.cpp.obj (.text:_ZNKSt3__27num_putIcNS_19ostreambuf_iteratorIcNS_11char_traitsIcEEEEE6do_putES4_RNS_8ios_baseEcm)
                  00013d40    000000c0                                   : locale.cpp.obj (.text:_ZNKSt3__27num_putIwNS_19ostreambuf_iteratorIwNS_11char_traitsIwEEEEE6do_putES4_RNS_8ios_baseEwl)
                  00013e00    000000c0                                   : locale.cpp.obj (.text:_ZNKSt3__27num_putIwNS_19ostreambuf_iteratorIwNS_11char_traitsIwEEEEE6do_putES4_RNS_8ios_baseEwm)
                  00013ec0    000000c0                                   : string.cpp.obj (.text:_ZNSt3__212basic_stringIcNS_11char_traitsIcEENS_9allocatorIcEEE9__grow_byEjjjjjj)
                  00013f80    000000bc                                   : iostream.cpp.obj (.text:_ZNSt3__211__stdoutbufIwE8overflowEi)
                  0001403c    000000b2                                   : iostream.cpp.obj (.text:_ZNSt3__211__stdoutbufIcE8overflowEi)
                  000140ee    00000002                                   : ios.cpp.obj (.text:_ZNSt3__215basic_streambufIwNS_11char_traitsIwEEE6setbufEPwi)
                  000140f0    000000b1                                   : _printfi.c.obj (.text:_ltostr)
                  000141a1    00000001     --HOLE-- [fill = 0]
                  000141a2    000000b0                                   : iostream.cpp.obj (.text:_ZNSt3__210__stdinbufIwE9pbackfailEi)
                  00014252    000000a8                                   : iostream.cpp.obj (.text:_ZNSt3__210__stdinbufIcE9pbackfailEi)
                  000142fa    00000002                                   : string.cpp.obj (.text:_ZNSt3__222__compressed_pair_elemINS_12basic_stringIcNS_11char_traitsIcEENS_9allocatorIcEEE5__repELi0ELb0EE5__getEv)
                  000142fc    000000a8                                   : locale.cpp.obj (.text:_ZNSt3__219__double_or_nothingIwEEvRNS_10unique_ptrIT_PFvPvEEERPS2_S9_)
                  000143a4    000000a4                                   : string.cpp.obj (.text:_ZNSt3__212basic_stringIcNS_11char_traitsIcEENS_9allocatorIcEEE6appendEPKcj)
                  00014448    000000a4                                   : string.cpp.obj (.text:_ZNSt3__212basic_stringIwNS_11char_traitsIwEENS_9allocatorIwEEE6appendEPKwj)
                  000144ec    000000a0                                   : string.cpp.obj (.text:_ZNSt3__212basic_stringIcNS_11char_traitsIcEENS_9allocatorIcEEE9push_backEc)
                  0001458c    0000009e                                   : string.cpp.obj (.text:_ZNSt3__212basic_stringIwNS_11char_traitsIwEENS_9allocatorIwEEE9push_backEw)
                  0001462a    00000002                                   : string.cpp.obj (.text:_ZNSt3__222__compressed_pair_elemINS_12basic_stringIwNS_11char_traitsIwEENS_9allocatorIwEEE5__repELi0ELb0EE5__getEv)
                  0001462c    0000009c                                   : locale.cpp.obj (.text:_ZNKSt3__27num_putIwNS_19ostreambuf_iteratorIwNS_11char_traitsIwEEEEE6do_putES4_RNS_8ios_baseEwPKv)
                  000146c8    0000009c                                   : locale.cpp.obj (.text:_ZNKSt3__27num_putIwNS_19ostreambuf_iteratorIwNS_11char_traitsIwEEEEE6do_putES4_RNS_8ios_baseEwb)
                  00014764    0000009c                                   : string.cpp.obj (.text:_ZNSt3__212basic_stringIcNS_11char_traitsIcEENS_9allocatorIcEEE6appendEjc)
                  00014800    0000009c                                   : _bufread.c.obj (.text:__TI_buff_read)
                  0001489c    0000009c                                   : memcpy_t2.asm.obj (.text)
                  00014938    00000098                                   : locale.cpp.obj (.text:_ZNKSt3__210__time_put8__do_putEPwRS1_PK2tmcc)
                  000149d0    00000098                                   : locale.cpp.obj (.text:_ZNKSt3__27num_putIcNS_19ostreambuf_iteratorIcNS_11char_traitsIcEEEEE6do_putES4_RNS_8ios_baseEcPKv)
                  00014a68    00000098                                   : locale.cpp.obj (.text:_ZNKSt3__27num_putIcNS_19ostreambuf_iteratorIcNS_11char_traitsIcEEEEE6do_putES4_RNS_8ios_baseEcb)
                  00014b00    00000098                                   : string.cpp.obj (.text:_ZNSt3__212basic_stringIwNS_11char_traitsIwEENS_9allocatorIwEEE6assignEPKwj)
                  00014b98    00000096                                   : string.cpp.obj (.text:_ZNSt3__212basic_stringIcNS_11char_traitsIcEENS_9allocatorIcEEE6assignEPKcj)
                  00014c2e    00000096                                   : locale.cpp.obj (.text:_ZNSt3__225__num_get_signed_integralIlEET_PKcS3_Rji)
                  00014cc4    00000096                                   : ull_div_t2.asm.obj (.text)
                  00014d5a    00000002                                   : string.cpp.obj (.text:_ZNSt3__222__compressed_pair_elemINS_9allocatorIcEELi1ELb1EEC1IRKS2_vEEOT_)
                  00014d5c    00000094                                   : locale.cpp.obj (.text:_ZNKSt3__220__time_get_c_storageIwE7__am_pmEv)
                  00014df0    00000094                                   : string.cpp.obj (.text:_ZNSt3__212basic_stringIwNS_11char_traitsIwEENS_9allocatorIwEEE6__initEPKwj)
                  00014e84    00000094                                   : locale.cpp.obj (.text:_ZNSt3__219__double_or_nothingIcEEvRNS_10unique_ptrIT_PFvPvEEERPS2_S9_)
                  00014f18    00000094                                   : locale.cpp.obj (.text:_ZNSt3__219__double_or_nothingIjEEvRNS_10unique_ptrIT_PFvPvEEERPS2_S9_)
                  00014fac    00000090                                   : locale.cpp.obj (.text:_ZNSt3__225__num_get_signed_integralIxEET_PKcS3_Rji)
                  0001503c    00000090                                   : string.cpp.obj (.text:_ZNSt3__2plIcNS_11char_traitsIcEENS_9allocatorIcEEEENS_12basic_stringIT_T0_T1_EEPKS6_RKS9_)
                  000150cc    0000008c                                   : locale.cpp.obj (.text:_ZNKSt3__220__time_get_c_storageIcE7__am_pmEv)
                  00015158    0000008c                                   : locale.cpp.obj (.text:_ZNKSt3__28numpunctIwE11do_truenameEv)
                  000151e4    0000008c                                   : locale.cpp.obj (.text:_ZNKSt3__28numpunctIwE12do_falsenameEv)
                  00015270    0000008c                                   : fputc.c.obj (.text:fputc)
                  000152fc    00000088     SysTickDriver.obj (.text)
                  00015384    00000086     rtsv7M4_T_le_v4SPD16_eabi.lib : fd_cmp_t2.asm.obj (.text:__aeabi_cdcmple)
                  0001540a    00000086                                   : fd_cmp_t2.asm.obj (.text:__aeabi_cdrcmple)
                  00015490    00000084                                   : locale.cpp.obj (.text:_ZNKSt3__220__time_get_c_storageIcE3__cEv)
                  00015514    00000084                                   : locale.cpp.obj (.text:_ZNKSt3__27collateIwE12do_transformEPKwS3_)
                  00015598    00000084                                   : fgetc.c.obj (.text:fgetc)
                  0001561c    00000080                                   : locale.cpp.obj (.text:_ZNSt3__214__num_put_base14__format_floatEPcPKcj)
                  0001569c    00000080                                   : locale.cpp.obj (.text:_ZNSt3__26locale5__impD1Ev)
                  0001571c    00000080                                   : ungetc.c.obj (.text:ungetc)
                  0001579c    0000007e                                   : string.cpp.obj (.text:_ZNKSt3__212basic_stringIcNS_11char_traitsIcEENS_9allocatorIcEEE7compareEjjPKcj)
                  0001581a    0000007c                                   : locale.cpp.obj (.text:_ZNKSt3__28time_getIcNS_19istreambuf_iteratorIcNS_11char_traitsIcEEEEE11__get_am_pmERiRS4_S4_RjRKNS_5ctypeIcEE)
                  00015896    0000007c                                   : locale.cpp.obj (.text:_ZNKSt3__28time_getIwNS_19istreambuf_iteratorIwNS_11char_traitsIwEEEEE11__get_am_pmERiRS4_S4_RjRKNS_5ctypeIwEE)
                  00015912    0000007c                                   : ios.cpp.obj (.text:_ZNSt3__213basic_ostreamIcNS_11char_traitsIcEEE6sentryD1Ev)
                  0001598e    0000007c                                   : ios.cpp.obj (.text:_ZNSt3__213basic_ostreamIwNS_11char_traitsIwEEE6sentryD1Ev)
                  00015a0a    0000007c                                   : string.cpp.obj (.text:_ZNSt3__234_GLOBAL__N__10_string_cpp_11932bae9as_stringINS_12basic_stringIcNS_11char_traitsIcEENS_9allocatorIcEEEEPFYiPcjPKczEiEET_T0_SD_PKNSD_10value_typeET1_)
                  00015a86    00000002                                   : string.cpp.obj (.text:_ZNSt3__222__compressed_pair_elemINS_9allocatorIcEELi1ELb1EEC1IS2_vEEOT_)
                  00015a88    0000007c     ComandCenter.obj (.text:_ZNSt3__2plIcNS_11char_traitsIcEENS_9allocatorIcEEEENS_12basic_stringIT_T0_T1_EERKS9_PKS6_)
                  00015b04    0000007c     rtsv7M4_T_le_v4SPD16_eabi.lib : fflush.c.obj (.text:fflush)
                  00015b80    0000007a                                   : locale.cpp.obj (.text:_ZNSt3__227__num_get_unsigned_integralIjEET_PKcS3_Rji)
                  00015bfa    0000007a                                   : locale.cpp.obj (.text:_ZNSt3__227__num_get_unsigned_integralImEET_PKcS3_Rji)
                  00015c74    0000007a                                   : memset_t2.asm.obj (.text)
                  00015cee    00000002                                   : string.cpp.obj (.text:_ZNSt3__222__compressed_pair_elemINS_9allocatorIwEELi1ELb1EEC1IS2_vEEOT_)
                  00015cf0    00000078                                   : vla_alloc.c.obj (.text:_ZN33_INTERNAL_11_vla_alloc_c_be8bd49b21free_dead_allocationsEPv)
                  00015d68    00000078                                   : locale.cpp.obj (.text:_ZNKSt3__220__time_get_c_storageIcE3__rEv)
                  00015de0    00000078                                   : locale.cpp.obj (.text:_ZNSt3__215__num_get_floatIfEET_PKcS3_Rj)
                  00015e58    00000078                                   : ios.cpp.obj (.text:_ZNSt3__215basic_streambufIwNS_11char_traitsIwEEE6xsgetnEPwi)
                  00015ed0    00000078                                   : locale.cpp.obj (.text:_ZNSt3__227__num_get_unsigned_integralItEET_PKcS3_Rji)
                  00015f48    00000078                                   : vla_alloc.c.obj (.text:__vla_dealloc)
                  00015fc0    00000078                                   : memory.c.obj (.text:malloc)
                  00016038    00000076                                   : vec_newdel.c.obj (.text:_ZN34_INTERNAL_12_vec_newdel_c_8a08d4a517array_new_generalEPvijjS0_PFYS0_S0_ES2_PFYS0_jEPFYvS0_Eii)
                  000160ae    00000076                                   : string.cpp.obj (.text:_ZNSt3__212basic_stringIcNS_11char_traitsIcEENS_9allocatorIcEEE6resizeEjc)
                  00016124    00000076                                   : none_mb.c.obj (.text:wcsnrtombs)
                  0001619a    00000074                                   : string.cpp.obj (.text:_ZNSt3__212basic_stringIcNS_11char_traitsIcEENS_9allocatorIcEEE6__initEPKcj)
                  0001620e    00000074                                   : string.cpp.obj (.text:_ZNSt3__212basic_stringIcNS_11char_traitsIcEENS_9allocatorIcEEE6__initEPKcjj)
                  00016282    00000074                                   : string.cpp.obj (.text:_ZNSt3__212basic_stringIcNS_11char_traitsIcEENS_9allocatorIcEEE6__initEjc)
                  000162f6    00000002                                   : stdlib_typeinfo.cpp.obj (.text:_ZNSt9type_infoD1Ev)
                  000162f8    00000074                                   : locale.cpp.obj (.text:_ZNSt3__215__num_get_floatIdEET_PKcS3_Rj)
                  0001636c    00000074                                   : locale.cpp.obj (.text:_ZNSt3__215__num_get_floatIeEET_PKcS3_Rj)
                  000163e0    00000074                                   : ios.cpp.obj (.text:_ZNSt3__215basic_streambufIcNS_11char_traitsIcEEE6xsgetnEPci)
                  00016454    00000074                                   : locale.cpp.obj (.text:_ZNSt3__216__check_groupingERKNS_12basic_stringIcNS_11char_traitsIcEENS_9allocatorIcEEEEPjS8_Rj)
                  000164c8    00000074     ComandCenter.obj (.text:_ZNSt3__219__str_find_first_ofIcjNS_11char_traitsIcEELj4294967295EEET0_PKT_S3_S6_S3_S3_)
                  0001653c    00000074     rtsv7M4_T_le_v4SPD16_eabi.lib : locale.cpp.obj (.text:_ZNSt3__227__num_get_unsigned_integralIyEET_PKcS3_Rji)
                  000165b0    00000074                                   : fclose.c.obj (.text:__TI_closefile)
                  00016624    00000072                                   : vec_newdel.c.obj (.text:_ZN34_INTERNAL_12_vec_newdel_c_8a08d4a520array_delete_generalEPvijjPFYS0_S0_EiPFYvS0_Eii)
                  00016696    0000006e                                   : _printfi.c.obj (.text:_mcpy)
                  00016704    0000006e                                   : fd_tos_t2.asm.obj (.text)
                  00016772    0000006c                                   : locale.cpp.obj (.text:_ZNSt3__26locale5__imp7installEPNS0_5facetEl)
                  000167de    0000006a                                   : string.cpp.obj (.text:_ZNSt3__234_GLOBAL__N__10_string_cpp_11932bae17as_integer_helperIlNS_12basic_stringIcNS_11char_traitsIcEENS_9allocatorIcEEEEPFYlPKcPPciEEET_RKS7_RKT0_PjiT1_)
                  00016848    00000068                                   : hostlseek.c.obj (.text:HOSTlseek)
                  000168b0    00000068                                   : hostrename.c.obj (.text:HOSTrename)
                  00016918    00000068                                   : locale.cpp.obj (.text:_ZNKSt3__220__time_get_c_storageIcE3__XEv)
                  00016980    00000068                                   : locale.cpp.obj (.text:_ZNKSt3__220__time_get_c_storageIcE3__xEv)
                  000169e8    00000068                                   : locale.cpp.obj (.text:_ZNKSt3__28time_getIcNS_19istreambuf_iteratorIcNS_11char_traitsIcEEEEE13__get_percentERS4_S4_RjRKNS_5ctypeIcEE)
                  00016a50    00000068                                   : locale.cpp.obj (.text:_ZNKSt3__28time_getIwNS_19istreambuf_iteratorIwNS_11char_traitsIwEEEEE13__get_percentERS4_S4_RjRKNS_5ctypeIwEE)
                  00016ab8    00000068                                   : locale.cpp.obj (.text:_ZNKSt3__28time_putIwNS_19ostreambuf_iteratorIwNS_11char_traitsIwEEEEE6do_putES4_RNS_8ios_baseEwPK2tmcc)
                  00016b20    00000068                                   : string.cpp.obj (.text:_ZNSt3__212basic_stringIcNS_11char_traitsIcEENS_9allocatorIcEEEC1ERKS5_jjRKS4_)
                  00016b88    00000068                                   : ios.cpp.obj (.text:_ZNSt3__215basic_streambufIwNS_11char_traitsIwEEE6xsputnEPKwi)
                  00016bf0    00000068                                   : locale.cpp.obj (.text:_ZNSt3__29__num_getIcE19__stage2_float_prepERNS_8ios_baseEPcRcS5_)
                  00016c58    00000068                                   : locale.cpp.obj (.text:_ZNSt3__29__num_getIwE19__stage2_float_prepERNS_8ios_baseEPwRwS5_)
                  00016cc0    00000068                                   : sscanf.c.obj (.text:_chkmbc)
                  00016d28    00000068                                   : copy_decompress_lzss.c.obj (.text:decompress:lzss:__TI_decompress_lzss)
                  00016d90    00000066                                   : locale.cpp.obj (.text:_ZNKSt3__28time_putIcNS_19ostreambuf_iteratorIcNS_11char_traitsIcEEEEE6do_putES4_RNS_8ios_baseEcPK2tmcc)
                  00016df6    00000064                                   : ios.cpp.obj (.text:_ZNSt3__215basic_streambufIcNS_11char_traitsIcEEE6xsputnEPKci)
                  00016e5a    00000002                                   : _lock.c.obj (.text:_nop)
                  00016e5c    00000064                                   : fprintf.c.obj (.text:fprintf)
                  00016ec0    00000064                                   : s_frexp.c.obj (.text:frexp)
                  00016f24    00000064                                   : fseek.c.obj (.text:fseek)
                  00016f88    00000062                                   : _io_perm.c.obj (.text:__TI_wrt_ok)
                  00016fea    00000002                                   : xlocale.c.obj (.text:freelocale)
                  00016fec    00000060                                   : hostopen.c.obj (.text:HOSTopen)
                  0001704c    00000060                                   : autoinit.c.obj (.text:__TI_auto_init_nobinit:__TI_auto_init_nobinit)
                  000170ac    0000005e                                   : locale.cpp.obj (.text:_ZNKSt3__219istreambuf_iteratorIcNS_11char_traitsIcEEE5equalERKS3_)
                  0001710a    0000005e                                   : locale.cpp.obj (.text:_ZNKSt3__219istreambuf_iteratorIwNS_11char_traitsIwEEE5equalERKS3_)
                  00017168    0000005e                                   : locale.cpp.obj (.text:_ZNSt3__2eqIcNS_11char_traitsIcEEEEbRKNS_19istreambuf_iteratorIT_T0_EES8_)
                  000171c6    0000005e                                   : locale.cpp.obj (.text:_ZNSt3__2neIwNS_11char_traitsIwEEEEbRKNS_19istreambuf_iteratorIT_T0_EES8_)
                  00017224    0000005c                                   : locale.cpp.obj (.text:_ZNKSt3__27collateIcE12do_transformEPKcS3_)
                  00017280    0000005c                                   : close.c.obj (.text:close)
                  000172dc    0000005a                                   : string.cpp.obj (.text:_ZNKSt3__234_GLOBAL__N__10_string_cpp_11932bae14initial_stringINS_12basic_stringIcNS_11char_traitsIcEENS_9allocatorIcEEEEiLb0EEclEv)
                  00017336    0000005a                                   : locale.cpp.obj (.text:_ZNKSt3__28time_getIwNS_19istreambuf_iteratorIwNS_11char_traitsIwEEEEE11do_get_dateES4_S4_RNS_8ios_baseERjP2tm)
                  00017390    0000005a                                   : locale.cpp.obj (.text:_ZNKSt3__28time_getIwNS_19istreambuf_iteratorIwNS_11char_traitsIwEEEEE17__get_white_spaceERS4_S4_RjRKNS_5ctypeIwEE)
                  000173ea    00000002                                   : div0.asm.obj (.text)
                  000173ec    00000058                                   : hostread.c.obj (.text:HOSTread)
                  00017444    00000058                                   : hostwrite.c.obj (.text:HOSTwrite)
                  0001749c    00000058                                   : locale.cpp.obj (.text:_ZNKSt3__28time_getIcNS_19istreambuf_iteratorIcNS_11char_traitsIcEEEEE17__get_white_spaceERS4_S4_RjRKNS_5ctypeIcEE)
                  000174f4    00000056                                   : locale.cpp.obj (.text:_ZNKSt3__28time_getIcNS_19istreambuf_iteratorIcNS_11char_traitsIcEEEEE11do_get_dateES4_S4_RNS_8ios_baseERjP2tm)
                  0001754a    00000056                                   : _printfi.c.obj (.text:_pconv_f)
                  000175a0    00000054                                   : ltoa.c.obj (.text:ltoa)
                  000175f4    00000052                                   : _printfi.c.obj (.text:_ecpy)
                  00017646    00000050                                   : ios.cpp.obj (.text:_ZNSt3__213basic_ostreamIcNS_11char_traitsIcEEE5flushEv)
                  00017696    00000050                                   : ios.cpp.obj (.text:_ZNSt3__213basic_ostreamIwNS_11char_traitsIwEEE5flushEv)
                  000176e6    00000050                                   : none_mb.c.obj (.text:mbsnrtowcs)
                  00017736    0000004c                                   : iostream.cpp.obj (.text:_ZNSt3__211__stdoutbufIcE4syncEv)
                  00017782    0000004c                                   : iostream.cpp.obj (.text:_ZNSt3__211__stdoutbufIwE4syncEv)
                  000177ce    00000002     --HOLE-- [fill = 0]
                  000177d0    0000004c                                   : string.cpp.obj (.text:_ZNSt3__212basic_stringIcNS_11char_traitsIcEENS_9allocatorIcEEEC1ERKS5_)
                  0001781c    0000004c                                   : string.cpp.obj (.text:_ZNSt3__212basic_stringIwNS_11char_traitsIwEENS_9allocatorIwEEEC1ERKS5_)
                  00017868    0000004c                                   : ios.cpp.obj (.text:_ZNSt3__213basic_ostreamIcNS_11char_traitsIcEEE6sentryC1ERS3_)
                  000178b4    0000004c                                   : ios.cpp.obj (.text:_ZNSt3__213basic_ostreamIwNS_11char_traitsIwEEE6sentryC1ERS3_)
                  00017900    0000004c                                   : fflush.c.obj (.text:__TI_doflush)
                  0001794c    0000004c                                   : atoi.c.obj (.text:atoi)
                  00017998    0000004c                                   : snprintf.c.obj (.text:snprintf)
                  000179e4    0000004a                                   : locale.cpp.obj (.text:_ZNSt3__214__num_put_base12__format_intEPcPKcbj)
                  00017a2e    0000004a                                   : _io_perm.c.obj (.text:__TI_rd_ok)
                  00017a78    00000048                                   : locale.cpp.obj (.text:_ZNKSt3__27codecvtIDiciE6do_outERiPKDiS4_RS4_PcS6_RS6_)
                  00017ac0    00000048                                   : locale.cpp.obj (.text:_ZNKSt3__27codecvtIDsciE6do_outERiPKDsS4_RS4_PcS6_RS6_)
                  00017b08    00000048                                   : locale.cpp.obj (.text:_ZNKSt3__27codecvtIwciE10do_unshiftERiPcS3_RS3_)
                  00017b50    00000048                                   : locale.cpp.obj (.text:_ZNKSt3__27codecvtIwciE9do_lengthERiPKcS4_j)
                  00017b98    00000048                                   : iostream.cpp.obj (.text:_ZNSt3__211__stdoutbufIcEC1EP7__sFILEPi)
                  00017be0    00000048                                   : iostream.cpp.obj (.text:_ZNSt3__211__stdoutbufIwEC1EP7__sFILEPi)
                  00017c28    00000048                                   : exit.c.obj (.text:exit)
                  00017c70    00000048                                   : fd_toi_t2.asm.obj (.text)
                  00017cb8    00000046                                   : locale.cpp.obj (.text:_ZNKSt3__28time_getIcNS_19istreambuf_iteratorIcNS_11char_traitsIcEEEEE15__get_monthnameERiRS4_S4_RjRKNS_5ctypeIcEE)
                  00017cfe    00000046                                   : locale.cpp.obj (.text:_ZNKSt3__28time_getIcNS_19istreambuf_iteratorIcNS_11char_traitsIcEEEEE17__get_weekdaynameERiRS4_S4_RjRKNS_5ctypeIcEE)
                  00017d44    00000046                                   : locale.cpp.obj (.text:_ZNKSt3__28time_getIwNS_19istreambuf_iteratorIwNS_11char_traitsIwEEEEE15__get_monthnameERiRS4_S4_RjRKNS_5ctypeIwEE)
                  00017d8a    00000046                                   : locale.cpp.obj (.text:_ZNKSt3__28time_getIwNS_19istreambuf_iteratorIwNS_11char_traitsIwEEEEE17__get_weekdaynameERiRS4_S4_RjRKNS_5ctypeIwEE)
                  00017dd0    00000046                                   : iostream.cpp.obj (.text:_ZNSt3__211__stdoutbufIcE6xsputnEPKci)
                  00017e16    00000046                                   : iostream.cpp.obj (.text:_ZNSt3__211__stdoutbufIwE6xsputnEPKwi)
                  00017e5c    00000044                                   : hostclose.c.obj (.text:HOSTclose)
                  00017ea0    00000044                                   : hostunlink.c.obj (.text:HOSTunlink)
                  00017ee4    00000044                                   : dtor_list.c.obj (.text:_Z25__add_destruction_to_listPP20a_needed_destructionPFYvPvES2_S2_)
                  00017f28    00000044                                   : locale.cpp.obj (.text:_ZNKSt3__210__time_put8__do_putEPcRS1_PK2tmcc)
                  00017f6c    00000044                                   : locale.cpp.obj (.text:_ZNKSt3__27codecvtIDiciE5do_inERiPKcS4_RS4_PDiS6_RS6_)
                  00017fb0    00000044                                   : locale.cpp.obj (.text:_ZNKSt3__27codecvtIDsciE5do_inERiPKcS4_RS4_PDsS6_RS6_)
                  00017ff4    00000044                                   : iostream.cpp.obj (.text:_ZNSt3__210__stdinbufIcEC1EP7__sFILEPi)
                  00018038    00000044                                   : iostream.cpp.obj (.text:_ZNSt3__210__stdinbufIwEC1EP7__sFILEPi)
                  0001807c    00000044                                   : getdevice.c.obj (.text:getdevice)
                  000180c0    00000042                                   : dtor_list.c.obj (.text:_Z23__finalize_destructionsPP20a_needed_destructionPv)
                  00018102    00000042                                   : locale.cpp.obj (.text:_ZNSt3__214__split_bufferIPNS_6locale5facetERNS_15__sso_allocatorIS3_Lj28EEEEC1EjjS6_)
                  00018144    00000040                                   : locale.cpp.obj (.text:_ZNKSt3__28time_getIcNS_19istreambuf_iteratorIcNS_11char_traitsIcEEEEE11do_get_yearES4_S4_RNS_8ios_baseERjP2tm)
                  00018184    00000040                                   : locale.cpp.obj (.text:_ZNKSt3__28time_getIcNS_19istreambuf_iteratorIcNS_11char_traitsIcEEEEE14do_get_weekdayES4_S4_RNS_8ios_baseERjP2tm)
                  000181c4    00000040                                   : locale.cpp.obj (.text:_ZNKSt3__28time_getIcNS_19istreambuf_iteratorIcNS_11char_traitsIcEEEEE16do_get_monthnameES4_S4_RNS_8ios_baseERjP2tm)
                  00018204    00000040                                   : locale.cpp.obj (.text:_ZNKSt3__28time_getIwNS_19istreambuf_iteratorIwNS_11char_traitsIwEEEEE11do_get_timeES4_S4_RNS_8ios_baseERjP2tm)
                  00018244    00000040                                   : locale.cpp.obj (.text:_ZNKSt3__28time_getIwNS_19istreambuf_iteratorIwNS_11char_traitsIwEEEEE11do_get_yearES4_S4_RNS_8ios_baseERjP2tm)
                  00018284    00000040                                   : locale.cpp.obj (.text:_ZNKSt3__28time_getIwNS_19istreambuf_iteratorIwNS_11char_traitsIwEEEEE14do_get_weekdayES4_S4_RNS_8ios_baseERjP2tm)
                  000182c4    00000040                                   : locale.cpp.obj (.text:_ZNKSt3__28time_getIwNS_19istreambuf_iteratorIwNS_11char_traitsIwEEEEE16do_get_monthnameES4_S4_RNS_8ios_baseERjP2tm)
                  00018304    00000040                                   : locale.cpp.obj (.text:_ZNSt3__26locale2id5__getEv)
                  00018344    00000040                                   : ios.cpp.obj (.text:_ZNSt3__28ios_base4initEPv)
                  00018384    00000040                                   : vsnprintf.c.obj (.text:vsnprintf)
                  000183c4    0000003e                                   : locale.cpp.obj (.text:_ZNSt3__26vectorIPNS_6locale5facetENS_15__sso_allocatorIS3_Lj28EEEE8allocateEj)
                  00018402    0000003e                                   : _printfi.c.obj (.text:_fcpy)
                  00018440    0000003d                                   : string.cpp.obj (.text:_ZNSt3__24stoiERKNS_12basic_stringIcNS_11char_traitsIcEENS_9allocatorIcEEEEPji)
                  0001847d    00000003     --HOLE-- [fill = 0]
                  00018480    0000003c                                   : iostream.cpp.obj (.text:_ZNSt3__210__stdinbufIcE5imbueERKNS_6localeE)
                  000184bc    0000003c                                   : memory.c.obj (.text:minsert)
                  000184f8    0000003a                                   : locale.cpp.obj (.text:_ZNKSt3__27collateIwE10do_compareEPKwS3_S3_S3_)
                  00018532    0000003a                                   : locale.cpp.obj (.text:_ZNSt3__214__num_put_base18__identify_paddingEPcS1_RKNS_8ios_baseE)
                  0001856c    00000038                                   : locale.cpp.obj (.text:_ZNKSt3__25ctypeIcE10do_tolowerEPcPKc)
                  000185a4    00000038                                   : locale.cpp.obj (.text:_ZNKSt3__25ctypeIcE10do_toupperEPcPKc)
                  000185dc    00000038                                   : locale.cpp.obj (.text:_ZNKSt3__25ctypeIwE10do_tolowerEPwPKw)
                  00018614    00000038                                   : locale.cpp.obj (.text:_ZNKSt3__25ctypeIwE10do_toupperEPwPKw)
                  0001864c    00000038                                   : locale.cpp.obj (.text:_ZNKSt3__27collateIcE10do_compareEPKcS3_S3_S3_)
                  00018684    00000038                                   : locale.cpp.obj (.text:_ZNKSt3__28time_getIcNS_19istreambuf_iteratorIcNS_11char_traitsIcEEEEE10__get_yearERiRS4_S4_RjRKNS_5ctypeIcEE)
                  000186bc    00000038                                   : locale.cpp.obj (.text:_ZNKSt3__28time_getIwNS_19istreambuf_iteratorIwNS_11char_traitsIwEEEEE10__get_yearERiRS4_S4_RjRKNS_5ctypeIwEE)
                  000186f4    00000038                                   : iostream.cpp.obj (.text:_ZNSt3__210__stdinbufIwE5imbueERKNS_6localeE)
                  0001872c    00000038                                   : locale.cpp.obj (.text:_ZNSt3__26__clocEv)
                  00018764    00000038                                   : ios.cpp.obj (.text:_ZNSt3__28ios_baseD1Ev)
                  0001879c    00000038                                   : locale.cpp.obj (.text:_ZNSt3__28numpunctIcEC1Ej)
                  000187d4    00000038                                   : locale.cpp.obj (.text:_ZNSt3__28numpunctIwEC1Ej)
                  0001880c    00000038                                   : trgmsg.c.obj (.text:__TI_writemsg)
                  00018844    00000038                                   : boot_cortex_m.c.obj (.text:_c_int00_noargs:_c_int00_noargs)
                  0001887c    00000038                                   : memory.c.obj (.text:minit)
                  000188b4    00000038                                   : sscanf.c.obj (.text:sscanf)
                  000188ec    00000036                                   : strncpy.c.obj (.text:strncpy)
                  00018922    00000036                                   : vasprintf.c.obj (.text:vasprintf)
                  00018958    00000034                                   : locale.cpp.obj (.text:_ZNKSt3__28time_getIcNS_19istreambuf_iteratorIcNS_11char_traitsIcEEEEE11do_get_timeES4_S4_RNS_8ios_baseERjP2tm)
                  0001898c    00000034                                   : string.cpp.obj (.text:_ZNSt3__29to_stringEi)
                  000189c0    00000034                                   : fopen.c.obj (.text:__TI_cleanup)
                  000189f4    00000034                                   : trgmsg.c.obj (.text:__TI_readmsg)
                  00018a28    00000034                                   : dtor_list.c.obj (.text:__aeabi_atexit)
                  00018a5c    00000032                                   : locale.cpp.obj (.text:_ZNKSt3__27collateIwE7do_hashEPKwS3_)
                  00018a8e    00000032                                   : locale.cpp.obj (.text:_ZNKSt3__28time_getIcNS_19istreambuf_iteratorIcNS_11char_traitsIcEEEEE13__get_12_hourERiRS4_S4_RjRKNS_5ctypeIcEE)
                  00018ac0    00000032                                   : locale.cpp.obj (.text:_ZNKSt3__28time_getIcNS_19istreambuf_iteratorIcNS_11char_traitsIcEEEEE9__get_dayERiRS4_S4_RjRKNS_5ctypeIcEE)
                  00018af2    00000032                                   : locale.cpp.obj (.text:_ZNKSt3__28time_getIwNS_19istreambuf_iteratorIwNS_11char_traitsIwEEEEE13__get_12_hourERiRS4_S4_RjRKNS_5ctypeIwEE)
                  00018b24    00000032                                   : locale.cpp.obj (.text:_ZNKSt3__28time_getIwNS_19istreambuf_iteratorIwNS_11char_traitsIwEEEEE9__get_dayERiRS4_S4_RjRKNS_5ctypeIwEE)
                  00018b56    00000030                                   : locale.cpp.obj (.text:_ZNKSt3__27collateIcE7do_hashEPKcS3_)
                  00018b86    00000030                                   : locale.cpp.obj (.text:_ZNKSt3__28time_getIcNS_19istreambuf_iteratorIcNS_11char_traitsIcEEEEE11__get_monthERiRS4_S4_RjRKNS_5ctypeIcEE)
                  00018bb6    00000030                                   : locale.cpp.obj (.text:_ZNKSt3__28time_getIcNS_19istreambuf_iteratorIcNS_11char_traitsIcEEEEE18__get_day_year_numERiRS4_S4_RjRKNS_5ctypeIcEE)
                  00018be6    00000030                                   : locale.cpp.obj (.text:_ZNKSt3__28time_getIwNS_19istreambuf_iteratorIwNS_11char_traitsIwEEEEE11__get_monthERiRS4_S4_RjRKNS_5ctypeIwEE)
                  00018c16    00000030                                   : locale.cpp.obj (.text:_ZNKSt3__28time_getIwNS_19istreambuf_iteratorIwNS_11char_traitsIwEEEEE18__get_day_year_numERiRS4_S4_RjRKNS_5ctypeIwEE)
                  00018c46    00000030                                   : locale.cpp.obj (.text:_ZNSt3__219ostreambuf_iteratorIcNS_11char_traitsIcEEEaSEc)
                  00018c76    00000030                                   : locale.cpp.obj (.text:_ZNSt3__219ostreambuf_iteratorIwNS_11char_traitsIwEEEaSEw)
                  00018ca6    00000002     --HOLE-- [fill = 0]
                  00018ca8    00000030                                   : string.cpp.obj (.text:_ZNSt3__234_GLOBAL__N__10_string_cpp_11932bae12throw_helperISt12out_of_rangeEEvRKNS_12basic_stringIcNS_11char_traitsIcEENS_9allocatorIcEEEE)
                  00018cd8    00000030                                   : string.cpp.obj (.text:_ZNSt3__234_GLOBAL__N__10_string_cpp_11932bae12throw_helperISt16invalid_argumentEEvRKNS_12basic_stringIcNS_11char_traitsIcEENS_9allocatorIcEEEE)
                  00018d08    00000030                                   : locale.cpp.obj (.text:_ZNSt3__26locale8__globalEv)
                  00018d38    00000030                                   : iostream.cpp.obj (.text:_ZNSt3__28ios_base4InitD1Ev)
                  00018d68    00000030                                   : snprintf.c.obj (.text:_outs)
                  00018d98    00000030                                   : vsnprintf.c.obj (.text:_outs)
                  00018dc8    00000030                                   : getdevice.c.obj (.text:finddevice)
                  00018df8    0000002e                                   : locale.cpp.obj (.text:_ZNKSt3__25ctypeIwE5do_isEPKwS3_Ph)
                  00018e26    0000002e                                   : locale.cpp.obj (.text:_ZNKSt3__27codecvtIwciE11do_encodingEv)
                  00018e54    0000002e                                   : locale.cpp.obj (.text:_ZNKSt3__28time_getIcNS_19istreambuf_iteratorIcNS_11char_traitsIcEEEEE10__get_hourERiRS4_S4_RjRKNS_5ctypeIcEE)
                  00018e82    0000002e                                   : locale.cpp.obj (.text:_ZNKSt3__28time_getIcNS_19istreambuf_iteratorIcNS_11char_traitsIcEEEEE12__get_minuteERiRS4_S4_RjRKNS_5ctypeIcEE)
                  00018eb0    0000002e                                   : locale.cpp.obj (.text:_ZNKSt3__28time_getIcNS_19istreambuf_iteratorIcNS_11char_traitsIcEEEEE12__get_secondERiRS4_S4_RjRKNS_5ctypeIcEE)
                  00018ede    0000002e                                   : locale.cpp.obj (.text:_ZNKSt3__28time_getIcNS_19istreambuf_iteratorIcNS_11char_traitsIcEEEEE13__get_weekdayERiRS4_S4_RjRKNS_5ctypeIcEE)
                  00018f0c    0000002e                                   : locale.cpp.obj (.text:_ZNKSt3__28time_getIwNS_19istreambuf_iteratorIwNS_11char_traitsIwEEEEE10__get_hourERiRS4_S4_RjRKNS_5ctypeIwEE)
                  00018f3a    0000002e                                   : locale.cpp.obj (.text:_ZNKSt3__28time_getIwNS_19istreambuf_iteratorIwNS_11char_traitsIwEEEEE12__get_minuteERiRS4_S4_RjRKNS_5ctypeIwEE)
                  00018f68    0000002e                                   : locale.cpp.obj (.text:_ZNKSt3__28time_getIwNS_19istreambuf_iteratorIwNS_11char_traitsIwEEEEE12__get_secondERiRS4_S4_RjRKNS_5ctypeIwEE)
                  00018f96    0000002e                                   : locale.cpp.obj (.text:_ZNKSt3__28time_getIwNS_19istreambuf_iteratorIwNS_11char_traitsIwEEEEE13__get_weekdayERiRS4_S4_RjRKNS_5ctypeIwEE)
                  00018fc4    0000002e                                   : string.cpp.obj (.text:_ZNSt3__212basic_stringIcNS_11char_traitsIcEENS_9allocatorIcEEEaSERKS5_)
                  00018ff2    0000002e                                   : locale.cpp.obj (.text:_ZNSt3__214__split_bufferIPNS_6locale5facetERNS_15__sso_allocatorIS3_Lj28EEEED1Ev)
                  00019020    0000002e                                   : none_mb.c.obj (.text:mbtowc)
                  0001904e    0000002e                                   : i_tofd_t2.asm.obj (.text)
                  0001907c    0000002c                                   : iostream.cpp.obj (.text:_ZNSt3__211__stdoutbufIcE5imbueERKNS_6localeE)
                  000190a8    0000002c                                   : iostream.cpp.obj (.text:_ZNSt3__211__stdoutbufIwE5imbueERKNS_6localeE)
                  000190d4    0000002c                                   : locale.cpp.obj (.text:_ZNSt3__26locale7classicEv)
                  00019100    0000002c                                   : unlink.c.obj (.text:unlink)
                  0001912c    0000002a                                   : locale.cpp.obj (.text:_ZNKSt3__25ctypeIwE10do_scan_isEhPKwS3_)
                  00019156    0000002a                                   : locale.cpp.obj (.text:_ZNKSt3__25ctypeIwE11do_scan_notEhPKwS3_)
                  00019180    0000002a                                   : ios.cpp.obj (.text:_ZNSt3__215basic_streambufIcNS_11char_traitsIcEEE7seekposENS_4fposIiEEj)
                  000191aa    0000002a                                   : ios.cpp.obj (.text:_ZNSt3__215basic_streambufIwNS_11char_traitsIwEEE7seekposENS_4fposIiEEj)
                  000191d4    00000028                                   : lseek.c.obj (.text:lseek)
                  000191fc    00000028                                   : memory.c.obj (.text:mremove)
                  00019224    00000028                                   : read.c.obj (.text:read)
                  0001924c    00000028                                   : write.c.obj (.text:write)
                  00019274    00000026                                   : locale.cpp.obj (.text:_ZNKSt3__28numpunctIcE12do_falsenameEv)
                  0001929a    00000026                                   : locale.cpp.obj (.text:_ZNKSt3__28time_getIcNS_19istreambuf_iteratorIcNS_11char_traitsIcEEEEE11__get_year4ERiRS4_S4_RjRKNS_5ctypeIcEE)
                  000192c0    00000026                                   : locale.cpp.obj (.text:_ZNKSt3__28time_getIwNS_19istreambuf_iteratorIwNS_11char_traitsIwEEEEE11__get_year4ERiRS4_S4_RjRKNS_5ctypeIwEE)
                  000192e6    00000026                                   : ios.cpp.obj (.text:_ZNSt3__28ios_base16__call_callbacksENS0_5eventE)
                  0001930c    00000026                                   : none_mb.c.obj (.text:mbrtowc)
                  00019332    00000024     Monitor.obj (.text:_ZN10RingBufferIcE3GetEv)
                  00019356    00000002     --HOLE-- [fill = 0]
                  00019358    00000024     rtsv7M4_T_le_v4SPD16_eabi.lib : locale.cpp.obj (.text:_ZNKSt3__25ctypeIcE10do_tolowerEc)
                  0001937c    00000024                                   : locale.cpp.obj (.text:_ZNKSt3__25ctypeIcE10do_toupperEc)
                  000193a0    00000024                                   : locale.cpp.obj (.text:_ZNKSt3__25ctypeIwE10do_tolowerEw)
                  000193c4    00000024                                   : locale.cpp.obj (.text:_ZNKSt3__25ctypeIwE9do_narrowEPKwS3_cPc)
                  000193e8    00000024                                   : ios.cpp.obj (.text:_ZNSt3__215basic_streambufIcNS_11char_traitsIcEEE5uflowEv)
                  0001940c    00000024                                   : ios.cpp.obj (.text:_ZNSt3__215basic_streambufIcNS_11char_traitsIcEEEC1Ev)
                  00019430    00000024                                   : ios.cpp.obj (.text:_ZNSt3__215basic_streambufIwNS_11char_traitsIwEEE5uflowEv)
                  00019454    00000024                                   : ios.cpp.obj (.text:_ZNSt3__215basic_streambufIwNS_11char_traitsIwEEEC1Ev)
                  00019478    00000024                                   : locale.cpp.obj (.text:_ZNSt3__25ctypeIcEC1EPKhbj)
                  0001949c    00000024                                   : locale.cpp.obj (.text:_ZNSt3__26vectorIPNS_6locale5facetENS_15__sso_allocatorIS3_Lj28EEEEC1Ej)
                  000194c0    00000024                                   : locale.cpp.obj (.text:_ZNSt3__27codecvtIwciED1Ev)
                  000194e4    00000024                                   : vec_newdel.c.obj (.text:__cxa_vec_ctor)
                  00019508    00000024                                   : memcmp.c.obj (.text:memcmp)
                  0001952c    00000024                                   : memmov.c.obj (.text:memmove)
                  00019550    00000022                                   : locale.cpp.obj (.text:_ZNKSt3__25ctypeIcE9do_narrowEPKcS3_cPc)
                  00019572    00000022                                   : locale.cpp.obj (.text:_ZNKSt3__25ctypeIwE10do_toupperEw)
                  00019594    00000022                                   : locale.cpp.obj (.text:_ZNSt3__214__num_get_base10__get_baseERNS_8ios_baseE)
                  000195b6    00000022                                   : new.cpp.obj (.text:_Znwj)
                  000195d8    00000021                                   : locale.cpp.obj (.text:_ZNKSt3__28numpunctIcE11do_truenameEv)
                  000195f9    00000001     --HOLE-- [fill = 0]
                  000195fa    00000020                                   : iostream.cpp.obj (.text:_ZNKSt3__27codecvtIcciE3outERiPKcS4_RS4_PcS6_RS6_)
                  0001961a    00000020                                   : iostream.cpp.obj (.text:_ZNKSt3__27codecvtIwciE3outERiPKwS4_RS4_PcS6_RS6_)
                  0001963a    00000020                                   : string.cpp.obj (.text:_ZNSt3__212basic_stringIcNS_11char_traitsIcEENS_9allocatorIcEEED1Ev)
                  0001965a    00000020                                   : string.cpp.obj (.text:_ZNSt3__212basic_stringIwNS_11char_traitsIwEENS_9allocatorIwEEED1Ev)
                  0001967a    00000020                                   : locale.cpp.obj (.text:_ZNSt3__217__call_once_proxyINS_5tupleIJONS_34_GLOBAL__N__10_locale_cpp_a718320311__fake_bindEEEEEEvPv)
                  0001969a    00000020                                   : locale.cpp.obj (.text:_ZNSt3__219istreambuf_iteratorIcNS_11char_traitsIcEEEppEv)
                  000196ba    00000020                                   : locale.cpp.obj (.text:_ZNSt3__219istreambuf_iteratorIwNS_11char_traitsIwEEEppEv)
                  000196da    00000002     --HOLE-- [fill = 0]
                  000196dc    00000020                                   : string.cpp.obj (.text:_ZNSt3__234_GLOBAL__N__10_string_cpp_11932bae29throw_from_string_invalid_argERKNS_12basic_stringIcNS_11char_traitsIcEENS_9allocatorIcEEEE)
                  000196fc    00000020                                   : string.cpp.obj (.text:_ZNSt3__234_GLOBAL__N__10_string_cpp_11932bae30throw_from_string_out_of_rangeERKNS_12basic_stringIcNS_11char_traitsIcEENS_9allocatorIcEEEE)
                  0001971c    00000020                                   : iostream.cpp.obj (.text:__sti___12_iostream_cpp_d173592a__prio101)
                  0001973c    00000020                                   : wctype.c.obj (.text:iswlower)
                  0001975c    00000020                                   : memchr.c.obj (.text:memchr)
                  0001977c    00000020                                   : sscanf.c.obj (.text:vsscanf)
                  0001979c    00000020                                   : none_mb.c.obj (.text:wcrtomb)
                  000197bc    0000001e                                   : locale.cpp.obj (.text:_ZNKSt3__210moneypunctIcLb0EE13do_neg_formatEv)
                  000197da    0000001e                                   : locale.cpp.obj (.text:_ZNKSt3__210moneypunctIcLb0EE13do_pos_formatEv)
                  000197f8    0000001e                                   : locale.cpp.obj (.text:_ZNKSt3__210moneypunctIcLb0EE16do_negative_signEv)
                  00019816    0000001e                                   : locale.cpp.obj (.text:_ZNKSt3__210moneypunctIcLb1EE13do_neg_formatEv)
                  00019834    0000001e                                   : locale.cpp.obj (.text:_ZNKSt3__210moneypunctIcLb1EE13do_pos_formatEv)
                  00019852    0000001e                                   : locale.cpp.obj (.text:_ZNKSt3__210moneypunctIcLb1EE16do_negative_signEv)
                  00019870    0000001e                                   : locale.cpp.obj (.text:_ZNKSt3__210moneypunctIwLb0EE13do_neg_formatEv)
                  0001988e    0000001e                                   : locale.cpp.obj (.text:_ZNKSt3__210moneypunctIwLb0EE13do_pos_formatEv)
                  000198ac    0000001e                                   : locale.cpp.obj (.text:_ZNKSt3__210moneypunctIwLb0EE16do_negative_signEv)
                  000198ca    0000001e                                   : locale.cpp.obj (.text:_ZNKSt3__210moneypunctIwLb1EE13do_neg_formatEv)
                  000198e8    0000001e                                   : locale.cpp.obj (.text:_ZNKSt3__210moneypunctIwLb1EE13do_pos_formatEv)
                  00019906    0000001e                                   : locale.cpp.obj (.text:_ZNKSt3__210moneypunctIwLb1EE16do_negative_signEv)
                  00019924    0000001e                                   : string.cpp.obj (.text:_ZNSt3__211char_traitsIcE6assignEPcjc)
                  00019942    0000001e                                   : string.cpp.obj (.text:_ZNSt3__212basic_stringIcNS_11char_traitsIcEENS_9allocatorIcEEEC1Ev)
                  00019960    0000001e                                   : string.cpp.obj (.text:_ZNSt3__212basic_stringIwNS_11char_traitsIwEENS_9allocatorIwEEEC1Ev)
                  0001997e    0000001e                                   : ios.cpp.obj (.text:_ZNSt3__215basic_streambufIcNS_11char_traitsIcEEE7seekoffExNS_8ios_base7seekdirEj)
                  0001999c    0000001e                                   : ios.cpp.obj (.text:_ZNSt3__215basic_streambufIwNS_11char_traitsIwEEE7seekoffExNS_8ios_base7seekdirEj)
                  000199ba    0000001c                                   : locale.cpp.obj (.text:_ZNKSt3__210moneypunctIcLb0EE11do_groupingEv)
                  000199d6    0000001c                                   : locale.cpp.obj (.text:_ZNKSt3__210moneypunctIcLb0EE14do_curr_symbolEv)
                  000199f2    0000001c                                   : locale.cpp.obj (.text:_ZNKSt3__210moneypunctIcLb0EE16do_positive_signEv)
                  00019a0e    0000001c                                   : locale.cpp.obj (.text:_ZNKSt3__210moneypunctIcLb1EE11do_groupingEv)
                  00019a2a    0000001c                                   : locale.cpp.obj (.text:_ZNKSt3__210moneypunctIcLb1EE14do_curr_symbolEv)
                  00019a46    0000001c                                   : locale.cpp.obj (.text:_ZNKSt3__210moneypunctIcLb1EE16do_positive_signEv)
                  00019a62    0000001c                                   : locale.cpp.obj (.text:_ZNKSt3__210moneypunctIwLb0EE11do_groupingEv)
                  00019a7e    0000001c                                   : locale.cpp.obj (.text:_ZNKSt3__210moneypunctIwLb0EE14do_curr_symbolEv)
                  00019a9a    0000001c                                   : locale.cpp.obj (.text:_ZNKSt3__210moneypunctIwLb0EE16do_positive_signEv)
                  00019ab6    0000001c                                   : locale.cpp.obj (.text:_ZNKSt3__210moneypunctIwLb1EE11do_groupingEv)
                  00019ad2    0000001c                                   : locale.cpp.obj (.text:_ZNKSt3__210moneypunctIwLb1EE14do_curr_symbolEv)
                  00019aee    0000001c                                   : locale.cpp.obj (.text:_ZNKSt3__210moneypunctIwLb1EE16do_positive_signEv)
                  00019b0a    0000001c                                   : locale.cpp.obj (.text:_ZNKSt3__25ctypeIwE5do_isEhw)
                  00019b26    0000001c                                   : string.cpp.obj (.text:_ZNSt3__212basic_stringIcNS_11char_traitsIcEENS_9allocatorIcEEE6insertEjPKc)
                  00019b42    00000002     --HOLE-- [fill = 0]
                  00019b44    0000001c                                   : ios.cpp.obj (.text:_ZNSt3__213basic_istreamIcNS_11char_traitsIcEEED1Ev)
                  00019b60    0000001c                                   : ios.cpp.obj (.text:_ZNSt3__213basic_istreamIwNS_11char_traitsIwEEED1Ev)
                  00019b7c    0000001c                                   : ios.cpp.obj (.text:_ZNSt3__213basic_ostreamIcNS_11char_traitsIcEEED1Ev)
                  00019b98    0000001c                                   : ios.cpp.obj (.text:_ZNSt3__213basic_ostreamIwNS_11char_traitsIwEEED1Ev)
                  00019bb4    0000001c                                   : locale.cpp.obj (.text:_ZNSt3__26locale5__imp12make_classicEv)
                  00019bd0    0000001c                                   : locale.cpp.obj (.text:_ZNSt3__27codecvtIwciEC1Ej)
                  00019bec    0000001c                                   : vec_newdel.c.obj (.text:__cxa_vec_dtor)
                  00019c08    0000001c                                   : memccpy.c.obj (.text:memccpy)
                  00019c24    0000001c                                   : locale_stdio.c.obj (.text:snprintf_l)
                  00019c40    0000001a                                   : locale.cpp.obj (.text:_ZNSt3__214__shared_count16__release_sharedEv)
                  00019c5a    0000001a                                   : locale.cpp.obj (.text:_ZNSt3__28numpunctIcED1Ev)
                  00019c74    0000001a                                   : locale.cpp.obj (.text:_ZNSt3__28numpunctIwED1Ev)
                  00019c8e    0000001a                                   : locale.cpp.obj (.text:_ZNSt3__28time_putIcNS_19ostreambuf_iteratorIcNS_11char_traitsIcEEEEED0Ev)
                  00019ca8    0000001a                                   : locale.cpp.obj (.text:_ZNSt3__28time_putIwNS_19ostreambuf_iteratorIwNS_11char_traitsIwEEEEED0Ev)
                  00019cc2    0000001a                                   : asprintf.c.obj (.text:asprintf_l)
                  00019cdc    0000001a                                   : locale_stdio.c.obj (.text:sscanf_l)
                  00019cf6    00000002     --HOLE-- [fill = 0]
                  00019cf8    00000018                                   : locale.cpp.obj (.text:$P$F1)
                  00019d10    00000018     Glue.obj (.text)
                  00019d28    00000018     rtsv7M4_T_le_v4SPD16_eabi.lib : locale.cpp.obj (.text:_ZNKSt3__25ctypeIcE8do_widenEPKcS3_Pc)
                  00019d40    00000018                                   : locale.cpp.obj (.text:_ZNKSt3__25ctypeIwE8do_widenEPKcS3_Pw)
                  00019d58    00000018                                   : locale.cpp.obj (.text:_ZNKSt3__27codecvtIDiciE9do_lengthERiPKcS4_j)
                  00019d70    00000018                                   : locale.cpp.obj (.text:_ZNKSt3__27codecvtIDsciE9do_lengthERiPKcS4_j)
                  00019d88    00000018                                   : locale.cpp.obj (.text:_ZNSt3__210__time_putD1Ev)
                  00019da0    00000018                                   : mutex.cpp.obj (.text:_ZNSt3__211__call_onceERVmPvPFvS2_E)
                  00019db8    00000018                                   : string.cpp.obj (.text:_ZNSt3__212basic_stringIcNS_11char_traitsIcEENS_9allocatorIcEEE6appendEPKc)
                  00019dd0    00000018                                   : string.cpp.obj (.text:_ZNSt3__212basic_stringIcNS_11char_traitsIcEENS_9allocatorIcEEE6assignEPKc)
                  00019de8    00000018                                   : string.cpp.obj (.text:_ZNSt3__212basic_stringIwNS_11char_traitsIwEENS_9allocatorIwEEE6assignEPKw)
                  00019e00    00000018                                   : locale.cpp.obj (.text:_ZNSt3__25ctypeIcED1Ev)
                  00019e18    00000018                                   : locale.cpp.obj (.text:_ZNSt3__26locale5__imp11make_globalEv)
                  00019e30    00000018                                   : locale.cpp.obj (.text:_ZNSt3__26localeD1Ev)
                  00019e48    00000018                                   : locale.cpp.obj (.text:_ZNSt3__26vectorIPNS_6locale5facetENS_15__sso_allocatorIS3_Lj28EEEE18__construct_at_endEj)
                  00019e60    00000018                                   : snprintf.c.obj (.text:_outc)
                  00019e78    00000018                                   : vsnprintf.c.obj (.text:_outc)
                  00019e90    00000018                                   : ll_mul_t2.asm.obj (.text)
                  00019ea8    00000018                                   : strcmp.c.obj (.text:strcmp)
                  00019ec0    00000018                                   : strrchr.c.obj (.text:strrchr)
                  00019ed8    00000016                                   : locale.cpp.obj (.text:_ZNKSt3__26locale9use_facetERNS0_2idE)
                  00019eee    00000016                                   : ios.cpp.obj (.text:_ZNSt3__215basic_streambufIcNS_11char_traitsIcEEE5sgetcEv)
                  00019f04    00000016                                   : ios.cpp.obj (.text:_ZNSt3__215basic_streambufIwNS_11char_traitsIwEEE5sgetcEv)
                  00019f1a    00000016                                   : locale.cpp.obj (.text:_ZNSt3__26localeC1Ev)
                  00019f30    00000016                                   : strchr.c.obj (.text:strchr)
                  00019f46    00000002     --HOLE-- [fill = 0]
                  00019f48    00000014                                   : locale.cpp.obj (.text:$P$F0)
                  00019f5c    00000014                                   : locale.cpp.obj (.text:$P$F2)
                  00019f70    00000014                                   : locale.cpp.obj (.text:$P$F3)
                  00019f84    00000014                                   : locale.cpp.obj (.text:$P$F4)
                  00019f98    00000014                                   : locale.cpp.obj (.text:$P$F5)
                  00019fac    00000014                                   : locale.cpp.obj (.text:_ZNKSt3__27codecvtIcciE9do_lengthERiPKcS4_j)
                  00019fc0    00000014                                   : ios.cpp.obj (.text:_ZNSt3__213basic_istreamIcNS_11char_traitsIcEEED2Ev)
                  00019fd4    00000014                                   : ios.cpp.obj (.text:_ZNSt3__213basic_istreamIwNS_11char_traitsIwEEED2Ev)
                  00019fe8    00000014                                   : string.cpp.obj (.text:_ZNSt3__24swapIViEENS_9enable_ifIXaasr3std3__221is_move_constructibleIT_EE5valuesr3std3__218is_move_assignableIS3_EE5valueEvE4typeERS3_S6_)
                  00019ffc    00000014                                   : locale.cpp.obj (.text:_ZNSt3__28time_putIcNS_19ostreambuf_iteratorIcNS_11char_traitsIcEEEEED1Ev)
                  0001a010    00000014                                   : locale.cpp.obj (.text:_ZNSt3__28time_putIwNS_19ostreambuf_iteratorIwNS_11char_traitsIwEEEEED1Ev)
                  0001a024    00000014                                   : s_copysign.c.obj (.text:copysign)
                  0001a038    00000014                                   : strcpy.c.obj (.text:strcpy)
                  0001a04c    00000014                                   : strlen.c.obj (.text:strlen)
                  0001a060    00000014                                   : wmemset.c.obj (.text:wmemset)
                  0001a074    00000012                                   : ios.cpp.obj (.text:_ZNSt3__213basic_ostreamIcNS_11char_traitsIcEEED2Ev)
                  0001a086    00000012                                   : ios.cpp.obj (.text:_ZNSt3__213basic_ostreamIwNS_11char_traitsIwEEED2Ev)
                  0001a098    00000012                                   : sscanf.c.obj (.text:_inpchar)
                  0001a0aa    00000012                                   : s_copysignf.c.obj (.text:copysignf)
                  0001a0bc    00000012                                   : wcslen.c.obj (.text:wcslen)
                  0001a0ce    00000010                                   : locale.cpp.obj (.text:_ZNKSt3__27num_getIcNS_19istreambuf_iteratorIcNS_11char_traitsIcEEEEE6do_getES4_S4_RNS_8ios_baseERjRd)
                  0001a0de    00000010                                   : locale.cpp.obj (.text:_ZNKSt3__27num_getIcNS_19istreambuf_iteratorIcNS_11char_traitsIcEEEEE6do_getES4_S4_RNS_8ios_baseERjRe)
                  0001a0ee    00000010                                   : locale.cpp.obj (.text:_ZNKSt3__27num_getIcNS_19istreambuf_iteratorIcNS_11char_traitsIcEEEEE6do_getES4_S4_RNS_8ios_baseERjRf)
                  0001a0fe    00000010                                   : locale.cpp.obj (.text:_ZNKSt3__27num_getIcNS_19istreambuf_iteratorIcNS_11char_traitsIcEEEEE6do_getES4_S4_RNS_8ios_baseERjRl)
                  0001a10e    00000010                                   : locale.cpp.obj (.text:_ZNKSt3__27num_getIcNS_19istreambuf_iteratorIcNS_11char_traitsIcEEEEE6do_getES4_S4_RNS_8ios_baseERjRm)
                  0001a11e    00000010                                   : locale.cpp.obj (.text:_ZNKSt3__27num_getIcNS_19istreambuf_iteratorIcNS_11char_traitsIcEEEEE6do_getES4_S4_RNS_8ios_baseERjRt)
                  0001a12e    00000010                                   : locale.cpp.obj (.text:_ZNKSt3__27num_getIcNS_19istreambuf_iteratorIcNS_11char_traitsIcEEEEE6do_getES4_S4_RNS_8ios_baseERjRx)
                  0001a13e    00000010                                   : locale.cpp.obj (.text:_ZNKSt3__27num_getIcNS_19istreambuf_iteratorIcNS_11char_traitsIcEEEEE6do_getES4_S4_RNS_8ios_baseERjRy)
                  0001a14e    00000010                                   : locale.cpp.obj (.text:_ZNKSt3__27num_getIcNS_19istreambuf_iteratorIcNS_11char_traitsIcEEEEE6do_getES4_S4_RNS_8ios_baseERjS8_)
                  0001a15e    00000010                                   : locale.cpp.obj (.text:_ZNKSt3__27num_getIwNS_19istreambuf_iteratorIwNS_11char_traitsIwEEEEE6do_getES4_S4_RNS_8ios_baseERjRd)
                  0001a16e    00000010                                   : locale.cpp.obj (.text:_ZNKSt3__27num_getIwNS_19istreambuf_iteratorIwNS_11char_traitsIwEEEEE6do_getES4_S4_RNS_8ios_baseERjRe)
                  0001a17e    00000010                                   : locale.cpp.obj (.text:_ZNKSt3__27num_getIwNS_19istreambuf_iteratorIwNS_11char_traitsIwEEEEE6do_getES4_S4_RNS_8ios_baseERjRf)
                  0001a18e    00000010                                   : locale.cpp.obj (.text:_ZNKSt3__27num_getIwNS_19istreambuf_iteratorIwNS_11char_traitsIwEEEEE6do_getES4_S4_RNS_8ios_baseERjRl)
                  0001a19e    00000010                                   : locale.cpp.obj (.text:_ZNKSt3__27num_getIwNS_19istreambuf_iteratorIwNS_11char_traitsIwEEEEE6do_getES4_S4_RNS_8ios_baseERjRm)
                  0001a1ae    00000010                                   : locale.cpp.obj (.text:_ZNKSt3__27num_getIwNS_19istreambuf_iteratorIwNS_11char_traitsIwEEEEE6do_getES4_S4_RNS_8ios_baseERjRt)
                  0001a1be    00000010                                   : locale.cpp.obj (.text:_ZNKSt3__27num_getIwNS_19istreambuf_iteratorIwNS_11char_traitsIwEEEEE6do_getES4_S4_RNS_8ios_baseERjRx)
                  0001a1ce    00000010                                   : locale.cpp.obj (.text:_ZNKSt3__27num_getIwNS_19istreambuf_iteratorIwNS_11char_traitsIwEEEEE6do_getES4_S4_RNS_8ios_baseERjRy)
                  0001a1de    00000010                                   : locale.cpp.obj (.text:_ZNKSt3__27num_getIwNS_19istreambuf_iteratorIwNS_11char_traitsIwEEEEE6do_getES4_S4_RNS_8ios_baseERjS8_)
                  0001a1ee    00000010                                   : locale.cpp.obj (.text:_ZNSt3__210unique_ptrIcPFvPvEE5resetEPc)
                  0001a1fe    00000010                                   : locale.cpp.obj (.text:_ZNSt3__210unique_ptrIhPFvPvEE5resetEPh)
                  0001a20e    00000010                                   : locale.cpp.obj (.text:_ZNSt3__210unique_ptrIwPFvPvEE5resetEPw)
                  0001a21e    00000010                                   : string.cpp.obj (.text:_ZNSt3__222__compressed_pair_elemINS_12basic_stringIcNS_11char_traitsIcEENS_9allocatorIcEEE5__repELi0ELb0EEC1Ev)
                  0001a22e    00000010                                   : string.cpp.obj (.text:_ZNSt3__222__compressed_pair_elemINS_12basic_stringIwNS_11char_traitsIwEENS_9allocatorIwEEE5__repELi0ELb0EEC1Ev)
                  0001a23e    00000002     --HOLE-- [fill = 0]
                  0001a240    00000010                                   : string.cpp.obj (.text:_ZNSt3__234_GLOBAL__N__10_string_cpp_11932bae10as_integerIiNS_12basic_stringIcNS_11char_traitsIcEENS_9allocatorIcEEEEEET_RKS7_RKT0_Pji)
                  0001a250    00000010                                   : locale.cpp.obj (.text:_ZNSt3__26locale2id6__initEv)
                  0001a260    00000010                                   : none_mb.c.obj (.text:mbsrtowcs)
                  0001a270    00000010                                   : locale_stdlib.c.obj (.text:strtod_l)
                  0001a280    00000010                                   : locale_stdlib.c.obj (.text:strtold_l)
                  0001a290    0000000e                                   : typeinfo.c.obj (.text:_ZN10__cxxabiv117__class_type_infoD0Ev)
                  0001a29e    0000000e                                   : typeinfo.c.obj (.text:_ZN10__cxxabiv120__si_class_type_infoD0Ev)
                  0001a2ac    0000000e                                   : typeinfo.c.obj (.text:_ZN10__cxxabiv121__vmi_class_type_infoD0Ev)
                  0001a2ba    0000000e                                   : locale.cpp.obj (.text:_ZNKSt3__27codecvtIcciE5do_inERiPKcS4_RS4_PcS6_RS6_)
                  0001a2c8    0000000e                                   : locale.cpp.obj (.text:_ZNKSt3__27codecvtIcciE6do_outERiPKcS4_RS4_PcS6_RS6_)
                  0001a2d6    0000000e                                   : iostream.cpp.obj (.text:_ZNSt3__210__stdinbufIcED0Ev)
                  0001a2e4    0000000e                                   : iostream.cpp.obj (.text:_ZNSt3__210__stdinbufIwED0Ev)
                  0001a2f2    0000000e                                   : locale.cpp.obj (.text:_ZNSt3__210moneypunctIcLb0EED0Ev)
                  0001a300    0000000e                                   : locale.cpp.obj (.text:_ZNSt3__210moneypunctIcLb1EED0Ev)
                  0001a30e    0000000e                                   : locale.cpp.obj (.text:_ZNSt3__210moneypunctIwLb0EED0Ev)
                  0001a31c    0000000e                                   : locale.cpp.obj (.text:_ZNSt3__210moneypunctIwLb1EED0Ev)
                  0001a32a    0000000e                                   : iostream.cpp.obj (.text:_ZNSt3__211__stdoutbufIcED0Ev)
                  0001a338    0000000e                                   : iostream.cpp.obj (.text:_ZNSt3__211__stdoutbufIwED0Ev)
                  0001a346    0000000e                                   : ios.cpp.obj (.text:_ZNSt3__213basic_istreamIcNS_11char_traitsIcEEED0Ev)
                  0001a354    0000000e                                   : ios.cpp.obj (.text:_ZNSt3__213basic_istreamIwNS_11char_traitsIwEEED0Ev)
                  0001a362    0000000e                                   : ios.cpp.obj (.text:_ZNSt3__213basic_ostreamIcNS_11char_traitsIcEEED0Ev)
                  0001a370    0000000e                                   : ios.cpp.obj (.text:_ZNSt3__213basic_ostreamIwNS_11char_traitsIwEEED0Ev)
                  0001a37e    0000000e                                   : ios.cpp.obj (.text:_ZNSt3__215basic_streambufIcNS_11char_traitsIcEEED0Ev)
                  0001a38c    0000000e                                   : ios.cpp.obj (.text:_ZNSt3__215basic_streambufIcNS_11char_traitsIcEEED1Ev)
                  0001a39a    0000000e                                   : ios.cpp.obj (.text:_ZNSt3__215basic_streambufIwNS_11char_traitsIwEEED0Ev)
                  0001a3a8    0000000e                                   : ios.cpp.obj (.text:_ZNSt3__215basic_streambufIwNS_11char_traitsIwEEED1Ev)
                  0001a3b6    0000000e                                   : locale.cpp.obj (.text:_ZNSt3__25ctypeIcED0Ev)
                  0001a3c4    0000000e                                   : locale.cpp.obj (.text:_ZNSt3__25ctypeIwED0Ev)
                  0001a3d2    0000000e                                   : locale.cpp.obj (.text:_ZNSt3__26locale5__impD0Ev)
                  0001a3e0    0000000e                                   : locale.cpp.obj (.text:_ZNSt3__26locale5facetD0Ev)
                  0001a3ee    0000000e                                   : locale.cpp.obj (.text:_ZNSt3__27codecvtIDiciED0Ev)
                  0001a3fc    0000000e                                   : locale.cpp.obj (.text:_ZNSt3__27codecvtIDsciED0Ev)
                  0001a40a    0000000e                                   : locale.cpp.obj (.text:_ZNSt3__27codecvtIcciED0Ev)
                  0001a418    0000000e                                   : locale.cpp.obj (.text:_ZNSt3__27codecvtIwciED0Ev)
                  0001a426    0000000e                                   : locale.cpp.obj (.text:_ZNSt3__27collateIcED0Ev)
                  0001a434    0000000e                                   : locale.cpp.obj (.text:_ZNSt3__27collateIwED0Ev)
                  0001a442    0000000e                                   : locale.cpp.obj (.text:_ZNSt3__27num_getIcNS_19istreambuf_iteratorIcNS_11char_traitsIcEEEEED0Ev)
                  0001a450    0000000e                                   : locale.cpp.obj (.text:_ZNSt3__27num_getIwNS_19istreambuf_iteratorIwNS_11char_traitsIwEEEEED0Ev)
                  0001a45e    0000000e                                   : locale.cpp.obj (.text:_ZNSt3__27num_putIcNS_19ostreambuf_iteratorIcNS_11char_traitsIcEEEEED0Ev)
                  0001a46c    0000000e                                   : locale.cpp.obj (.text:_ZNSt3__27num_putIwNS_19ostreambuf_iteratorIwNS_11char_traitsIwEEEEED0Ev)
                  0001a47a    0000000e                                   : ios.cpp.obj (.text:_ZNSt3__28ios_baseD0Ev)
                  0001a488    0000000e                                   : locale.cpp.obj (.text:_ZNSt3__28messagesIcED0Ev)
                  0001a496    0000000e                                   : locale.cpp.obj (.text:_ZNSt3__28messagesIwED0Ev)
                  0001a4a4    0000000e                                   : locale.cpp.obj (.text:_ZNSt3__28numpunctIcED0Ev)
                  0001a4b2    0000000e                                   : locale.cpp.obj (.text:_ZNSt3__28numpunctIwED0Ev)
                  0001a4c0    0000000e                                   : locale.cpp.obj (.text:_ZNSt3__28time_getIcNS_19istreambuf_iteratorIcNS_11char_traitsIcEEEEED0Ev)
                  0001a4ce    0000000e                                   : locale.cpp.obj (.text:_ZNSt3__28time_getIwNS_19istreambuf_iteratorIwNS_11char_traitsIwEEEEED0Ev)
                  0001a4dc    0000000e                                   : ios.cpp.obj (.text:_ZNSt3__29basic_iosIcNS_11char_traitsIcEEED0Ev)
                  0001a4ea    0000000e                                   : ios.cpp.obj (.text:_ZNSt3__29basic_iosIwNS_11char_traitsIwEEED0Ev)
                  0001a4f8    0000000e                                   : locale.cpp.obj (.text:_ZNSt3__29money_getIcNS_19istreambuf_iteratorIcNS_11char_traitsIcEEEEED0Ev)
                  0001a506    0000000e                                   : locale.cpp.obj (.text:_ZNSt3__29money_getIwNS_19istreambuf_iteratorIwNS_11char_traitsIwEEEEED0Ev)
                  0001a514    0000000e                                   : locale.cpp.obj (.text:_ZNSt3__29money_putIcNS_19ostreambuf_iteratorIcNS_11char_traitsIcEEEEED0Ev)
                  0001a522    0000000e                                   : locale.cpp.obj (.text:_ZNSt3__29money_putIwNS_19ostreambuf_iteratorIwNS_11char_traitsIwEEEEED0Ev)
                  0001a530    0000000e                                   : copy_decompress_none.c.obj (.text:decompress:none:__TI_decompress_none)
                  0001a53e    00000002     --HOLE-- [fill = 0]
                  0001a540    0000000c                                   : vector.cpp.obj (.text:_ZNKSt3__220__vector_base_commonILb1EE20__throw_length_errorEv)
                  0001a54c    0000000c                                   : string.cpp.obj (.text:_ZNKSt3__221__basic_string_commonILb1EE20__throw_length_errorEv)
                  0001a558    0000000c                                   : string.cpp.obj (.text:_ZNKSt3__221__basic_string_commonILb1EE20__throw_out_of_rangeEv)
                  0001a564    0000000c                                   : locale.cpp.obj (.text:_ZNKSt3__25ctypeIcE9do_narrowEcc)
                  0001a570    0000000c                                   : locale.cpp.obj (.text:_ZNKSt3__25ctypeIwE9do_narrowEwc)
                  0001a57c    0000000c                                   : locale.cpp.obj (.text:_ZNKSt3__27codecvtIwciE13do_max_lengthEv)
                  0001a588    0000000c     ComandCenter.obj (.text:_ZNSt3__211char_traitsIcE2eqEcc)
                  0001a594    0000000c     rtsv7M4_T_le_v4SPD16_eabi.lib : locale.cpp.obj (.text:_ZNSt3__26locale5facet16__on_zero_sharedEv)
                  0001a5a0    0000000c                                   : locale.cpp.obj (.text:_ZNSt3__26localeC1ERKS0_)
                  0001a5ac    0000000c                                   : ios.cpp.obj (.text:_ZNSt3__28ios_base5clearEj)
                  0001a5b8    0000000c                                   : new.cpp.obj (.text:_ZSt15get_new_handlerv)
                  0001a5c4    0000000c                                   : ios.cpp.obj (.text:_ZTv0_n12_NSt3__213basic_istreamIcNS_11char_traitsIcEEED0Ev)
                  0001a5d0    0000000c                                   : ios.cpp.obj (.text:_ZTv0_n12_NSt3__213basic_istreamIcNS_11char_traitsIcEEED1Ev)
                  0001a5dc    0000000c                                   : ios.cpp.obj (.text:_ZTv0_n12_NSt3__213basic_istreamIwNS_11char_traitsIwEEED0Ev)
                  0001a5e8    0000000c                                   : ios.cpp.obj (.text:_ZTv0_n12_NSt3__213basic_istreamIwNS_11char_traitsIwEEED1Ev)
                  0001a5f4    0000000c                                   : ios.cpp.obj (.text:_ZTv0_n12_NSt3__213basic_ostreamIcNS_11char_traitsIcEEED0Ev)
                  0001a600    0000000c                                   : ios.cpp.obj (.text:_ZTv0_n12_NSt3__213basic_ostreamIcNS_11char_traitsIcEEED1Ev)
                  0001a60c    0000000c                                   : ios.cpp.obj (.text:_ZTv0_n12_NSt3__213basic_ostreamIwNS_11char_traitsIwEEED0Ev)
                  0001a618    0000000c                                   : ios.cpp.obj (.text:_ZTv0_n12_NSt3__213basic_ostreamIwNS_11char_traitsIwEEED1Ev)
                  0001a624    0000000c                                   : guard.c.obj (.text:__cxa_guard_acquire)
                  0001a630    0000000c                                   : dtor_list.c.obj (.text:__cxa_ia64_exit)
                  0001a63c    0000000c                                   : copy_zero_init.c.obj (.text:decompress:ZI:__TI_zero_init)
                  0001a648    0000000c                                   : none_mb.c.obj (.text:mbrlen)
                  0001a654    0000000c                                   : none_mb.c.obj (.text:mbsnrtowcs_l)
                  0001a660    0000000c     tm4c1294ncpdt_startup_ccs.obj (.text)
                  0001a66c    0000000c     rtsv7M4_T_le_v4SPD16_eabi.lib : none_mb.c.obj (.text:wcsnrtombs_l)
                  0001a678    0000000a                                   : locale.cpp.obj (.text:_ZNKSt3__25ctypeIcE5widenEPKcS3_Pc)
                  0001a682    0000000a                                   : locale.cpp.obj (.text:_ZNKSt3__25ctypeIcE5widenEc)
                  0001a68c    0000000a                                   : locale.cpp.obj (.text:_ZNKSt3__25ctypeIcE6narrowEcc)
                  0001a696    0000000a                                   : locale.cpp.obj (.text:_ZNKSt3__25ctypeIcE7toupperEc)
                  0001a6a0    0000000a                                   : locale.cpp.obj (.text:_ZNKSt3__25ctypeIwE2isEhw)
                  0001a6aa    0000000a                                   : locale.cpp.obj (.text:_ZNKSt3__25ctypeIwE5widenEPKcS3_Pw)
                  0001a6b4    0000000a                                   : locale.cpp.obj (.text:_ZNKSt3__25ctypeIwE5widenEc)
                  0001a6be    0000000a                                   : iostream.cpp.obj (.text:_ZNKSt3__27codecvtIwciE13always_noconvEv)
                  0001a6c8    0000000a                                   : locale.cpp.obj (.text:_ZNKSt3__28numpunctIcE13thousands_sepEv)
                  0001a6d2    0000000a                                   : locale.cpp.obj (.text:_ZNKSt3__28numpunctIcE8groupingEv)
                  0001a6dc    0000000a                                   : locale.cpp.obj (.text:_ZNKSt3__28numpunctIcE9falsenameEv)
                  0001a6e6    0000000a                                   : locale.cpp.obj (.text:_ZNKSt3__28numpunctIwE13thousands_sepEv)
                  0001a6f0    0000000a                                   : locale.cpp.obj (.text:_ZNKSt3__28numpunctIwE8groupingEv)
                  0001a6fa    0000000a                                   : locale.cpp.obj (.text:_ZNKSt3__28numpunctIwE9falsenameEv)
                  0001a704    0000000a                                   : string.cpp.obj (.text:_ZNSt3__211char_traitsIcE7compareEPKcS3_j)
                  0001a70e    0000000a                                   : guard.c.obj (.text:__cxa_guard_release)
                  0001a718    00000008                                   : locale.cpp.obj (.text:_ZNKSt3__26locale5__imp9use_facetEl)
                  0001a720    00000008                                   : locale.cpp.obj (.text:_ZNKSt3__27codecvtIDiciE10do_unshiftERiPcS3_RS3_)
                  0001a728    00000008                                   : locale.cpp.obj (.text:_ZNKSt3__27codecvtIDsciE10do_unshiftERiPcS3_RS3_)
                  0001a730    00000008                                   : locale.cpp.obj (.text:_ZNKSt3__27codecvtIcciE10do_unshiftERiPcS3_RS3_)
                  0001a738    00000008                                   : string.cpp.obj (.text:_ZNSt3__211char_traitsIcE4copyEPcPKcj)
                  0001a740    00000008                                   : string.cpp.obj (.text:_ZNSt3__211char_traitsIcE4moveEPcPKcj)
                  0001a748    00000008                                   : string.cpp.obj (.text:_ZNSt3__211char_traitsIwE4copyEPwPKwj)
                  0001a750    00000008                                   : string.cpp.obj (.text:_ZNSt3__211char_traitsIwE4moveEPwPKwj)
                  0001a758    00000008                                   : locale.cpp.obj (.text:_ZNSt3__25ctypeIcE13classic_tableEv)
                  0001a760    00000008                                   : new.cpp.obj (.text:_ZdlPv)
                  0001a768    00000008                                   : errno.c.obj (.text:__aeabi_errno_addr)
                  0001a770    00000008                                   : sscanf.c.obj (.text:_uninpchar)
                  0001a778    00000008                                   : locale_stdio.c.obj (.text:vasprintf_l)
                  0001a780    00000006                                   : locale.cpp.obj (.text:_ZNKSt3__210moneypunctIwLb0EE16do_decimal_pointEv)
                  0001a786    00000006                                   : locale.cpp.obj (.text:_ZNKSt3__210moneypunctIwLb0EE16do_thousands_sepEv)
                  0001a78c    00000006                                   : locale.cpp.obj (.text:_ZNKSt3__210moneypunctIwLb1EE16do_decimal_pointEv)
                  0001a792    00000006                                   : locale.cpp.obj (.text:_ZNKSt3__210moneypunctIwLb1EE16do_thousands_sepEv)
                  0001a798    00000006                                   : locale.cpp.obj (.text:_ZNKSt3__26vectorIPNS_6locale5facetENS_15__sso_allocatorIS3_Lj28EEEE8max_sizeEv)
                  0001a79e    00000006                                   : ios.cpp.obj (.text:_ZNKSt3__28ios_base6getlocEv)
                  0001a7a4    00000006                                   : locale.cpp.obj (.text:_ZNKSt3__28messagesIcE6do_getEiiiRKNS_12basic_stringIcNS_11char_traitsIcEENS_9allocatorIcEEEE)
                  0001a7aa    00000006                                   : locale.cpp.obj (.text:_ZNKSt3__28messagesIcE7do_openERKNS_12basic_stringIcNS_11char_traitsIcEENS_9allocatorIcEEEERKNS_6localeE)
                  0001a7b0    00000006                                   : locale.cpp.obj (.text:_ZNKSt3__28messagesIwE6do_getEiiiRKNS_12basic_stringIwNS_11char_traitsIwEENS_9allocatorIwEEEE)
                  0001a7b6    00000006                                   : locale.cpp.obj (.text:_ZNKSt3__28messagesIwE7do_openERKNS_12basic_stringIcNS_11char_traitsIcEENS_9allocatorIcEEEERKNS_6localeE)
                  0001a7bc    00000006                                   : locale.cpp.obj (.text:_ZNKSt3__28numpunctIcE11do_groupingEv)
                  0001a7c2    00000006                                   : locale.cpp.obj (.text:_ZNKSt3__28numpunctIwE11do_groupingEv)
                  0001a7c8    00000006                                   : iostream.cpp.obj (.text:_ZNSt3__210__stdinbufIcE5uflowEv)
                  0001a7ce    00000006                                   : iostream.cpp.obj (.text:_ZNSt3__210__stdinbufIcE9underflowEv)
                  0001a7d4    00000006                                   : iostream.cpp.obj (.text:_ZNSt3__210__stdinbufIwE5uflowEv)
                  0001a7da    00000006                                   : iostream.cpp.obj (.text:_ZNSt3__210__stdinbufIwE9underflowEv)
                  0001a7e0    00000006                                   : string.cpp.obj (.text:_ZNSt3__211char_traitsIcE6assignERcRKc)
                  0001a7e6    00000006                                   : string.cpp.obj (.text:_ZNSt3__211char_traitsIwE6assignERwRKw)
                  0001a7ec    00000006                                   : ios.cpp.obj (.text:_ZNSt3__215basic_streambufIcNS_11char_traitsIcEEE8overflowEi)
                  0001a7f2    00000006                                   : ios.cpp.obj (.text:_ZNSt3__215basic_streambufIcNS_11char_traitsIcEEE9pbackfailEi)
                  0001a7f8    00000006                                   : ios.cpp.obj (.text:_ZNSt3__215basic_streambufIcNS_11char_traitsIcEEE9underflowEv)
                  0001a7fe    00000006                                   : ios.cpp.obj (.text:_ZNSt3__215basic_streambufIwNS_11char_traitsIwEEE8overflowEi)
                  0001a804    00000006                                   : ios.cpp.obj (.text:_ZNSt3__215basic_streambufIwNS_11char_traitsIwEEE9pbackfailEi)
                  0001a80a    00000006                                   : ios.cpp.obj (.text:_ZNSt3__215basic_streambufIwNS_11char_traitsIwEEE9underflowEv)
                  0001a810    00000006                                   : wmemcpy.c.obj (.text:wmemcpy)
                  0001a816    00000006                                   : wmemmove.c.obj (.text:wmemmove)
                  0001a81c    00000004                                   : typeinfo.c.obj (.text:_ZN10__cxxabiv117__class_type_infoD1Ev)
                  0001a820    00000004                                   : typeinfo.c.obj (.text:_ZN10__cxxabiv120__si_class_type_infoD1Ev)
                  0001a824    00000004                                   : typeinfo.c.obj (.text:_ZN10__cxxabiv121__vmi_class_type_infoD1Ev)
                  0001a828    00000004                                   : locale.cpp.obj (.text:_ZN32_INTERNAL_10_locale_cpp_a7183203St3__234_GLOBAL__N__10_locale_cpp_a718320321__throw_runtime_errorERKNS_12basic_stringIcNS_11char_traitsIcEENS_9allocatorIcEEEE)
                  0001a82c    00000004                                   : locale.cpp.obj (.text:_ZNKSt3__210moneypunctIcLb0EE14do_frac_digitsEv)
                  0001a830    00000004                                   : locale.cpp.obj (.text:_ZNKSt3__210moneypunctIcLb0EE16do_decimal_pointEv)
                  0001a834    00000004                                   : locale.cpp.obj (.text:_ZNKSt3__210moneypunctIcLb0EE16do_thousands_sepEv)
                  0001a838    00000004                                   : locale.cpp.obj (.text:_ZNKSt3__210moneypunctIcLb1EE14do_frac_digitsEv)
                  0001a83c    00000004                                   : locale.cpp.obj (.text:_ZNKSt3__210moneypunctIcLb1EE16do_decimal_pointEv)
                  0001a840    00000004                                   : locale.cpp.obj (.text:_ZNKSt3__210moneypunctIcLb1EE16do_thousands_sepEv)
                  0001a844    00000004                                   : locale.cpp.obj (.text:_ZNKSt3__210moneypunctIwLb0EE14do_frac_digitsEv)
                  0001a848    00000004                                   : locale.cpp.obj (.text:_ZNKSt3__210moneypunctIwLb1EE14do_frac_digitsEv)
                  0001a84c    00000004                                   : locale.cpp.obj (.text:_ZNKSt3__25ctypeIcE8do_widenEc)
                  0001a850    00000004                                   : locale.cpp.obj (.text:_ZNKSt3__25ctypeIwE8do_widenEc)
                  0001a854    00000004                                   : locale.cpp.obj (.text:_ZNKSt3__27codecvtIDiciE11do_encodingEv)
                  0001a858    00000004                                   : locale.cpp.obj (.text:_ZNKSt3__27codecvtIDiciE13do_max_lengthEv)
                  0001a85c    00000004                                   : locale.cpp.obj (.text:_ZNKSt3__27codecvtIDiciE16do_always_noconvEv)
                  0001a860    00000004                                   : locale.cpp.obj (.text:_ZNKSt3__27codecvtIDsciE11do_encodingEv)
                  0001a864    00000004                                   : locale.cpp.obj (.text:_ZNKSt3__27codecvtIDsciE13do_max_lengthEv)
                  0001a868    00000004                                   : locale.cpp.obj (.text:_ZNKSt3__27codecvtIDsciE16do_always_noconvEv)
                  0001a86c    00000004                                   : locale.cpp.obj (.text:_ZNKSt3__27codecvtIcciE11do_encodingEv)
                  0001a870    00000004                                   : locale.cpp.obj (.text:_ZNKSt3__27codecvtIcciE13do_max_lengthEv)
                  0001a874    00000004                                   : locale.cpp.obj (.text:_ZNKSt3__27codecvtIcciE16do_always_noconvEv)
                  0001a878    00000004                                   : locale.cpp.obj (.text:_ZNKSt3__27codecvtIwciE16do_always_noconvEv)
                  0001a87c    00000004                                   : locale.cpp.obj (.text:_ZNKSt3__28numpunctIcE16do_decimal_pointEv)
                  0001a880    00000004                                   : locale.cpp.obj (.text:_ZNKSt3__28numpunctIcE16do_thousands_sepEv)
                  0001a884    00000004                                   : locale.cpp.obj (.text:_ZNKSt3__28numpunctIwE16do_decimal_pointEv)
                  0001a888    00000004                                   : locale.cpp.obj (.text:_ZNKSt3__28numpunctIwE16do_thousands_sepEv)
                  0001a88c    00000004                                   : locale.cpp.obj (.text:_ZNKSt3__28time_getIcNS_19istreambuf_iteratorIcNS_11char_traitsIcEEEEE13do_date_orderEv)
                  0001a890    00000004                                   : locale.cpp.obj (.text:_ZNKSt3__28time_getIwNS_19istreambuf_iteratorIwNS_11char_traitsIwEEEEE13do_date_orderEv)
                  0001a894    00000004                                   : iostream.cpp.obj (.text:_ZNSt3__210__stdinbufIcED1Ev)
                  0001a898    00000004                                   : iostream.cpp.obj (.text:_ZNSt3__210__stdinbufIwED1Ev)
                  0001a89c    00000004                                   : locale.cpp.obj (.text:_ZNSt3__210moneypunctIcLb0EED1Ev)
                  0001a8a0    00000004                                   : locale.cpp.obj (.text:_ZNSt3__210moneypunctIcLb1EED1Ev)
                  0001a8a4    00000004                                   : locale.cpp.obj (.text:_ZNSt3__210moneypunctIwLb0EED1Ev)
                  0001a8a8    00000004                                   : locale.cpp.obj (.text:_ZNSt3__210moneypunctIwLb1EED1Ev)
                  0001a8ac    00000004                                   : iostream.cpp.obj (.text:_ZNSt3__211__stdoutbufIcED1Ev)
                  0001a8b0    00000004                                   : iostream.cpp.obj (.text:_ZNSt3__211__stdoutbufIwED1Ev)
                  0001a8b4    00000004                                   : string.cpp.obj (.text:_ZNSt3__211char_traitsIcE6lengthEPKc)
                  0001a8b8    00000004                                   : string.cpp.obj (.text:_ZNSt3__211char_traitsIwE6lengthEPKw)
                  0001a8bc    00000004                                   : ios.cpp.obj (.text:_ZNSt3__215basic_streambufIcNS_11char_traitsIcEEE4syncEv)
                  0001a8c0    00000004                                   : ios.cpp.obj (.text:_ZNSt3__215basic_streambufIcNS_11char_traitsIcEEE9showmanycEv)
                  0001a8c4    00000004                                   : ios.cpp.obj (.text:_ZNSt3__215basic_streambufIcNS_11char_traitsIcEEEC2Ev)
                  0001a8c8    00000004                                   : ios.cpp.obj (.text:_ZNSt3__215basic_streambufIcNS_11char_traitsIcEEED2Ev)
                  0001a8cc    00000004                                   : ios.cpp.obj (.text:_ZNSt3__215basic_streambufIwNS_11char_traitsIwEEE4syncEv)
                  0001a8d0    00000004                                   : ios.cpp.obj (.text:_ZNSt3__215basic_streambufIwNS_11char_traitsIwEEE9showmanycEv)
                  0001a8d4    00000004                                   : ios.cpp.obj (.text:_ZNSt3__215basic_streambufIwNS_11char_traitsIwEEEC2Ev)
                  0001a8d8    00000004                                   : ios.cpp.obj (.text:_ZNSt3__215basic_streambufIwNS_11char_traitsIwEEED2Ev)
                  0001a8dc    00000004     ComandCenter.obj (.text:_ZNSt3__220__throw_length_errorEPKc)
                  0001a8e0    00000004     rtsv7M4_T_le_v4SPD16_eabi.lib : string.cpp.obj (.text:_ZNSt3__220__throw_out_of_rangeEPKc)
                  0001a8e4    00000004                                   : locale.cpp.obj (.text:_ZNSt3__221__throw_runtime_errorEPKc)
                  0001a8e8    00000004                                   : string.cpp.obj (.text:_ZNSt3__222__compressed_pair_elemINS_12basic_stringIcNS_11char_traitsIcEENS_9allocatorIcEEE5__repELi0ELb0EEC2Ev)
                  0001a8ec    00000004                                   : string.cpp.obj (.text:_ZNSt3__222__compressed_pair_elemINS_12basic_stringIwNS_11char_traitsIwEENS_9allocatorIwEEE5__repELi0ELb0EEC2Ev)
                  0001a8f0    00000004                                   : string.cpp.obj (.text:_ZNSt3__222__compressed_pair_elemINS_9allocatorIcEELi1ELb1EEC2IRKS2_vEEOT_)
                  0001a8f4    00000004                                   : string.cpp.obj (.text:_ZNSt3__222__compressed_pair_elemINS_9allocatorIcEELi1ELb1EEC2IS2_vEEOT_)
                  0001a8f8    00000004                                   : string.cpp.obj (.text:_ZNSt3__222__compressed_pair_elemINS_9allocatorIwEELi1ELb1EEC2IS2_vEEOT_)
                  0001a8fc    00000004                                   : locale.cpp.obj (.text:_ZNSt3__25ctypeIwED1Ev)
                  0001a900    00000004                                   : locale.cpp.obj (.text:_ZNSt3__26locale5facetD1Ev)
                  0001a904    00000004                                   : locale.cpp.obj (.text:_ZNSt3__27codecvtIDiciED1Ev)
                  0001a908    00000004                                   : locale.cpp.obj (.text:_ZNSt3__27codecvtIDsciED1Ev)
                  0001a90c    00000004                                   : locale.cpp.obj (.text:_ZNSt3__27codecvtIcciED1Ev)
                  0001a910    00000004                                   : locale.cpp.obj (.text:_ZNSt3__27collateIcED1Ev)
                  0001a914    00000004                                   : locale.cpp.obj (.text:_ZNSt3__27collateIwED1Ev)
                  0001a918    00000004                                   : locale.cpp.obj (.text:_ZNSt3__27num_getIcNS_19istreambuf_iteratorIcNS_11char_traitsIcEEEEED1Ev)
                  0001a91c    00000004                                   : locale.cpp.obj (.text:_ZNSt3__27num_getIwNS_19istreambuf_iteratorIwNS_11char_traitsIwEEEEED1Ev)
                  0001a920    00000004                                   : locale.cpp.obj (.text:_ZNSt3__27num_putIcNS_19ostreambuf_iteratorIcNS_11char_traitsIcEEEEED1Ev)
                  0001a924    00000004                                   : locale.cpp.obj (.text:_ZNSt3__27num_putIwNS_19ostreambuf_iteratorIwNS_11char_traitsIwEEEEED1Ev)
                  0001a928    00000004                                   : locale.cpp.obj (.text:_ZNSt3__28messagesIcED1Ev)
                  0001a92c    00000004                                   : locale.cpp.obj (.text:_ZNSt3__28messagesIwED1Ev)
                  0001a930    00000004                                   : locale.cpp.obj (.text:_ZNSt3__28time_getIcNS_19istreambuf_iteratorIcNS_11char_traitsIcEEEEED1Ev)
                  0001a934    00000004                                   : locale.cpp.obj (.text:_ZNSt3__28time_getIwNS_19istreambuf_iteratorIwNS_11char_traitsIwEEEEED1Ev)
                  0001a938    00000004                                   : ios.cpp.obj (.text:_ZNSt3__29basic_iosIcNS_11char_traitsIcEEED1Ev)
                  0001a93c    00000004                                   : ios.cpp.obj (.text:_ZNSt3__29basic_iosIcNS_11char_traitsIcEEED2Ev)
                  0001a940    00000004                                   : ios.cpp.obj (.text:_ZNSt3__29basic_iosIwNS_11char_traitsIwEEED1Ev)
                  0001a944    00000004                                   : ios.cpp.obj (.text:_ZNSt3__29basic_iosIwNS_11char_traitsIwEEED2Ev)
                  0001a948    00000004                                   : locale.cpp.obj (.text:_ZNSt3__29money_getIcNS_19istreambuf_iteratorIcNS_11char_traitsIcEEEEED1Ev)
                  0001a94c    00000004                                   : locale.cpp.obj (.text:_ZNSt3__29money_getIwNS_19istreambuf_iteratorIwNS_11char_traitsIwEEEEED1Ev)
                  0001a950    00000004                                   : locale.cpp.obj (.text:_ZNSt3__29money_putIcNS_19ostreambuf_iteratorIcNS_11char_traitsIcEEEEED1Ev)
                  0001a954    00000004                                   : locale.cpp.obj (.text:_ZNSt3__29money_putIwNS_19ostreambuf_iteratorIwNS_11char_traitsIwEEEEED1Ev)
                  0001a958    00000004                                   : exception.cpp.obj (.text:_ZSt18uncaught_exceptionv)
                  0001a95c    00000004                                   : locale.cpp.obj (.text:_ZZNKSt3__27num_putIcNS_19ostreambuf_iteratorIcNS_11char_traitsIcEEEEE6do_putES4_RNS_8ios_baseEcdENUlPvE0_4_FUNES8_)
                  0001a960    00000004                                   : locale.cpp.obj (.text:_ZZNKSt3__27num_putIcNS_19ostreambuf_iteratorIcNS_11char_traitsIcEEEEE6do_putES4_RNS_8ios_baseEcdENUlPvE_4_FUNES8_)
                  0001a964    00000004                                   : locale.cpp.obj (.text:_ZZNKSt3__27num_putIcNS_19ostreambuf_iteratorIcNS_11char_traitsIcEEEEE6do_putES4_RNS_8ios_baseEceENUlPvE0_4_FUNES8_)
                  0001a968    00000004                                   : locale.cpp.obj (.text:_ZZNKSt3__27num_putIcNS_19ostreambuf_iteratorIcNS_11char_traitsIcEEEEE6do_putES4_RNS_8ios_baseEceENUlPvE_4_FUNES8_)
                  0001a96c    00000004                                   : locale.cpp.obj (.text:_ZZNKSt3__27num_putIwNS_19ostreambuf_iteratorIwNS_11char_traitsIwEEEEE6do_putES4_RNS_8ios_baseEwdENUlPvE0_4_FUNES8_)
                  0001a970    00000004                                   : locale.cpp.obj (.text:_ZZNKSt3__27num_putIwNS_19ostreambuf_iteratorIwNS_11char_traitsIwEEEEE6do_putES4_RNS_8ios_baseEwdENUlPvE_4_FUNES8_)
                  0001a974    00000004                                   : locale.cpp.obj (.text:_ZZNKSt3__27num_putIwNS_19ostreambuf_iteratorIwNS_11char_traitsIwEEEEE6do_putES4_RNS_8ios_baseEweENUlPvE0_4_FUNES8_)
                  0001a978    00000004                                   : locale.cpp.obj (.text:_ZZNKSt3__27num_putIwNS_19ostreambuf_iteratorIwNS_11char_traitsIwEEEEE6do_putES4_RNS_8ios_baseEweENUlPvE_4_FUNES8_)
                  0001a97c    00000004                                   : locale.cpp.obj (.text:_ZZNKSt3__29money_getIcNS_19istreambuf_iteratorIcNS_11char_traitsIcEEEEE6do_getES4_S4_bRNS_8ios_baseERjReENUlPvE_4_FUNESA_)
                  0001a980    00000004                                   : locale.cpp.obj (.text:_ZZNKSt3__29money_getIwNS_19istreambuf_iteratorIwNS_11char_traitsIwEEEEE6do_getES4_S4_bRNS_8ios_baseERjReENUlPvE_4_FUNESA_)
                  0001a984    00000004                                   : locale.cpp.obj (.text:_ZZNKSt3__29money_putIcNS_19ostreambuf_iteratorIcNS_11char_traitsIcEEEEE6do_putES4_bRNS_8ios_baseEcRKNS_12basic_stringIcS3_NS_9allocatorIcEEEEENUlPvE_4_FUNESE_)
                  0001a988    00000004                                   : locale.cpp.obj (.text:_ZZNKSt3__29money_putIcNS_19ostreambuf_iteratorIcNS_11char_traitsIcEEEEE6do_putES4_bRNS_8ios_baseEceENUlPvE0_4_FUNES8_)
                  0001a98c    00000004                                   : locale.cpp.obj (.text:_ZZNKSt3__29money_putIcNS_19ostreambuf_iteratorIcNS_11char_traitsIcEEEEE6do_putES4_bRNS_8ios_baseEceENUlPvE1_4_FUNES8_)
                  0001a990    00000004                                   : locale.cpp.obj (.text:_ZZNKSt3__29money_putIcNS_19ostreambuf_iteratorIcNS_11char_traitsIcEEEEE6do_putES4_bRNS_8ios_baseEceENUlPvE_4_FUNES8_)
                  0001a994    00000004                                   : locale.cpp.obj (.text:_ZZNKSt3__29money_putIwNS_19ostreambuf_iteratorIwNS_11char_traitsIwEEEEE6do_putES4_bRNS_8ios_baseEwRKNS_12basic_stringIwS3_NS_9allocatorIwEEEEENUlPvE_4_FUNESE_)
                  0001a998    00000004                                   : locale.cpp.obj (.text:_ZZNKSt3__29money_putIwNS_19ostreambuf_iteratorIwNS_11char_traitsIwEEEEE6do_putES4_bRNS_8ios_baseEweENUlPvE0_4_FUNES8_)
                  0001a99c    00000004                                   : locale.cpp.obj (.text:_ZZNKSt3__29money_putIwNS_19ostreambuf_iteratorIwNS_11char_traitsIwEEEEE6do_putES4_bRNS_8ios_baseEweENUlPvE1_4_FUNES8_)
                  0001a9a0    00000004                                   : locale.cpp.obj (.text:_ZZNKSt3__29money_putIwNS_19ostreambuf_iteratorIwNS_11char_traitsIwEEEEE6do_putES4_bRNS_8ios_baseEweENUlPvE_4_FUNES8_)
                  0001a9a4    00000004                                   : locale.cpp.obj (.text:_ZZNSt3__214__scan_keywordINS_19istreambuf_iteratorIcNS_11char_traitsIcEEEEPKNS_12basic_stringIcS3_NS_9allocatorIcEEEENS_5ctypeIcEEEET0_RT_SE_SD_SD_RKT1_RjbENUlPvE_4_FUNESK_)
                  0001a9a8    00000004                                   : locale.cpp.obj (.text:_ZZNSt3__214__scan_keywordINS_19istreambuf_iteratorIwNS_11char_traitsIwEEEEPKNS_12basic_stringIwS3_NS_9allocatorIwEEEENS_5ctypeIwEEEET0_RT_SE_SD_SD_RKT1_RjbENUlPvE_4_FUNESK_)
                  0001a9ac    00000004                                   : locale.cpp.obj (.text:_ZZNSt3__219__double_or_nothingIcEEvRNS_10unique_ptrIT_PFvPvEEERPS2_S9_ENUlS3_E_4_FUNES3_)
                  0001a9b0    00000004                                   : locale.cpp.obj (.text:_ZZNSt3__219__double_or_nothingIjEEvRNS_10unique_ptrIT_PFvPvEEERPS2_S9_ENUlS3_E_4_FUNES3_)
                  0001a9b4    00000004                                   : locale.cpp.obj (.text:_ZZNSt3__219__double_or_nothingIwEEvRNS_10unique_ptrIT_PFvPvEEERPS2_S9_ENUlS3_E_4_FUNES3_)
                  0001a9b8    00000004                                   : new.cpp.obj (.text:_ZdaPv)
                  0001a9bc    00000004                                   : new.cpp.obj (.text:_ZdlPvj)
                  0001a9c0    00000004                                   : new.cpp.obj (.text:_Znaj)
                  0001a9c4    00000004                                   : none_mb.c.obj (.text:___mb_cur_max_l)
                  0001a9c8    00000004                                   : error.c.obj (.text:__abort_execution)
                  0001a9cc    00000004                                   : fprintf.c.obj (.text:_outc)
                  0001a9d0    00000004                                   : fprintf.c.obj (.text:_outs)
                  0001a9d4    00000004                                   : pre_init.c.obj (.text:_system_pre_init)
                  0001a9d8    00000004                                   : exit.c.obj (.text:abort:abort)
                  0001a9dc    00000004                                   : none_mb.c.obj (.text:mbrlen_l)
                  0001a9e0    00000004                                   : none_mb.c.obj (.text:mbrtowc_l)
                  0001a9e4    00000004                                   : none_mb.c.obj (.text:mbsrtowcs_l)
                  0001a9e8    00000004                                   : none_mb.c.obj (.text:mbtowc_l)
                  0001a9ec    00000004                                   : xlocale.c.obj (.text:newlocale)
                  0001a9f0    00000004                                   : locale_time.c.obj (.text:strftime_l)
                  0001a9f4    00000004                                   : locale_stdlib.c.obj (.text:strtof_l)
                  0001a9f8    00000004                                   : locale_stdlib.c.obj (.text:strtoll_l)
                  0001a9fc    00000004                                   : locale_stdlib.c.obj (.text:strtoull_l)
                  0001aa00    00000004                                   : none_mb.c.obj (.text:wcrtomb_l)

.const     0    0001aa08    0000240f     
                  0001aa08    000007ca     ZooKeeper.obj (.const:.string)
                  0001b1d2    00000002     rtsv7M4_T_le_v4SPD16_eabi.lib : locale.cpp.obj (.const:.string:_ZZNKSt3__27num_putIcNS_19ostreambuf_iteratorIcNS_11char_traitsIcEEEEE6do_putES4_RNS_8ios_baseEceEs)
                  0001b1d4    000001e4                                   : locale.cpp.obj (.const:$O2$$)
                  0001b3b8    00000101                                   : ctype.c.obj (.const:.string:_ctypes_)
                  0001b4b9    00000007                                   : vector.cpp.obj (.const:.string:_ZZNKSt3__220__vector_base_commonILb1EE20__throw_length_errorEvEs)
                  0001b4c0    000000c8                                   : strtod.c.obj (.const:$O1$$)
                  0001b588    000000ae                                   : strftime.c.obj (.const:.string)
                  0001b636    00000002                                   : locale.cpp.obj (.const:.string:_ZZNKSt3__27num_putIcNS_19ostreambuf_iteratorIcNS_11char_traitsIcEEEEE6do_putES4_RNS_8ios_baseEclEs)
                  0001b638    00000058                                   : strtof.c.obj (.const:$O1$$)
                  0001b690    00000054                                   : locale.cpp.obj (.const:_ZTVNSt3__28time_getIcNS_19istreambuf_iteratorIcNS_11char_traitsIcEEEEEE)
                  0001b6e4    00000054                                   : locale.cpp.obj (.const:_ZTVNSt3__28time_getIwNS_19istreambuf_iteratorIwNS_11char_traitsIwEEEEEE)
                  0001b738    0000004c                                   : strftime.c.obj (.const:$O1$$)
                  0001b784    00000046                                   : locale.cpp.obj (.const:.typeinfo:_ZTSNSt3__29money_getIcNS_19istreambuf_iteratorIcNS_11char_traitsIcEEEEEE)
                  0001b7ca    00000046                                   : locale.cpp.obj (.const:.typeinfo:_ZTSNSt3__29money_getIwNS_19istreambuf_iteratorIwNS_11char_traitsIwEEEEEE)
                  0001b810    00000046                                   : locale.cpp.obj (.const:.typeinfo:_ZTSNSt3__29money_putIcNS_19ostreambuf_iteratorIcNS_11char_traitsIcEEEEEE)
                  0001b856    00000046                                   : locale.cpp.obj (.const:.typeinfo:_ZTSNSt3__29money_putIwNS_19ostreambuf_iteratorIwNS_11char_traitsIwEEEEEE)
                  0001b89c    00000045                                   : locale.cpp.obj (.const:.typeinfo:_ZTSNSt3__28time_getIcNS_19istreambuf_iteratorIcNS_11char_traitsIcEEEEEE)
                  0001b8e1    00000045                                   : locale.cpp.obj (.const:.typeinfo:_ZTSNSt3__28time_getIwNS_19istreambuf_iteratorIwNS_11char_traitsIwEEEEEE)
                  0001b926    00000045                                   : locale.cpp.obj (.const:.typeinfo:_ZTSNSt3__28time_putIcNS_19ostreambuf_iteratorIcNS_11char_traitsIcEEEEEE)
                  0001b96b    00000045                                   : locale.cpp.obj (.const:.typeinfo:_ZTSNSt3__28time_putIwNS_19ostreambuf_iteratorIwNS_11char_traitsIwEEEEEE)
                  0001b9b0    00000044                                   : string.cpp.obj (.const:.string:_ZZNSt3__29allocatorIwE8allocateEjPKvEs)
                  0001b9f4    00000044                                   : locale.cpp.obj (.const:.typeinfo:_ZTSNSt3__27num_getIcNS_19istreambuf_iteratorIcNS_11char_traitsIcEEEEEE)
                  0001ba38    00000044                                   : locale.cpp.obj (.const:.typeinfo:_ZTSNSt3__27num_getIwNS_19istreambuf_iteratorIwNS_11char_traitsIwEEEEEE)
                  0001ba7c    00000044                                   : locale.cpp.obj (.const:.typeinfo:_ZTSNSt3__27num_putIcNS_19ostreambuf_iteratorIcNS_11char_traitsIcEEEEEE)
                  0001bac0    00000044                                   : locale.cpp.obj (.const:.typeinfo:_ZTSNSt3__27num_putIwNS_19ostreambuf_iteratorIwNS_11char_traitsIwEEEEEE)
                  0001bb04    00000044                                   : locale.cpp.obj (.const:_ZTVNSt3__25ctypeIwEE)
                  0001bb48    00000040                                   : iostream.cpp.obj (.const:_ZTVNSt3__210__stdinbufIcEE)
                  0001bb88    00000040                                   : iostream.cpp.obj (.const:_ZTVNSt3__210__stdinbufIwEE)
                  0001bbc8    00000040                                   : iostream.cpp.obj (.const:_ZTVNSt3__211__stdoutbufIcEE)
                  0001bc08    00000040                                   : iostream.cpp.obj (.const:_ZTVNSt3__211__stdoutbufIwEE)
                  0001bc48    00000040                                   : ios.cpp.obj (.const:_ZTVNSt3__215basic_streambufIcNS_11char_traitsIcEEEE)
                  0001bc88    00000040                                   : ios.cpp.obj (.const:_ZTVNSt3__215basic_streambufIwNS_11char_traitsIwEEEE)
                  0001bcc8    00000040                                   : locale.cpp.obj (.const:_ZTVNSt3__27num_getIcNS_19istreambuf_iteratorIcNS_11char_traitsIcEEEEEE)
                  0001bd08    00000040                                   : locale.cpp.obj (.const:_ZTVNSt3__27num_getIwNS_19istreambuf_iteratorIwNS_11char_traitsIwEEEEEE)
                  0001bd48    00000038                                   : locale.cpp.obj (.const:_ZTVNSt3__210moneypunctIcLb0EEE)
                  0001bd80    00000038                                   : locale.cpp.obj (.const:_ZTVNSt3__210moneypunctIcLb1EEE)
                  0001bdb8    00000038                                   : locale.cpp.obj (.const:_ZTVNSt3__210moneypunctIwLb0EEE)
                  0001bdf0    00000038                                   : locale.cpp.obj (.const:_ZTVNSt3__210moneypunctIwLb1EEE)
                  0001be28    00000034                                   : locale.cpp.obj (.const:_ZTVNSt3__25ctypeIcEE)
                  0001be5c    00000034                                   : locale.cpp.obj (.const:_ZTVNSt3__27num_putIcNS_19ostreambuf_iteratorIcNS_11char_traitsIcEEEEEE)
                  0001be90    00000034                                   : locale.cpp.obj (.const:_ZTVNSt3__27num_putIwNS_19ostreambuf_iteratorIwNS_11char_traitsIwEEEEEE)
                  0001bec4    00000031                                   : ios.cpp.obj (.const:.typeinfo:_ZTSNSt3__215basic_streambufIcNS_11char_traitsIcEEEE)
                  0001bef5    00000031                                   : ios.cpp.obj (.const:.typeinfo:_ZTSNSt3__215basic_streambufIwNS_11char_traitsIwEEEE)
                  0001bf26    00000002                                   : locale.cpp.obj (.const:.string:_ZZNKSt3__27num_putIcNS_19ostreambuf_iteratorIcNS_11char_traitsIcEEEEE6do_putES4_RNS_8ios_baseEcmEs)
                  0001bf28    00000030                                   : string.cpp.obj (.const:$O1$$)
                  0001bf58    00000030                                   : ios.cpp.obj (.const:_ZTVNSt3__213basic_istreamIcNS_11char_traitsIcEEEE)
                  0001bf88    00000030                                   : ios.cpp.obj (.const:_ZTVNSt3__213basic_istreamIwNS_11char_traitsIwEEEE)
                  0001bfb8    00000030                                   : ios.cpp.obj (.const:_ZTVNSt3__213basic_ostreamIcNS_11char_traitsIcEEEE)
                  0001bfe8    00000030                                   : ios.cpp.obj (.const:_ZTVNSt3__213basic_ostreamIwNS_11char_traitsIwEEEE)
                  0001c018    00000030                                   : locale.cpp.obj (.const:_ZTVNSt3__27codecvtIDiciEE)
                  0001c048    00000030                                   : locale.cpp.obj (.const:_ZTVNSt3__27codecvtIDsciEE)
                  0001c078    00000030                                   : locale.cpp.obj (.const:_ZTVNSt3__27codecvtIcciEE)
                  0001c0a8    00000030                                   : locale.cpp.obj (.const:_ZTVNSt3__27codecvtIwciEE)
                  0001c0d8    0000002f                                   : ios.cpp.obj (.const:.typeinfo:_ZTSNSt3__213basic_istreamIcNS_11char_traitsIcEEEE)
                  0001c107    0000002f                                   : ios.cpp.obj (.const:.typeinfo:_ZTSNSt3__213basic_istreamIwNS_11char_traitsIwEEEE)
                  0001c136    0000002f                                   : ios.cpp.obj (.const:.typeinfo:_ZTSNSt3__213basic_ostreamIcNS_11char_traitsIcEEEE)
                  0001c165    0000002f                                   : ios.cpp.obj (.const:.typeinfo:_ZTSNSt3__213basic_ostreamIwNS_11char_traitsIwEEEE)
                  0001c194    0000002a                                   : ios.cpp.obj (.const:.typeinfo:_ZTSNSt3__29basic_iosIcNS_11char_traitsIcEEEE)
                  0001c1be    0000002a                                   : ios.cpp.obj (.const:.typeinfo:_ZTSNSt3__29basic_iosIwNS_11char_traitsIwEEEE)
                  0001c1e8    00000028                                   : locale.cpp.obj (.const:.typeinfo:_ZTINSt3__28time_getIcNS_19istreambuf_iteratorIcNS_11char_traitsIcEEEEEE)
                  0001c210    00000028                                   : locale.cpp.obj (.const:.typeinfo:_ZTINSt3__28time_getIwNS_19istreambuf_iteratorIwNS_11char_traitsIwEEEEEE)
                  0001c238    00000028                                   : locale.cpp.obj (.const:_ZTVNSt3__28numpunctIcEE)
                  0001c260    00000028                                   : locale.cpp.obj (.const:_ZTVNSt3__28numpunctIwEE)
                  0001c288    00000026                                   : iostream.cpp.obj (.const:.string:_ZZNSt3__210__stdinbufIcE5imbueERKNS_6localeEEs)
                  0001c2ae    00000026                                   : iostream.cpp.obj (.const:.string:_ZZNSt3__210__stdinbufIwE5imbueERKNS_6localeEEs)
                  0001c2d4    00000026                                   : typeinfo.c.obj (.const:.typeinfo:_ZTSN10__cxxabiv121__vmi_class_type_infoE)
                  0001c2fa    00000025                                   : typeinfo.c.obj (.const:.typeinfo:_ZTSN10__cxxabiv120__si_class_type_infoE)
                  0001c31f    00000022                                   : typeinfo.c.obj (.const:.typeinfo:_ZTSN10__cxxabiv117__class_type_infoE)
                  0001c341    00000022                                   : locale.cpp.obj (.const:.typeinfo:_ZTSNSt3__220__time_get_c_storageIcEE)
                  0001c363    00000022                                   : locale.cpp.obj (.const:.typeinfo:_ZTSNSt3__220__time_get_c_storageIwEE)
                  0001c385    00000003                                   : locale.cpp.obj (.const:.string:_ZZNKSt3__27num_getIcNS_19istreambuf_iteratorIcNS_11char_traitsIcEEEEE6do_getES4_S4_RNS_8ios_baseERjRPvEs)
                  0001c388    00000020                                   : locale.cpp.obj (.const:.typeinfo:_ZTINSt3__210moneypunctIcLb0EEE)
                  0001c3a8    00000020                                   : locale.cpp.obj (.const:.typeinfo:_ZTINSt3__210moneypunctIcLb1EEE)
                  0001c3c8    00000020                                   : locale.cpp.obj (.const:.typeinfo:_ZTINSt3__210moneypunctIwLb0EEE)
                  0001c3e8    00000020                                   : locale.cpp.obj (.const:.typeinfo:_ZTINSt3__210moneypunctIwLb1EEE)
                  0001c408    00000020                                   : locale.cpp.obj (.const:.typeinfo:_ZTINSt3__25ctypeIcEE)
                  0001c428    00000020                                   : locale.cpp.obj (.const:.typeinfo:_ZTINSt3__25ctypeIwEE)
                  0001c448    00000020                                   : locale.cpp.obj (.const:.typeinfo:_ZTINSt3__27codecvtIDiciEE)
                  0001c468    00000020                                   : locale.cpp.obj (.const:.typeinfo:_ZTINSt3__27codecvtIDsciEE)
                  0001c488    00000020                                   : locale.cpp.obj (.const:.typeinfo:_ZTINSt3__27codecvtIcciEE)
                  0001c4a8    00000020                                   : locale.cpp.obj (.const:.typeinfo:_ZTINSt3__27codecvtIwciEE)
                  0001c4c8    00000020                                   : locale.cpp.obj (.const:.typeinfo:_ZTINSt3__27num_getIcNS_19istreambuf_iteratorIcNS_11char_traitsIcEEEEEE)
                  0001c4e8    00000020                                   : locale.cpp.obj (.const:.typeinfo:_ZTINSt3__27num_getIwNS_19istreambuf_iteratorIwNS_11char_traitsIwEEEEEE)
                  0001c508    00000020                                   : locale.cpp.obj (.const:.typeinfo:_ZTINSt3__27num_putIcNS_19ostreambuf_iteratorIcNS_11char_traitsIcEEEEEE)
                  0001c528    00000020                                   : locale.cpp.obj (.const:.typeinfo:_ZTINSt3__27num_putIwNS_19ostreambuf_iteratorIwNS_11char_traitsIwEEEEEE)
                  0001c548    00000020                                   : locale.cpp.obj (.const:.typeinfo:_ZTINSt3__28messagesIcEE)
                  0001c568    00000020                                   : locale.cpp.obj (.const:.typeinfo:_ZTINSt3__28messagesIwEE)
                  0001c588    00000020                                   : locale.cpp.obj (.const:.typeinfo:_ZTINSt3__28time_putIcNS_19ostreambuf_iteratorIcNS_11char_traitsIcEEEEEE)
                  0001c5a8    00000020                                   : locale.cpp.obj (.const:.typeinfo:_ZTINSt3__28time_putIwNS_19ostreambuf_iteratorIwNS_11char_traitsIwEEEEEE)
                  0001c5c8    00000020                                   : locale.cpp.obj (.const:.typeinfo:_ZTINSt3__29money_getIcNS_19istreambuf_iteratorIcNS_11char_traitsIcEEEEEE)
                  0001c5e8    00000020                                   : locale.cpp.obj (.const:.typeinfo:_ZTINSt3__29money_getIwNS_19istreambuf_iteratorIwNS_11char_traitsIwEEEEEE)
                  0001c608    00000020                                   : locale.cpp.obj (.const:.typeinfo:_ZTINSt3__29money_putIcNS_19ostreambuf_iteratorIcNS_11char_traitsIcEEEEEE)
                  0001c628    00000020                                   : locale.cpp.obj (.const:.typeinfo:_ZTINSt3__29money_putIwNS_19ostreambuf_iteratorIwNS_11char_traitsIwEEEEEE)
                  0001c648    00000020                                   : locale.cpp.obj (.const:_ZTVNSt3__27collateIcEE)
                  0001c668    00000020                                   : locale.cpp.obj (.const:_ZTVNSt3__27collateIwEE)
                  0001c688    00000020                                   : locale.cpp.obj (.const:_ZTVNSt3__28messagesIcEE)
                  0001c6a8    00000020                                   : locale.cpp.obj (.const:_ZTVNSt3__28messagesIwEE)
                  0001c6c8    0000001c                                   : locale.cpp.obj (.const:.typeinfo:_ZTSNSt3__210moneypunctIcLb0EEE)
                  0001c6e4    0000001c                                   : locale.cpp.obj (.const:.typeinfo:_ZTSNSt3__210moneypunctIcLb1EEE)
                  0001c700    0000001c                                   : locale.cpp.obj (.const:.typeinfo:_ZTSNSt3__210moneypunctIwLb0EEE)
                  0001c71c    0000001c                                   : locale.cpp.obj (.const:.typeinfo:_ZTSNSt3__210moneypunctIwLb1EEE)
                  0001c738    0000001c                                   : locale.cpp.obj (.const:_ZTVNSt3__29money_getIcNS_19istreambuf_iteratorIcNS_11char_traitsIcEEEEEE)
                  0001c754    0000001c                                   : locale.cpp.obj (.const:_ZTVNSt3__29money_getIwNS_19istreambuf_iteratorIwNS_11char_traitsIwEEEEEE)
                  0001c770    0000001c                                   : locale.cpp.obj (.const:_ZTVNSt3__29money_putIcNS_19ostreambuf_iteratorIcNS_11char_traitsIcEEEEEE)
                  0001c78c    0000001c                                   : locale.cpp.obj (.const:_ZTVNSt3__29money_putIwNS_19ostreambuf_iteratorIwNS_11char_traitsIwEEEEEE)
                  0001c7a8    00000019                                   : locale.cpp.obj (.const:.typeinfo:_ZTSNSt3__211__money_getIcEE)
                  0001c7c1    00000019                                   : locale.cpp.obj (.const:.typeinfo:_ZTSNSt3__211__money_getIwEE)
                  0001c7da    00000019                                   : locale.cpp.obj (.const:.typeinfo:_ZTSNSt3__211__money_putIcEE)
                  0001c7f3    00000019                                   : locale.cpp.obj (.const:.typeinfo:_ZTSNSt3__211__money_putIwEE)
                  0001c80c    00000019                                   : iostream.cpp.obj (.const:.typeinfo:_ZTSNSt3__211__stdoutbufIcEE)
                  0001c825    00000019                                   : iostream.cpp.obj (.const:.typeinfo:_ZTSNSt3__211__stdoutbufIwEE)
                  0001c83e    00000019                                   : locale.cpp.obj (.const:.typeinfo:_ZTSNSt3__214__num_get_baseE)
                  0001c857    00000019                                   : locale.cpp.obj (.const:.typeinfo:_ZTSNSt3__214__num_put_baseE)
                  0001c870    00000019                                   : memory.cpp.obj (.const:.typeinfo:_ZTSNSt3__214__shared_countE)
                  0001c889    00000003                                   : locale.cpp.obj (.const:.string:_ZZNKSt3__27num_getIwNS_19istreambuf_iteratorIwNS_11char_traitsIwEEEEE6do_getES4_S4_RNS_8ios_baseERjRPvEs)
                  0001c88c    00000018                                   : ios.cpp.obj (.const:.typeinfo:_ZTINSt3__213basic_istreamIcNS_11char_traitsIcEEEE)
                  0001c8a4    00000018                                   : ios.cpp.obj (.const:.typeinfo:_ZTINSt3__213basic_istreamIwNS_11char_traitsIwEEEE)
                  0001c8bc    00000018                                   : ios.cpp.obj (.const:.typeinfo:_ZTINSt3__213basic_ostreamIcNS_11char_traitsIcEEEE)
                  0001c8d4    00000018                                   : ios.cpp.obj (.const:.typeinfo:_ZTINSt3__213basic_ostreamIwNS_11char_traitsIwEEEE)
                  0001c8ec    00000018                                   : locale.cpp.obj (.const:.typeinfo:_ZTINSt3__29__num_getIcEE)
                  0001c904    00000018                                   : locale.cpp.obj (.const:.typeinfo:_ZTINSt3__29__num_getIwEE)
                  0001c91c    00000018                                   : locale.cpp.obj (.const:.typeinfo:_ZTINSt3__29__num_putIcEE)
                  0001c934    00000018                                   : locale.cpp.obj (.const:.typeinfo:_ZTINSt3__29__num_putIwEE)
                  0001c94c    00000018                                   : iostream.cpp.obj (.const:.typeinfo:_ZTSNSt3__210__stdinbufIcEE)
                  0001c964    00000018                                   : iostream.cpp.obj (.const:.typeinfo:_ZTSNSt3__210__stdinbufIwEE)
                  0001c97c    00000018                                   : locale.cpp.obj (.const:.typeinfo:_ZTSNSt3__213messages_baseE)
                  0001c994    00000018                                   : locale.cpp.obj (.const:_ZTVNSt3__28time_putIcNS_19ostreambuf_iteratorIcNS_11char_traitsIcEEEEEE)
                  0001c9ac    00000018                                   : locale.cpp.obj (.const:_ZTVNSt3__28time_putIwNS_19ostreambuf_iteratorIwNS_11char_traitsIwEEEEEE)
                  0001c9c4    00000017                                   : locale.cpp.obj (.const:.typeinfo:_ZTSNSt3__212codecvt_baseE)
                  0001c9db    00000017                                   : locale.cpp.obj (.const:.typeinfo:_ZTSNSt3__27codecvtIDiciEE)
                  0001c9f2    00000017                                   : locale.cpp.obj (.const:.typeinfo:_ZTSNSt3__27codecvtIDsciEE)
                  0001ca09    00000016                                   : locale.cpp.obj (.const:.typeinfo:_ZTSNSt3__26locale5__impE)
                  0001ca1f    00000016                                   : locale.cpp.obj (.const:.typeinfo:_ZTSNSt3__26locale5facetE)
                  0001ca35    00000016                                   : locale.cpp.obj (.const:.typeinfo:_ZTSNSt3__27codecvtIcciEE)
                  0001ca4b    00000016                                   : locale.cpp.obj (.const:.typeinfo:_ZTSNSt3__27codecvtIwciEE)
                  0001ca61    00000016                                   : locale.cpp.obj (.const:.typeinfo:_ZTSNSt3__29__num_getIcEE)
                  0001ca77    00000016                                   : locale.cpp.obj (.const:.typeinfo:_ZTSNSt3__29__num_getIwEE)
                  0001ca8d    00000016                                   : locale.cpp.obj (.const:.typeinfo:_ZTSNSt3__29__num_putIcEE)
                  0001caa3    00000016                                   : locale.cpp.obj (.const:.typeinfo:_ZTSNSt3__29__num_putIwEE)
                  0001cab9    00000015                                   : locale.cpp.obj (.const:.typeinfo:_ZTSNSt3__210__time_putE)
                  0001cace    00000015                                   : locale.cpp.obj (.const:.typeinfo:_ZTSNSt3__210ctype_baseE)
                  0001cae3    00000015                                   : locale.cpp.obj (.const:.typeinfo:_ZTSNSt3__210money_baseE)
                  0001caf8    00000015                                   : locale.cpp.obj (.const:.typeinfo:_ZTSNSt3__28messagesIcEE)
                  0001cb0d    00000015                                   : locale.cpp.obj (.const:.typeinfo:_ZTSNSt3__28messagesIwEE)
                  0001cb22    00000015                                   : locale.cpp.obj (.const:.typeinfo:_ZTSNSt3__28numpunctIcEE)
                  0001cb37    00000015                                   : locale.cpp.obj (.const:.typeinfo:_ZTSNSt3__28numpunctIwEE)
                  0001cb4c    00000014                                   : locale.cpp.obj (.const:.typeinfo:_ZTSNSt3__27collateIcEE)
                  0001cb60    00000014                                   : locale.cpp.obj (.const:.typeinfo:_ZTSNSt3__27collateIwEE)
                  0001cb74    00000014                                   : locale.cpp.obj (.const:_ZTVNSt3__26locale5__impE)
                  0001cb88    00000014                                   : locale.cpp.obj (.const:_ZTVNSt3__26locale5facetE)
                  0001cb9c    00000013                                   : locale.cpp.obj (.const:.typeinfo:_ZTSNSt3__29time_baseE)
                  0001cbaf    00000012                                   : locale.cpp.obj (.const:.typeinfo:_ZTSNSt3__25ctypeIcEE)
                  0001cbc1    00000012                                   : locale.cpp.obj (.const:.typeinfo:_ZTSNSt3__25ctypeIwEE)
                  0001cbd3    00000012                                   : ios.cpp.obj (.const:.typeinfo:_ZTSNSt3__28ios_baseE)
                  0001cbe5    00000003                                   : locale.cpp.obj (.const:.string:_ZZNKSt3__27num_putIcNS_19ostreambuf_iteratorIcNS_11char_traitsIcEEEEE6do_putES4_RNS_8ios_baseEcxEs)
                  0001cbe8    00000010                                   : _scanfi.c.obj (.const:$O1$$)
                  0001cbf8    00000010                                   : string.cpp.obj (.const:.string:_ZZNSt3__234_GLOBAL__N__10_string_cpp_11932bae29throw_from_string_invalid_argERKNS_12basic_stringIcNS_11char_traitsIcEENS_9allocatorIcEEEEEs)
                  0001cc08    00000010                                   : typeinfo.c.obj (.const:_ZTVN10__cxxabiv117__class_type_infoE)
                  0001cc18    00000010                                   : typeinfo.c.obj (.const:_ZTVN10__cxxabiv120__si_class_type_infoE)
                  0001cc28    00000010                                   : typeinfo.c.obj (.const:_ZTVN10__cxxabiv121__vmi_class_type_infoE)
                  0001cc38    00000010                                   : ios.cpp.obj (.const:_ZTVNSt3__28ios_baseE)
                  0001cc48    00000010                                   : ios.cpp.obj (.const:_ZTVNSt3__29basic_iosIcNS_11char_traitsIcEEEE)
                  0001cc58    00000010                                   : ios.cpp.obj (.const:_ZTVNSt3__29basic_iosIwNS_11char_traitsIwEEEE)
                  0001cc68    0000000f                                   : string.cpp.obj (.const:.string:_ZZNSt3__234_GLOBAL__N__10_string_cpp_11932bae30throw_from_string_out_of_rangeERKNS_12basic_stringIcNS_11char_traitsIcEENS_9allocatorIcEEEEEs)
                  0001cc77    0000000d                                   : string.cpp.obj (.const:.string:_ZZNKSt3__221__basic_string_commonILb1EE20__throw_length_errorEvEs)
                  0001cc84    0000000d                                   : string.cpp.obj (.const:.string:_ZZNKSt3__221__basic_string_commonILb1EE20__throw_out_of_rangeEvEs)
                  0001cc91    0000000d                                   : stdlib_typeinfo.cpp.obj (.const:.typeinfo:_ZTSSt9type_info)
                  0001cc9e    00000002                                   : locale.cpp.obj (.const:.string:_ZZNKSt3__27num_putIwNS_19ostreambuf_iteratorIwNS_11char_traitsIwEEEEE6do_putES4_RNS_8ios_baseEweEs)
                  0001cca0    0000000c                                   : typeinfo.c.obj (.const:.typeinfo:_ZTIN10__cxxabiv117__class_type_infoE)
                  0001ccac    0000000c                                   : typeinfo.c.obj (.const:.typeinfo:_ZTIN10__cxxabiv120__si_class_type_infoE)
                  0001ccb8    0000000c                                   : typeinfo.c.obj (.const:.typeinfo:_ZTIN10__cxxabiv121__vmi_class_type_infoE)
                  0001ccc4    0000000c                                   : iostream.cpp.obj (.const:.typeinfo:_ZTINSt3__210__stdinbufIcEE)
                  0001ccd0    0000000c                                   : iostream.cpp.obj (.const:.typeinfo:_ZTINSt3__210__stdinbufIwEE)
                  0001ccdc    0000000c                                   : iostream.cpp.obj (.const:.typeinfo:_ZTINSt3__211__stdoutbufIcEE)
                  0001cce8    0000000c                                   : iostream.cpp.obj (.const:.typeinfo:_ZTINSt3__211__stdoutbufIwEE)
                  0001ccf4    0000000c                                   : locale.cpp.obj (.const:.typeinfo:_ZTINSt3__26locale5__impE)
                  0001cd00    0000000c                                   : locale.cpp.obj (.const:.typeinfo:_ZTINSt3__26locale5facetE)
                  0001cd0c    0000000c                                   : locale.cpp.obj (.const:.typeinfo:_ZTINSt3__27collateIcEE)
                  0001cd18    0000000c                                   : locale.cpp.obj (.const:.typeinfo:_ZTINSt3__27collateIwEE)
                  0001cd24    0000000c                                   : locale.cpp.obj (.const:.typeinfo:_ZTINSt3__28numpunctIcEE)
                  0001cd30    0000000c                                   : locale.cpp.obj (.const:.typeinfo:_ZTINSt3__28numpunctIwEE)
                  0001cd3c    0000000c                                   : ios.cpp.obj (.const:.typeinfo:_ZTINSt3__29basic_iosIcNS_11char_traitsIcEEEE)
                  0001cd48    0000000c                                   : ios.cpp.obj (.const:.typeinfo:_ZTINSt3__29basic_iosIwNS_11char_traitsIwEEEE)
                  0001cd54    00000008                                   : locale.cpp.obj (.const:.typeinfo:_ZTINSt3__210__time_putE)
                  0001cd5c    00000008                                   : locale.cpp.obj (.const:.typeinfo:_ZTINSt3__210ctype_baseE)
                  0001cd64    00000008                                   : locale.cpp.obj (.const:.typeinfo:_ZTINSt3__210money_baseE)
                  0001cd6c    00000008                                   : locale.cpp.obj (.const:.typeinfo:_ZTINSt3__211__money_getIcEE)
                  0001cd74    00000008                                   : locale.cpp.obj (.const:.typeinfo:_ZTINSt3__211__money_getIwEE)
                  0001cd7c    00000008                                   : locale.cpp.obj (.const:.typeinfo:_ZTINSt3__211__money_putIcEE)
                  0001cd84    00000008                                   : locale.cpp.obj (.const:.typeinfo:_ZTINSt3__211__money_putIwEE)
                  0001cd8c    00000008                                   : locale.cpp.obj (.const:.typeinfo:_ZTINSt3__212codecvt_baseE)
                  0001cd94    00000008                                   : locale.cpp.obj (.const:.typeinfo:_ZTINSt3__213messages_baseE)
                  0001cd9c    00000008                                   : locale.cpp.obj (.const:.typeinfo:_ZTINSt3__214__num_get_baseE)
                  0001cda4    00000008                                   : locale.cpp.obj (.const:.typeinfo:_ZTINSt3__214__num_put_baseE)
                  0001cdac    00000008                                   : memory.cpp.obj (.const:.typeinfo:_ZTINSt3__214__shared_countE)
                  0001cdb4    00000008                                   : ios.cpp.obj (.const:.typeinfo:_ZTINSt3__215basic_streambufIcNS_11char_traitsIcEEEE)
                  0001cdbc    00000008                                   : ios.cpp.obj (.const:.typeinfo:_ZTINSt3__215basic_streambufIwNS_11char_traitsIwEEEE)
                  0001cdc4    00000008                                   : locale.cpp.obj (.const:.typeinfo:_ZTINSt3__220__time_get_c_storageIcEE)
                  0001cdcc    00000008                                   : locale.cpp.obj (.const:.typeinfo:_ZTINSt3__220__time_get_c_storageIwEE)
                  0001cdd4    00000008                                   : ios.cpp.obj (.const:.typeinfo:_ZTINSt3__28ios_baseE)
                  0001cddc    00000008                                   : locale.cpp.obj (.const:.typeinfo:_ZTINSt3__29time_baseE)
                  0001cde4    00000008                                   : stdlib_typeinfo.cpp.obj (.const:.typeinfo:_ZTISt9type_info)
                  0001cdec    00000006                                   : locale.cpp.obj (.const:.string:_ZZNKSt3__29money_putIcNS_19ostreambuf_iteratorIcNS_11char_traitsIcEEEEE6do_putES4_bRNS_8ios_baseEceEs)
                  0001cdf2    00000006                                   : locale.cpp.obj (.const:.string:_ZZNKSt3__29money_putIwNS_19ostreambuf_iteratorIwNS_11char_traitsIwEEEEE6do_putES4_bRNS_8ios_baseEweEs)
                  0001cdf8    00000004                                   : locale.cpp.obj (.const:.string:_ZZNKSt3__29money_getIcNS_19istreambuf_iteratorIcNS_11char_traitsIcEEEEE6do_getES4_S4_bRNS_8ios_baseERjReEs_0)
                  0001cdfc    00000004                                   : locale.cpp.obj (.const:.string:_ZZNKSt3__29money_getIwNS_19istreambuf_iteratorIwNS_11char_traitsIwEEEEE6do_getES4_S4_bRNS_8ios_baseERjReEs_0)
                  0001ce00    00000004                                   : string.cpp.obj (.const:.string:_ZZNSt3__234_GLOBAL__N__10_string_cpp_11932bae12throw_helperISt12out_of_rangeEEvRKNS_12basic_stringIcNS_11char_traitsIcEENS_9allocatorIcEEEEEs)
                  0001ce04    00000004                                   : string.cpp.obj (.const:.string:_ZZNSt3__234_GLOBAL__N__10_string_cpp_11932bae12throw_helperISt16invalid_argumentEEvRKNS_12basic_stringIcNS_11char_traitsIcEENS_9allocatorIcEEEEEs)
                  0001ce08    00000003                                   : locale.cpp.obj (.const:.string:_ZZNKSt3__27num_putIcNS_19ostreambuf_iteratorIcNS_11char_traitsIcEEEEE6do_putES4_RNS_8ios_baseEcyEs)
                  0001ce0b    00000003                                   : locale.cpp.obj (.const:.string:_ZZNKSt3__27num_putIwNS_19ostreambuf_iteratorIwNS_11char_traitsIwEEEEE6do_putES4_RNS_8ios_baseEwxEs)
                  0001ce0e    00000003                                   : locale.cpp.obj (.const:.string:_ZZNKSt3__27num_putIwNS_19ostreambuf_iteratorIwNS_11char_traitsIwEEEEE6do_putES4_RNS_8ios_baseEwyEs)
                  0001ce11    00000002                                   : locale.cpp.obj (.const:.string:_ZZNKSt3__27num_putIwNS_19ostreambuf_iteratorIwNS_11char_traitsIwEEEEE6do_putES4_RNS_8ios_baseEwlEs)
                  0001ce13    00000002                                   : locale.cpp.obj (.const:.string:_ZZNKSt3__27num_putIwNS_19ostreambuf_iteratorIwNS_11char_traitsIwEEEEE6do_putES4_RNS_8ios_baseEwmEs)
                  0001ce15    00000001                                   : locale.cpp.obj (.const:.string:_ZZNKSt3__27num_putIcNS_19ostreambuf_iteratorIcNS_11char_traitsIcEEEEE6do_putES4_RNS_8ios_baseEcdEs)
                  0001ce16    00000001                                   : locale.cpp.obj (.const:.string:_ZZNKSt3__27num_putIwNS_19ostreambuf_iteratorIwNS_11char_traitsIwEEEEE6do_putES4_RNS_8ios_baseEwdEs)

.cinit     0    0001ce38    000000b8     
                  0001ce38    00000091     (.cinit..data.load) [load image, compression = lzss]
                  0001cec9    00000003     --HOLE-- [fill = 0]
                  0001cecc    0000000c     (__TI_handler_table)
                  0001ced8    00000008     (.cinit..bss.load) [load image, compression = zero_init]
                  0001cee0    00000010     (__TI_cinit_table)

.init_array 
*          0    0001ce18    0000001c     
                  0001ce18    00000004     rtsv7M4_T_le_v4SPD16_eabi.lib : iostream.cpp.obj (.init_array:101)
                  0001ce1c    00000004     main.obj (.init_array)
                  0001ce20    00000004     ZooKeeper.obj (.init_array)
                  0001ce24    00000004     TimeHandler.obj (.init_array)
                  0001ce28    00000004     Monitor.obj (.init_array)
                  0001ce2c    00000004     GlobalConfig.obj (.init_array)
                  0001ce30    00000004     ComandCenter.obj (.init_array)

.stack     0    20000000    00010000     UNINITIALIZED
                  20000000    00000004     rtsv7M4_T_le_v4SPD16_eabi.lib : boot_cortex_m.c.obj (.stack)
                  20000004    0000fffc     --HOLE--

.sysmem    0    20010000    00010000     UNINITIALIZED
                  20010000    00000008     rtsv7M4_T_le_v4SPD16_eabi.lib : memory.c.obj (.sysmem)
                  20010008    0000fff8     --HOLE--

.data      0    20020000    00001260     UNINITIALIZED
                  20020000    000006fc     rtsv7M4_T_le_v4SPD16_eabi.lib : locale.cpp.obj (.data:$O1$$)
                  200206fc    000001c4     ComandCenter.obj (.data:$O1$$)
                  200208c0    000001c0     TimeHandler.obj (.data:$O1$$)
                  20020a80    000001b4     GlobalConfig.obj (.data:$O1$$)
                  20020c34    000001b4     main.obj (.data:$O1$$)
                  20020de8    000001b4     Monitor.obj (.data:$O2$$)
                  20020f9c    000000f0     rtsv7M4_T_le_v4SPD16_eabi.lib : defs.c.obj (.data:_ftable)
                  2002108c    00000078                                   : write.c.obj (.data:_device)
                  20021104    00000050                                   : write.c.obj (.data:_stream)
                  20021154    00000010     Monitor.obj (.data:$O1$$)
                  20021164    00000010     rtsv7M4_T_le_v4SPD16_eabi.lib : tmzone.c.obj (.data:_tz)
                  20021174    00000010                                   : defs.c.obj (.data)
                  20021184    0000000c                                   : exit.c.obj (.data:$O1$$)
                  20021190    0000000c                                   : memory.c.obj (.data:$O1$$)
                  2002119c    00000008                                   : _lock.c.obj (.data:$O1$$)
                  200211a4    00000008                                   : locale.cpp.obj (.data:_ZNSt3__210moneypunctIcLb0EE2idE)
                  200211ac    00000008                                   : locale.cpp.obj (.data:_ZNSt3__210moneypunctIcLb1EE2idE)
                  200211b4    00000008                                   : locale.cpp.obj (.data:_ZNSt3__210moneypunctIwLb0EE2idE)
                  200211bc    00000008                                   : locale.cpp.obj (.data:_ZNSt3__210moneypunctIwLb1EE2idE)
                  200211c4    00000008                                   : locale.cpp.obj (.data:_ZNSt3__27collateIcE2idE)
                  200211cc    00000008                                   : locale.cpp.obj (.data:_ZNSt3__27collateIwE2idE)
                  200211d4    00000008                                   : locale.cpp.obj (.data:_ZNSt3__27num_getIcNS_19istreambuf_iteratorIcNS_11char_traitsIcEEEEE2idE)
                  200211dc    00000008                                   : locale.cpp.obj (.data:_ZNSt3__27num_getIwNS_19istreambuf_iteratorIwNS_11char_traitsIwEEEEE2idE)
                  200211e4    00000008                                   : locale.cpp.obj (.data:_ZNSt3__27num_putIcNS_19ostreambuf_iteratorIcNS_11char_traitsIcEEEEE2idE)
                  200211ec    00000008                                   : locale.cpp.obj (.data:_ZNSt3__27num_putIwNS_19ostreambuf_iteratorIwNS_11char_traitsIwEEEEE2idE)
                  200211f4    00000008                                   : locale.cpp.obj (.data:_ZNSt3__28messagesIcE2idE)
                  200211fc    00000008                                   : locale.cpp.obj (.data:_ZNSt3__28messagesIwE2idE)
                  20021204    00000008                                   : locale.cpp.obj (.data:_ZNSt3__28time_getIcNS_19istreambuf_iteratorIcNS_11char_traitsIcEEEEE2idE)
                  2002120c    00000008                                   : locale.cpp.obj (.data:_ZNSt3__28time_getIwNS_19istreambuf_iteratorIwNS_11char_traitsIwEEEEE2idE)
                  20021214    00000008                                   : locale.cpp.obj (.data:_ZNSt3__28time_putIcNS_19ostreambuf_iteratorIcNS_11char_traitsIcEEEEE2idE)
                  2002121c    00000008                                   : locale.cpp.obj (.data:_ZNSt3__28time_putIwNS_19ostreambuf_iteratorIwNS_11char_traitsIwEEEEE2idE)
                  20021224    00000008                                   : locale.cpp.obj (.data:_ZNSt3__29money_getIcNS_19istreambuf_iteratorIcNS_11char_traitsIcEEEEE2idE)
                  2002122c    00000008                                   : locale.cpp.obj (.data:_ZNSt3__29money_getIwNS_19istreambuf_iteratorIwNS_11char_traitsIwEEEEE2idE)
                  20021234    00000008                                   : locale.cpp.obj (.data:_ZNSt3__29money_putIcNS_19ostreambuf_iteratorIcNS_11char_traitsIcEEEEE2idE)
                  2002123c    00000008                                   : locale.cpp.obj (.data:_ZNSt3__29money_putIwNS_19ostreambuf_iteratorIwNS_11char_traitsIwEEEEE2idE)
                  20021244    00000004     ComandCenter.obj (.data)
                  20021248    00000004     ISRMsgHandler.obj (.data)
                  2002124c    00000004     SysTickDriver.obj (.data)
                  20021250    00000004     TimeHandler.obj (.data)
                  20021254    00000004     UART0Driver.obj (.data)
                  20021258    00000004     rtsv7M4_T_le_v4SPD16_eabi.lib : dtor_list.c.obj (.data)
                  2002125c    00000004                                   : errno.c.obj (.data)

.bss       0    20021260    0000098d     UNINITIALIZED
                  20021260    000003f0     rtsv7M4_T_le_v4SPD16_eabi.lib : iostream.cpp.obj (.bss:$O1$$)
                  20021650    000001e0     ZooKeeper.obj (.bss:$O1$$)
                  20021830    00000120     rtsv7M4_T_le_v4SPD16_eabi.lib : trgmsg.c.obj (.bss:_CIOBUF_)
                  20021950    000000a0                                   : locale.cpp.obj (.bss:_ZZNSt3__234_GLOBAL__N__10_locale_cpp_a71832034makeINS_6locale5__impEjEERT_T0_E3buf)
                  200219f0    000000a0     (.common:__TI_tmpnams)
                  20021a90    0000001c                                   : vla_alloc.c.obj (.bss:$O1$$)
                  20021aac    00000004                                   : new.cpp.obj (.bss)
                  20021ab0    00000018                                   : locale.cpp.obj (.bss:_ZZNSt3__234_GLOBAL__N__10_locale_cpp_a71832034makeINS_8numpunctIcEEjEERT_T0_E3buf)
                  20021ac8    00000018                                   : locale.cpp.obj (.bss:_ZZNSt3__234_GLOBAL__N__10_locale_cpp_a71832034makeINS_8numpunctIwEEjEERT_T0_E3buf)
                  20021ae0    00000010                                   : locale.cpp.obj (.bss:_ZZNSt3__234_GLOBAL__N__10_locale_cpp_a71832034makeINS_5ctypeIcEEDnbjEERT_T0_T1_T2_E3buf)
                  20021af0    00000010                                   : locale.cpp.obj (.bss:_ZZNSt3__234_GLOBAL__N__10_locale_cpp_a71832034makeINS_7codecvtIwciEEjEERT_T0_E3buf)
                  20021b00    00000010                                   : locale.cpp.obj (.bss:_ZZNSt3__234_GLOBAL__N__10_locale_cpp_a71832034makeINS_8time_getIcNS_19istreambuf_iteratorIcNS_11char_traitsIcEEEEEEjEERT_T0_E3buf)
                  20021b10    00000010                                   : locale.cpp.obj (.bss:_ZZNSt3__234_GLOBAL__N__10_locale_cpp_a71832034makeINS_8time_getIwNS_19istreambuf_iteratorIwNS_11char_traitsIwEEEEEEjEERT_T0_E3buf)
                  20021b20    00000010                                   : locale.cpp.obj (.bss:_ZZNSt3__234_GLOBAL__N__10_locale_cpp_a71832034makeINS_8time_putIcNS_19ostreambuf_iteratorIcNS_11char_traitsIcEEEEEEjEERT_T0_E3buf)
                  20021b30    00000010                                   : locale.cpp.obj (.bss:_ZZNSt3__234_GLOBAL__N__10_locale_cpp_a71832034makeINS_8time_putIwNS_19ostreambuf_iteratorIwNS_11char_traitsIwEEEEEEjEERT_T0_E3buf)
                  20021b40    00000008                                   : locale.cpp.obj (.bss:_ZZNSt3__234_GLOBAL__N__10_locale_cpp_a71832034makeINS_10moneypunctIcLb0EEEjEERT_T0_E3buf)
                  20021b48    00000008                                   : locale.cpp.obj (.bss:_ZZNSt3__234_GLOBAL__N__10_locale_cpp_a71832034makeINS_10moneypunctIcLb1EEEjEERT_T0_E3buf)
                  20021b50    00000008                                   : locale.cpp.obj (.bss:_ZZNSt3__234_GLOBAL__N__10_locale_cpp_a71832034makeINS_10moneypunctIwLb0EEEjEERT_T0_E3buf)
                  20021b58    00000008                                   : locale.cpp.obj (.bss:_ZZNSt3__234_GLOBAL__N__10_locale_cpp_a71832034makeINS_10moneypunctIwLb1EEEjEERT_T0_E3buf)
                  20021b60    00000008                                   : locale.cpp.obj (.bss:_ZZNSt3__234_GLOBAL__N__10_locale_cpp_a71832034makeINS_5ctypeIwEEjEERT_T0_E3buf)
                  20021b68    00000008                                   : locale.cpp.obj (.bss:_ZZNSt3__234_GLOBAL__N__10_locale_cpp_a71832034makeINS_7codecvtIDiciEEjEERT_T0_E3buf)
                  20021b70    00000008                                   : locale.cpp.obj (.bss:_ZZNSt3__234_GLOBAL__N__10_locale_cpp_a71832034makeINS_7codecvtIDsciEEjEERT_T0_E3buf)
                  20021b78    00000008                                   : locale.cpp.obj (.bss:_ZZNSt3__234_GLOBAL__N__10_locale_cpp_a71832034makeINS_7codecvtIcciEEjEERT_T0_E3buf)
                  20021b80    00000008                                   : locale.cpp.obj (.bss:_ZZNSt3__234_GLOBAL__N__10_locale_cpp_a71832034makeINS_7collateIcEEjEERT_T0_E3buf)
                  20021b88    00000008                                   : locale.cpp.obj (.bss:_ZZNSt3__234_GLOBAL__N__10_locale_cpp_a71832034makeINS_7collateIwEEjEERT_T0_E3buf)
                  20021b90    00000008                                   : locale.cpp.obj (.bss:_ZZNSt3__234_GLOBAL__N__10_locale_cpp_a71832034makeINS_7num_getIcNS_19istreambuf_iteratorIcNS_11char_traitsIcEEEEEEjEERT_T0_E3buf)
                  20021b98    00000008                                   : locale.cpp.obj (.bss:_ZZNSt3__234_GLOBAL__N__10_locale_cpp_a71832034makeINS_7num_getIwNS_19istreambuf_iteratorIwNS_11char_traitsIwEEEEEEjEERT_T0_E3buf)
                  20021ba0    00000008                                   : locale.cpp.obj (.bss:_ZZNSt3__234_GLOBAL__N__10_locale_cpp_a71832034makeINS_7num_putIcNS_19ostreambuf_iteratorIcNS_11char_traitsIcEEEEEEjEERT_T0_E3buf)
                  20021ba8    00000008                                   : locale.cpp.obj (.bss:_ZZNSt3__234_GLOBAL__N__10_locale_cpp_a71832034makeINS_7num_putIwNS_19ostreambuf_iteratorIwNS_11char_traitsIwEEEEEEjEERT_T0_E3buf)
                  20021bb0    00000008                                   : locale.cpp.obj (.bss:_ZZNSt3__234_GLOBAL__N__10_locale_cpp_a71832034makeINS_8messagesIcEEjEERT_T0_E3buf)
                  20021bb8    00000008                                   : locale.cpp.obj (.bss:_ZZNSt3__234_GLOBAL__N__10_locale_cpp_a71832034makeINS_8messagesIwEEjEERT_T0_E3buf)
                  20021bc0    00000008                                   : locale.cpp.obj (.bss:_ZZNSt3__234_GLOBAL__N__10_locale_cpp_a71832034makeINS_9money_getIcNS_19istreambuf_iteratorIcNS_11char_traitsIcEEEEEEjEERT_T0_E3buf)
                  20021bc8    00000008                                   : locale.cpp.obj (.bss:_ZZNSt3__234_GLOBAL__N__10_locale_cpp_a71832034makeINS_9money_getIwNS_19istreambuf_iteratorIwNS_11char_traitsIwEEEEEEjEERT_T0_E3buf)
                  20021bd0    00000008                                   : locale.cpp.obj (.bss:_ZZNSt3__234_GLOBAL__N__10_locale_cpp_a71832034makeINS_9money_putIcNS_19ostreambuf_iteratorIcNS_11char_traitsIcEEEEEEjEERT_T0_E3buf)
                  20021bd8    00000008                                   : locale.cpp.obj (.bss:_ZZNSt3__234_GLOBAL__N__10_locale_cpp_a71832034makeINS_9money_putIwNS_19ostreambuf_iteratorIwNS_11char_traitsIwEEEEEEjEERT_T0_E3buf)
                  20021be0    00000008     (.common:parmbuf)
                  20021be8    00000004     (.common:__dso_handle)
                  20021bec    00000001                                   : iostream.cpp.obj (.bss:_ZNSt3__219__start_std_streamsE)

MODULE SUMMARY

       Module                          code     ro data   rw data
       ------                          ----     -------   -------
    .\
       ZooKeeper.obj                   10864    1998      480    
       ComandCenter.obj                3800     456       4      
       TimeHandler.obj                 3412     452       4      
       Monitor.obj                     2616     440       16     
       GlobalConfig.obj                932      440       0      
       main.obj                        880      440       0      
       tm4c1294ncpdt_startup_ccs.obj   12       520       0      
       ISRMsgHandler.obj               524      0         4      
       UART0Driver.obj                 264      0         4      
       SysTickDriver.obj               136      0         4      
       Glue.obj                        24       0         0      
    +--+-------------------------------+--------+---------+---------+
       Total:                          23464    4746      516    
                                                                 
    C:\ti\ccsv8\tools\compiler\ti-cgt-arm_18.1.2.LTS\lib\rtsv7M4_T_le_v4SPD16_eabi.lib
       locale.cpp.obj                  52567    4613      2412   
       string.cpp.obj                  4983     181       0      
       _printfi.c.obj                  4863     0         0      
       iostream.cpp.obj                2944     482       1009   
       ios.cpp.obj                     2438     900       0      
       _scanfi.c.obj                   2800     16        0      
       strftime.c.obj                  1124     250       0      
       strtod.c.obj                    1120     200       0      
       strtof.c.obj                    968      88        0      
       memory.c.obj                    768      0         12     
       vla_alloc.c.obj                 548      0         28     
       strtoll.c.obj                   476      0         0      
       fd_add_t2.asm.obj               438      0         0      
       defs.c.obj                      0        0         416    
       trgmsg.c.obj                    108      0         288    
       none_mb.c.obj                   390      0         0      
       fwrite.c.obj                    384      0         0      
       strtoull.c.obj                  348      0         0      
       fd_div_t2.asm.obj               310      0         0      
       strtol.c.obj                    304      0         0      
       vec_newdel.c.obj                296      0         0      
       fputs.c.obj                     276      0         0      
       s_scalbn.c.obj                  272      0         0      
       strtoul.c.obj                   272      0         0      
       fd_cmp_t2.asm.obj               268      0         0      
       ctype.c.obj                     0        257       0      
       fd_mul_t2.asm.obj               252      0         0      
       typeinfo.c.obj                  54       193       0      
       write.c.obj                     40       0         200    
       setvbuf.c.obj                   220      0         0      
       sscanf.c.obj                    218      0         0      
       s_scalbnf.c.obj                 208      0         0      
       dtor_list.c.obj                 198      0         8      
       fflush.c.obj                    200      0         0      
       _io_perm.c.obj                  172      0         0      
       _bufread.c.obj                  156      0         0      
       memcpy_t2.asm.obj               156      0         0      
       ull_div_t2.asm.obj              150      0         0      
       snprintf.c.obj                  148      0         0      
       fputc.c.obj                     140      0         0      
       vsnprintf.c.obj                 136      0         0      
       fgetc.c.obj                     132      0         0      
       ungetc.c.obj                    128      0         0      
       memset_t2.asm.obj               122      0         0      
       fclose.c.obj                    116      0         0      
       getdevice.c.obj                 116      0         0      
       fd_tos_t2.asm.obj               110      0         0      
       fprintf.c.obj                   108      0         0      
       copy_decompress_lzss.c.obj      104      0         0      
       hostlseek.c.obj                 104      0         0      
       hostopen.c.obj                  96       0         8      
       hostrename.c.obj                104      0         0      
       fseek.c.obj                     100      0         0      
       s_frexp.c.obj                   100      0         0      
       autoinit.c.obj                  96       0         0      
       close.c.obj                     92       0         0      
       exit.c.obj                      76       0         12     
       hostread.c.obj                  88       0         0      
       hostwrite.c.obj                 88       0         0      
       ltoa.c.obj                      84       0         0      
       atoi.c.obj                      76       0         0      
       fd_toi_t2.asm.obj               72       0         0      
       new.cpp.obj                     66       0         4      
       hostclose.c.obj                 68       0         0      
       hostunlink.c.obj                68       0         0      
       locale_stdio.c.obj              62       0         0      
       boot_cortex_m.c.obj             56       0         0      
       strncpy.c.obj                   54       0         0      
       vasprintf.c.obj                 54       0         0      
       fopen.c.obj                     52       0         0      
       i_tofd_t2.asm.obj               46       0         0      
       locale_stdlib.c.obj             44       0         0      
       unlink.c.obj                    44       0         0      
       lseek.c.obj                     40       0         0      
       read.c.obj                      40       0         0      
       memcmp.c.obj                    36       0         0      
       memmov.c.obj                    36       0         0      
       memory.cpp.obj                  2        33        0      
       memchr.c.obj                    32       0         0      
       wctype.c.obj                    32       0         0      
       memccpy.c.obj                   28       0         0      
       asprintf.c.obj                  26       0         0      
       ll_mul_t2.asm.obj               24       0         0      
       mutex.cpp.obj                   24       0         0      
       strcmp.c.obj                    24       0         0      
       strrchr.c.obj                   24       0         0      
       stdlib_typeinfo.cpp.obj         2        21        0      
       guard.c.obj                     22       0         0      
       strchr.c.obj                    22       0         0      
       s_copysign.c.obj                20       0         0      
       strcpy.c.obj                    20       0         0      
       strlen.c.obj                    20       0         0      
       wmemset.c.obj                   20       0         0      
       vector.cpp.obj                  12       7         0      
       s_copysignf.c.obj               18       0         0      
       wcslen.c.obj                    18       0         0      
       tmzone.c.obj                    0        0         16     
       copy_decompress_none.c.obj      14       0         0      
       copy_zero_init.c.obj            12       0         0      
       errno.c.obj                     8        0         4      
       _lock.c.obj                     2        0         8      
       wmemcpy.c.obj                   6        0         0      
       wmemmove.c.obj                  6        0         0      
       xlocale.c.obj                   6        0         0      
       error.c.obj                     4        0         0      
       exception.cpp.obj               4        0         0      
       locale_time.c.obj               4        0         0      
       pre_init.c.obj                  4        0         0      
       div0.asm.obj                    2        0         0      
    +--+-------------------------------+--------+---------+---------+
       Total:                          85053    7241      4425   
                                                                 
       Heap:                           0        0         65536  
       Stack:                          0        0         65536  
       Linker Generated:               0        181       0      
    +--+-------------------------------+--------+---------+---------+
       Grand Total:                    108517   12168     136013 


LINKER GENERATED COPY TABLES

__TI_cinit_table @ 0001cee0 records: 2, size/record: 8, table size: 16
	.data: load addr=0001ce38, load size=00000091 bytes, run addr=20020000, run size=00001260 bytes, compression=lzss
	.bss: load addr=0001ced8, load size=00000008 bytes, run addr=20021260, run size=0000098d bytes, compression=zero_init


LINKER GENERATED HANDLER TABLE

__TI_handler_table @ 0001cecc records: 3, size/record: 4, table size: 12
	index: 0, handler: __TI_decompress_lzss
	index: 1, handler: __TI_decompress_none
	index: 2, handler: __TI_zero_init


GLOBAL SYMBOLS: SORTED ALPHABETICALLY BY Name 

address   name                                                                                                                                                                                     
-------   ----                                                                                                                                                                                     
0001a9d9  C$$EXIT                                                                                                                                                                                  
0001883b  C$$IO$$                                                                                                                                                                                  
00017e5d  HOSTclose                                                                                                                                                                                
00016849  HOSTlseek                                                                                                                                                                                
00016fed  HOSTopen                                                                                                                                                                                 
000173ed  HOSTread                                                                                                                                                                                 
000168b1  HOSTrename                                                                                                                                                                               
00017ea1  HOSTunlink                                                                                                                                                                               
00017445  HOSTwrite                                                                                                                                                                                
0001a661  ResetISR                                                                                                                                                                                 
0001ce18  SHT$$INIT_ARRAY$$Base                                                                                                                                                                    
0001ce34  SHT$$INIT_ARRAY$$Limit                                                                                                                                                                   
00019d1d  SysTick_ISR_C                                                                                                                                                                            
00019d11  UART0_ISR_C                                                                                                                                                                              
00009079  _Z14SingletonSetupv                                                                                                                                                                      
00009065  _Z15InterruptEnablem                                                                                                                                                                     
00009061  _Z21InterruptMasterEnablev                                                                                                                                                               
000180c1  _Z23__finalize_destructionsPP20a_needed_destructionPv                                                                                                                                    
00017ee5  _Z25__add_destruction_to_listPP20a_needed_destructionPFYvPvES2_S2_                                                                                                                       
00019333  _ZN10RingBufferIcE3GetEv                                                                                                                                                                 
0001a291  _ZN10__cxxabiv117__class_type_infoD0Ev                                                                                                                                                   
0001a81d  _ZN10__cxxabiv117__class_type_infoD1Ev                                                                                                                                                   
0001a81d  _ZN10__cxxabiv117__class_type_infoD2Ev                                                                                                                                                   
0001a29f  _ZN10__cxxabiv120__si_class_type_infoD0Ev                                                                                                                                                
0001a821  _ZN10__cxxabiv120__si_class_type_infoD1Ev                                                                                                                                                
0001a821  _ZN10__cxxabiv120__si_class_type_infoD2Ev                                                                                                                                                
0001a2ad  _ZN10__cxxabiv121__vmi_class_type_infoD0Ev                                                                                                                                               
0001a825  _ZN10__cxxabiv121__vmi_class_type_infoD1Ev                                                                                                                                               
0001a825  _ZN10__cxxabiv121__vmi_class_type_infoD2Ev                                                                                                                                               
0000451d  _ZN11TimeHandler10CheckAlarmEv                                                                                                                                                           
000042bb  _ZN11TimeHandler10FutureTimeER3smh                                                                                                                                                       
000045d5  _ZN11TimeHandler12TickTenthSecEv                                                                                                                                                         
0000450d  _ZN11TimeHandler13SingletonGrabEv                                                                                                                                                        
00004505  _ZN11TimeHandler14GetCurrentTimeEv                                                                                                                                                       
000044e7  _ZN11TimeHandler14GetTimeHandlerEv                                                                                                                                                       
0000448d  _ZN11TimeHandler16PrintCurrentDateEv                                                                                                                                                     
00004433  _ZN11TimeHandler16PrintCurrentTimeEv                                                                                                                                                     
00004307  _ZN11TimeHandler17PrintCurrentAlarmEv                                                                                                                                                    
20021250  _ZN11TimeHandler20TimeHandlerInstance_E                                                                                                                                                  
00004411  _ZN11TimeHandler7SetDateER3dmy                                                                                                                                                           
000043df  _ZN11TimeHandler7SetTimeER3smh                                                                                                                                                           
00004277  _ZN11TimeHandler7TickDayEv                                                                                                                                                               
000043b3  _ZN11TimeHandler7TickMinEv                                                                                                                                                               
000043c9  _ZN11TimeHandler7TickSecEv                                                                                                                                                               
00004375  _ZN11TimeHandler8SetAlarmER5alarm                                                                                                                                                        
000042a5  _ZN11TimeHandler8TickHourEv                                                                                                                                                              
0000423b  _ZN11TimeHandler8TickYearEv                                                                                                                                                              
0000425f  _ZN11TimeHandler9TickMonthEv                                                                                                                                                             
0000420d  _ZN11TimeHandlerC1Ev                                                                                                                                                                     
0000420d  _ZN11TimeHandlerC2Ev                                                                                                                                                                     
000123b5  _ZN11UART0Driver11UART0EnableEm                                                                                                                                                          
00012405  _ZN11UART0Driver12UART0HandlerEv                                                                                                                                                         
000123f9  _ZN11UART0Driver13SingletonGrabEv                                                                                                                                                        
000123db  _ZN11UART0Driver14GetUART0DriverEv                                                                                                                                                       
000123d3  _ZN11UART0Driver15JumpStartOutputEc                                                                                                                                                      
20021254  _ZN11UART0Driver20UART0DriverInstance_E                                                                                                                                                  
00012365  _ZN11UART0Driver9UART0InitEv                                                                                                                                                             
000123c1  _ZN11UART0DriverC1Ev                                                                                                                                                                     
000123c1  _ZN11UART0DriverC2Ev                                                                                                                                                                     
00002fa9  _ZN13CommandCenter10ZooCommandENSt3__212basic_stringIcNS0_11char_traitsIcEENS0_9allocatorIcEEEE                                                                                          
000036a5  _ZN13CommandCenter11DateCommandENSt3__212basic_stringIcNS0_11char_traitsIcEENS0_9allocatorIcEEEE                                                                                         
00003757  _ZN13CommandCenter11TimeCommandENSt3__212basic_stringIcNS0_11char_traitsIcEENS0_9allocatorIcEEEE                                                                                         
0000335f  _ZN13CommandCenter12AlarmCommandENSt3__212basic_stringIcNS0_11char_traitsIcEENS0_9allocatorIcEEEE                                                                                        
000034d5  _ZN13CommandCenter12ParseDateArgERNSt3__212basic_stringIcNS0_11char_traitsIcEENS0_9allocatorIcEEEER3dmy                                                                                  
00003205  _ZN13CommandCenter12ParseTimeArgERNSt3__212basic_stringIcNS0_11char_traitsIcEENS0_9allocatorIcEEEER3smh                                                                                  
00003815  _ZN13CommandCenter13HandleCommandENSt3__212basic_stringIcNS0_11char_traitsIcEENS0_9allocatorIcEEEE                                                                                       
000037ff  _ZN13CommandCenter13SingletonGrabEv                                                                                                                                                      
000037dd  _ZN13CommandCenter16GetCommandCenterEv                                                                                                                                                   
20021244  _ZN13CommandCenter22CommandCenterInstance_E                                                                                                                                              
0000347b  _ZN13CommandCenter7ToUpperERNSt3__212basic_stringIcNS0_11char_traitsIcEENS0_9allocatorIcEEEE                                                                                             
0000318b  _ZN13CommandCenter8SafeStoiENSt3__212basic_stringIcNS0_11char_traitsIcEENS0_9allocatorIcEEEE                                                                                             
000037c1  _ZN13CommandCenterC1Ev                                                                                                                                                                   
000037c1  _ZN13CommandCenterC2Ev                                                                                                                                                                   
0000be29  _ZN13ISRMsgHandler12GetFromQueueER7MsgTypeRc                                                                                                                                             
0000be19  _ZN13ISRMsgHandler13CheckISRQueueEv                                                                                                                                                      
0000bdf3  _ZN13ISRMsgHandler13GetOutputCharEv                                                                                                                                                      
0000bde7  _ZN13ISRMsgHandler13SingletonGrabEv                                                                                                                                                      
0000bd4d  _ZN13ISRMsgHandler14QueueOutputMsgENSt3__212basic_stringIcNS0_11char_traitsIcEENS0_9allocatorIcEEEE                                                                                      
0000bd2f  _ZN13ISRMsgHandler16GetISRMsgHandlerEv                                                                                                                                                   
0000bd1f  _ZN13ISRMsgHandler17OutputBufferEmptyEv                                                                                                                                                  
20021248  _ZN13ISRMsgHandler22ISRMsgHandlerInstance_E                                                                                                                                              
0000bce5  _ZN13ISRMsgHandler8QueueMsgE7MsgTypec                                                                                                                                                    
0000bc91  _ZN13ISRMsgHandlerC1Ev                                                                                                                                                                   
0000bc91  _ZN13ISRMsgHandlerC2Ev                                                                                                                                                                   
0000bc65  _ZN13ISRMsgHandlerD1Ev                                                                                                                                                                   
0000bc65  _ZN13ISRMsgHandlerD2Ev                                                                                                                                                                   
0001536d  _ZN13SysTickDriver11SysTickStopEv                                                                                                                                                        
00015313  _ZN13SysTickDriver12SysTickStartEv                                                                                                                                                       
00015361  _ZN13SysTickDriver13SingletonGrabEv                                                                                                                                                      
000152fd  _ZN13SysTickDriver13SysTickEnableEb                                                                                                                                                      
00015357  _ZN13SysTickDriver14SysTickHandlerEv                                                                                                                                                     
00015339  _ZN13SysTickDriver16GetSysTickDriverEv                                                                                                                                                   
2002124c  _ZN13SysTickDriver22SysTickDriverInstance_E                                                                                                                                              
0001531f  _ZN13SysTickDriverC1Ev                                                                                                                                                                   
0001531f  _ZN13SysTickDriverC2Ev                                                                                                                                                                   
00007511  _ZN7Monitor10GetMonitorEv                                                                                                                                                                
00007211  _ZN7Monitor10HandleUARTEc                                                                                                                                                                
00007491  _ZN7Monitor11CentralLoopEv                                                                                                                                                               
00007149  _ZN7Monitor12PrintNewLineEv                                                                                                                                                              
00007135  _ZN7Monitor13HandleSYSTICKEv                                                                                                                                                             
0000742b  _ZN7Monitor13PrintErrorMsgENSt3__212basic_stringIcNS0_11char_traitsIcEENS0_9allocatorIcEEEE                                                                                              
00007413  _ZN7Monitor13SingletonGrabEv                                                                                                                                                             
20021158  _ZN7Monitor16MonitorInstance_E                                                                                                                                                           
000073cf  _ZN7Monitor19CheckMessageHandlerER7MsgTypeRc                                                                                                                                             
00007071  _ZN7Monitor19RePrintOutputBufferEv                                                                                                                                                       
00007031  _ZN7Monitor8PrintMsgENSt3__212basic_stringIcNS0_11char_traitsIcEENS0_9allocatorIcEEEE                                                                                                    
00007007  _ZN7MonitorC1Ev                                                                                                                                                                          
00007007  _ZN7MonitorC2Ev                                                                                                                                                                          
00006fed  _ZN7MonitorD1Ev                                                                                                                                                                          
00006fed  _ZN7MonitorD2Ev                                                                                                                                                                          
000040cd  _ZNK11TimeHandler12CreateDMYStrER3dmy                                                                                                                                                    
00003f35  _ZNK11TimeHandler12CreateSMHStrER3smh                                                                                                                                                    
00003e41  _ZNK11TimeHandler13CheckLeapYearEt                                                                                                                                                       
00003ea5  _ZNK11TimeHandler14CheckValidDateER3dmy                                                                                                                                                  
00003e11  _ZNK11TimeHandler14CheckValidTimeER3smh                                                                                                                                                  
00003e05  _ZNK11TimeHandler16CheckAlarmActiveEv                                                                                                                                                    
00003d01  _ZNK11TimeHandler18LexicalIntToStringEth                                                                                                                                                 
00017f29  _ZNKSt3__210__time_put8__do_putEPcRS1_PK2tmcc                                                                                                                                            
00014939  _ZNKSt3__210__time_put8__do_putEPwRS1_PK2tmcc                                                                                                                                            
000199bb  _ZNKSt3__210moneypunctIcLb0EE11do_groupingEv                                                                                                                                             
000197bd  _ZNKSt3__210moneypunctIcLb0EE13do_neg_formatEv                                                                                                                                           
000197db  _ZNKSt3__210moneypunctIcLb0EE13do_pos_formatEv                                                                                                                                           
000199d7  _ZNKSt3__210moneypunctIcLb0EE14do_curr_symbolEv                                                                                                                                          
0001a82d  _ZNKSt3__210moneypunctIcLb0EE14do_frac_digitsEv                                                                                                                                          
0001a831  _ZNKSt3__210moneypunctIcLb0EE16do_decimal_pointEv                                                                                                                                        
000197f9  _ZNKSt3__210moneypunctIcLb0EE16do_negative_signEv                                                                                                                                        
000199f3  _ZNKSt3__210moneypunctIcLb0EE16do_positive_signEv                                                                                                                                        
0001a835  _ZNKSt3__210moneypunctIcLb0EE16do_thousands_sepEv                                                                                                                                        
00019a0f  _ZNKSt3__210moneypunctIcLb1EE11do_groupingEv                                                                                                                                             
00019817  _ZNKSt3__210moneypunctIcLb1EE13do_neg_formatEv                                                                                                                                           
00019835  _ZNKSt3__210moneypunctIcLb1EE13do_pos_formatEv                                                                                                                                           
00019a2b  _ZNKSt3__210moneypunctIcLb1EE14do_curr_symbolEv                                                                                                                                          
0001a839  _ZNKSt3__210moneypunctIcLb1EE14do_frac_digitsEv                                                                                                                                          
0001a83d  _ZNKSt3__210moneypunctIcLb1EE16do_decimal_pointEv                                                                                                                                        
00019853  _ZNKSt3__210moneypunctIcLb1EE16do_negative_signEv                                                                                                                                        
00019a47  _ZNKSt3__210moneypunctIcLb1EE16do_positive_signEv                                                                                                                                        
0001a841  _ZNKSt3__210moneypunctIcLb1EE16do_thousands_sepEv                                                                                                                                        
00019a63  _ZNKSt3__210moneypunctIwLb0EE11do_groupingEv                                                                                                                                             
00019871  _ZNKSt3__210moneypunctIwLb0EE13do_neg_formatEv                                                                                                                                           
0001988f  _ZNKSt3__210moneypunctIwLb0EE13do_pos_formatEv                                                                                                                                           
00019a7f  _ZNKSt3__210moneypunctIwLb0EE14do_curr_symbolEv                                                                                                                                          
0001a845  _ZNKSt3__210moneypunctIwLb0EE14do_frac_digitsEv                                                                                                                                          
0001a781  _ZNKSt3__210moneypunctIwLb0EE16do_decimal_pointEv                                                                                                                                        
000198ad  _ZNKSt3__210moneypunctIwLb0EE16do_negative_signEv                                                                                                                                        
00019a9b  _ZNKSt3__210moneypunctIwLb0EE16do_positive_signEv                                                                                                                                        
0001a787  _ZNKSt3__210moneypunctIwLb0EE16do_thousands_sepEv                                                                                                                                        
00019ab7  _ZNKSt3__210moneypunctIwLb1EE11do_groupingEv                                                                                                                                             
000198cb  _ZNKSt3__210moneypunctIwLb1EE13do_neg_formatEv                                                                                                                                           
000198e9  _ZNKSt3__210moneypunctIwLb1EE13do_pos_formatEv                                                                                                                                           
00019ad3  _ZNKSt3__210moneypunctIwLb1EE14do_curr_symbolEv                                                                                                                                          
0001a849  _ZNKSt3__210moneypunctIwLb1EE14do_frac_digitsEv                                                                                                                                          
0001a78d  _ZNKSt3__210moneypunctIwLb1EE16do_decimal_pointEv                                                                                                                                        
00019907  _ZNKSt3__210moneypunctIwLb1EE16do_negative_signEv                                                                                                                                        
00019aef  _ZNKSt3__210moneypunctIwLb1EE16do_positive_signEv                                                                                                                                        
0001a793  _ZNKSt3__210moneypunctIwLb1EE16do_thousands_sepEv                                                                                                                                        
0001579d  _ZNKSt3__212basic_stringIcNS_11char_traitsIcEENS_9allocatorIcEEE7compareEjjPKcj                                                                                                          
000170ad  _ZNKSt3__219istreambuf_iteratorIcNS_11char_traitsIcEEE5equalERKS3_                                                                                                                       
0001710b  _ZNKSt3__219istreambuf_iteratorIwNS_11char_traitsIwEEE5equalERKS3_                                                                                                                       
00016919  _ZNKSt3__220__time_get_c_storageIcE3__XEv                                                                                                                                                
00015491  _ZNKSt3__220__time_get_c_storageIcE3__cEv                                                                                                                                                
00015d69  _ZNKSt3__220__time_get_c_storageIcE3__rEv                                                                                                                                                
00016981  _ZNKSt3__220__time_get_c_storageIcE3__xEv                                                                                                                                                
000150cd  _ZNKSt3__220__time_get_c_storageIcE7__am_pmEv                                                                                                                                            
00010379  _ZNKSt3__220__time_get_c_storageIcE7__weeksEv                                                                                                                                            
0000be71  _ZNKSt3__220__time_get_c_storageIcE8__monthsEv                                                                                                                                           
000134a1  _ZNKSt3__220__time_get_c_storageIwE3__XEv                                                                                                                                                
00012c01  _ZNKSt3__220__time_get_c_storageIwE3__cEv                                                                                                                                                
000133cd  _ZNKSt3__220__time_get_c_storageIwE3__rEv                                                                                                                                                
00013571  _ZNKSt3__220__time_get_c_storageIwE3__xEv                                                                                                                                                
00014d5d  _ZNKSt3__220__time_get_c_storageIwE7__am_pmEv                                                                                                                                            
0000e195  _ZNKSt3__220__time_get_c_storageIwE7__weeksEv                                                                                                                                            
0000a959  _ZNKSt3__220__time_get_c_storageIwE8__monthsEv                                                                                                                                           
0001a541  _ZNKSt3__220__vector_base_commonILb1EE20__throw_length_errorEv                                                                                                                           
0001a54d  _ZNKSt3__221__basic_string_commonILb1EE20__throw_length_errorEv                                                                                                                          
0001a559  _ZNKSt3__221__basic_string_commonILb1EE20__throw_out_of_rangeEv                                                                                                                          
00005b87  _ZNKSt3__222__compressed_pair_elemINS_12basic_stringIcNS_11char_traitsIcEENS_9allocatorIcEEE5__repELi0ELb0EE5__getEv                                                                     
000064df  _ZNKSt3__222__compressed_pair_elemINS_12basic_stringIwNS_11char_traitsIwEENS_9allocatorIwEEE5__repELi0ELb0EE5__getEv                                                                     
000172dd  _ZNKSt3__234_GLOBAL__N__10_string_cpp_11932bae14initial_stringINS_12basic_stringIcNS_11char_traitsIcEENS_9allocatorIcEEEEiLb0EEclEv                                                      
0001856d  _ZNKSt3__25ctypeIcE10do_tolowerEPcPKc                                                                                                                                                    
00019359  _ZNKSt3__25ctypeIcE10do_tolowerEc                                                                                                                                                        
000185a5  _ZNKSt3__25ctypeIcE10do_toupperEPcPKc                                                                                                                                                    
0001937d  _ZNKSt3__25ctypeIcE10do_toupperEc                                                                                                                                                        
0001a679  _ZNKSt3__25ctypeIcE5widenEPKcS3_Pc                                                                                                                                                       
0001a683  _ZNKSt3__25ctypeIcE5widenEc                                                                                                                                                              
0001a68d  _ZNKSt3__25ctypeIcE6narrowEcc                                                                                                                                                            
0001a697  _ZNKSt3__25ctypeIcE7toupperEc                                                                                                                                                            
00019d29  _ZNKSt3__25ctypeIcE8do_widenEPKcS3_Pc                                                                                                                                                    
0001a84d  _ZNKSt3__25ctypeIcE8do_widenEc                                                                                                                                                           
00019551  _ZNKSt3__25ctypeIcE9do_narrowEPKcS3_cPc                                                                                                                                                  
0001a565  _ZNKSt3__25ctypeIcE9do_narrowEcc                                                                                                                                                         
0001912d  _ZNKSt3__25ctypeIwE10do_scan_isEhPKwS3_                                                                                                                                                  
000185dd  _ZNKSt3__25ctypeIwE10do_tolowerEPwPKw                                                                                                                                                    
000193a1  _ZNKSt3__25ctypeIwE10do_tolowerEw                                                                                                                                                        
00018615  _ZNKSt3__25ctypeIwE10do_toupperEPwPKw                                                                                                                                                    
00019573  _ZNKSt3__25ctypeIwE10do_toupperEw                                                                                                                                                        
00019157  _ZNKSt3__25ctypeIwE11do_scan_notEhPKwS3_                                                                                                                                                 
0001a6a1  _ZNKSt3__25ctypeIwE2isEhw                                                                                                                                                                
00018df9  _ZNKSt3__25ctypeIwE5do_isEPKwS3_Ph                                                                                                                                                       
00019b0b  _ZNKSt3__25ctypeIwE5do_isEhw                                                                                                                                                             
0001a6ab  _ZNKSt3__25ctypeIwE5widenEPKcS3_Pw                                                                                                                                                       
0001a6b5  _ZNKSt3__25ctypeIwE5widenEc                                                                                                                                                              
00019d41  _ZNKSt3__25ctypeIwE8do_widenEPKcS3_Pw                                                                                                                                                    
0001a851  _ZNKSt3__25ctypeIwE8do_widenEc                                                                                                                                                           
000193c5  _ZNKSt3__25ctypeIwE9do_narrowEPKwS3_cPc                                                                                                                                                  
0001a571  _ZNKSt3__25ctypeIwE9do_narrowEwc                                                                                                                                                         
0001a719  _ZNKSt3__26locale5__imp9use_facetEl                                                                                                                                                      
00019ed9  _ZNKSt3__26locale9use_facetERNS0_2idE                                                                                                                                                    
0001a799  _ZNKSt3__26vectorIPNS_6locale5facetENS_15__sso_allocatorIS3_Lj28EEEE8max_sizeEv                                                                                                          
0001a721  _ZNKSt3__27codecvtIDiciE10do_unshiftERiPcS3_RS3_                                                                                                                                         
0001a855  _ZNKSt3__27codecvtIDiciE11do_encodingEv                                                                                                                                                  
0001a859  _ZNKSt3__27codecvtIDiciE13do_max_lengthEv                                                                                                                                                
0001a85d  _ZNKSt3__27codecvtIDiciE16do_always_noconvEv                                                                                                                                             
00017f6d  _ZNKSt3__27codecvtIDiciE5do_inERiPKcS4_RS4_PDiS6_RS6_                                                                                                                                    
00017a79  _ZNKSt3__27codecvtIDiciE6do_outERiPKDiS4_RS4_PcS6_RS6_                                                                                                                                   
00019d59  _ZNKSt3__27codecvtIDiciE9do_lengthERiPKcS4_j                                                                                                                                             
0001a729  _ZNKSt3__27codecvtIDsciE10do_unshiftERiPcS3_RS3_                                                                                                                                         
0001a861  _ZNKSt3__27codecvtIDsciE11do_encodingEv                                                                                                                                                  
0001a865  _ZNKSt3__27codecvtIDsciE13do_max_lengthEv                                                                                                                                                
0001a869  _ZNKSt3__27codecvtIDsciE16do_always_noconvEv                                                                                                                                             
00017fb1  _ZNKSt3__27codecvtIDsciE5do_inERiPKcS4_RS4_PDsS6_RS6_                                                                                                                                    
00017ac1  _ZNKSt3__27codecvtIDsciE6do_outERiPKDsS4_RS4_PcS6_RS6_                                                                                                                                   
00019d71  _ZNKSt3__27codecvtIDsciE9do_lengthERiPKcS4_j                                                                                                                                             
0001a731  _ZNKSt3__27codecvtIcciE10do_unshiftERiPcS3_RS3_                                                                                                                                          
0001a86d  _ZNKSt3__27codecvtIcciE11do_encodingEv                                                                                                                                                   
0001a871  _ZNKSt3__27codecvtIcciE13do_max_lengthEv                                                                                                                                                 
0001a875  _ZNKSt3__27codecvtIcciE16do_always_noconvEv                                                                                                                                              
000195fb  _ZNKSt3__27codecvtIcciE3outERiPKcS4_RS4_PcS6_RS6_                                                                                                                                        
0001a2bb  _ZNKSt3__27codecvtIcciE5do_inERiPKcS4_RS4_PcS6_RS6_                                                                                                                                      
0001a2c9  _ZNKSt3__27codecvtIcciE6do_outERiPKcS4_RS4_PcS6_RS6_                                                                                                                                     
00019fad  _ZNKSt3__27codecvtIcciE9do_lengthERiPKcS4_j                                                                                                                                              
00017b09  _ZNKSt3__27codecvtIwciE10do_unshiftERiPcS3_RS3_                                                                                                                                          
00018e27  _ZNKSt3__27codecvtIwciE11do_encodingEv                                                                                                                                                   
0001a6bf  _ZNKSt3__27codecvtIwciE13always_noconvEv                                                                                                                                                 
0001a57d  _ZNKSt3__27codecvtIwciE13do_max_lengthEv                                                                                                                                                 
0001a879  _ZNKSt3__27codecvtIwciE16do_always_noconvEv                                                                                                                                              
0001961b  _ZNKSt3__27codecvtIwciE3outERiPKwS4_RS4_PcS6_RS6_                                                                                                                                        
00011659  _ZNKSt3__27codecvtIwciE5do_inERiPKcS4_RS4_PwS6_RS6_                                                                                                                                      
000119c1  _ZNKSt3__27codecvtIwciE6do_outERiPKwS4_RS4_PcS6_RS6_                                                                                                                                     
00017b51  _ZNKSt3__27codecvtIwciE9do_lengthERiPKcS4_j                                                                                                                                              
0001864d  _ZNKSt3__27collateIcE10do_compareEPKcS3_S3_S3_                                                                                                                                           
00017225  _ZNKSt3__27collateIcE12do_transformEPKcS3_                                                                                                                                               
00018b57  _ZNKSt3__27collateIcE7do_hashEPKcS3_                                                                                                                                                     
000184f9  _ZNKSt3__27collateIwE10do_compareEPKwS3_S3_S3_                                                                                                                                           
00015515  _ZNKSt3__27collateIwE12do_transformEPKwS3_                                                                                                                                               
00018a5d  _ZNKSt3__27collateIwE7do_hashEPKwS3_                                                                                                                                                     
0000e855  _ZNKSt3__27num_getIcNS_19istreambuf_iteratorIcNS_11char_traitsIcEEEEE15__do_get_signedIlEES4_S4_S4_RNS_8ios_baseERjRT_                                                                   
0000e345  _ZNKSt3__27num_getIcNS_19istreambuf_iteratorIcNS_11char_traitsIcEEEEE15__do_get_signedIxEES4_S4_S4_RNS_8ios_baseERjRT_                                                                   
0000ea01  _ZNKSt3__27num_getIcNS_19istreambuf_iteratorIcNS_11char_traitsIcEEEEE17__do_get_unsignedIjEES4_S4_S4_RNS_8ios_baseERjRT_                                                                 
0000ebad  _ZNKSt3__27num_getIcNS_19istreambuf_iteratorIcNS_11char_traitsIcEEEEE17__do_get_unsignedImEES4_S4_S4_RNS_8ios_baseERjRT_                                                                 
0000ed59  _ZNKSt3__27num_getIcNS_19istreambuf_iteratorIcNS_11char_traitsIcEEEEE17__do_get_unsignedItEES4_S4_S4_RNS_8ios_baseERjRT_                                                                 
0000e4f5  _ZNKSt3__27num_getIcNS_19istreambuf_iteratorIcNS_11char_traitsIcEEEEE17__do_get_unsignedIyEES4_S4_S4_RNS_8ios_baseERjRT_                                                                 
0000ef05  _ZNKSt3__27num_getIcNS_19istreambuf_iteratorIcNS_11char_traitsIcEEEEE23__do_get_floating_pointIdEES4_S4_S4_RNS_8ios_baseERjRT_                                                           
0000f0b1  _ZNKSt3__27num_getIcNS_19istreambuf_iteratorIcNS_11char_traitsIcEEEEE23__do_get_floating_pointIeEES4_S4_S4_RNS_8ios_baseERjRT_                                                           
0000f5b1  _ZNKSt3__27num_getIcNS_19istreambuf_iteratorIcNS_11char_traitsIcEEEEE23__do_get_floating_pointIfEES4_S4_S4_RNS_8ios_baseERjRT_                                                           
0000e6a5  _ZNKSt3__27num_getIcNS_19istreambuf_iteratorIcNS_11char_traitsIcEEEEE6do_getES4_S4_RNS_8ios_baseERjRPv                                                                                   
00012ead  _ZNKSt3__27num_getIcNS_19istreambuf_iteratorIcNS_11char_traitsIcEEEEE6do_getES4_S4_RNS_8ios_baseERjRb                                                                                    
0001a0cf  _ZNKSt3__27num_getIcNS_19istreambuf_iteratorIcNS_11char_traitsIcEEEEE6do_getES4_S4_RNS_8ios_baseERjRd                                                                                    
0001a0df  _ZNKSt3__27num_getIcNS_19istreambuf_iteratorIcNS_11char_traitsIcEEEEE6do_getES4_S4_RNS_8ios_baseERjRe                                                                                    
0001a0ef  _ZNKSt3__27num_getIcNS_19istreambuf_iteratorIcNS_11char_traitsIcEEEEE6do_getES4_S4_RNS_8ios_baseERjRf                                                                                    
0001a0ff  _ZNKSt3__27num_getIcNS_19istreambuf_iteratorIcNS_11char_traitsIcEEEEE6do_getES4_S4_RNS_8ios_baseERjRl                                                                                    
0001a10f  _ZNKSt3__27num_getIcNS_19istreambuf_iteratorIcNS_11char_traitsIcEEEEE6do_getES4_S4_RNS_8ios_baseERjRm                                                                                    
0001a11f  _ZNKSt3__27num_getIcNS_19istreambuf_iteratorIcNS_11char_traitsIcEEEEE6do_getES4_S4_RNS_8ios_baseERjRt                                                                                    
0001a12f  _ZNKSt3__27num_getIcNS_19istreambuf_iteratorIcNS_11char_traitsIcEEEEE6do_getES4_S4_RNS_8ios_baseERjRx                                                                                    
0001a13f  _ZNKSt3__27num_getIcNS_19istreambuf_iteratorIcNS_11char_traitsIcEEEEE6do_getES4_S4_RNS_8ios_baseERjRy                                                                                    
0001a14f  _ZNKSt3__27num_getIcNS_19istreambuf_iteratorIcNS_11char_traitsIcEEEEE6do_getES4_S4_RNS_8ios_baseERjS8_                                                                                   
0000ca11  _ZNKSt3__27num_getIwNS_19istreambuf_iteratorIwNS_11char_traitsIwEEEEE15__do_get_signedIlEES4_S4_S4_RNS_8ios_baseERjRT_                                                                   
0000cbe9  _ZNKSt3__27num_getIwNS_19istreambuf_iteratorIwNS_11char_traitsIwEEEEE15__do_get_signedIxEES4_S4_S4_RNS_8ios_baseERjRT_                                                                   
0000cdc1  _ZNKSt3__27num_getIwNS_19istreambuf_iteratorIwNS_11char_traitsIwEEEEE17__do_get_unsignedIjEES4_S4_S4_RNS_8ios_baseERjRT_                                                                 
0000cf99  _ZNKSt3__27num_getIwNS_19istreambuf_iteratorIwNS_11char_traitsIwEEEEE17__do_get_unsignedImEES4_S4_S4_RNS_8ios_baseERjRT_                                                                 
0000d171  _ZNKSt3__27num_getIwNS_19istreambuf_iteratorIwNS_11char_traitsIwEEEEE17__do_get_unsignedItEES4_S4_S4_RNS_8ios_baseERjRT_                                                                 
0000d349  _ZNKSt3__27num_getIwNS_19istreambuf_iteratorIwNS_11char_traitsIwEEEEE17__do_get_unsignedIyEES4_S4_S4_RNS_8ios_baseERjRT_                                                                 
0000f25d  _ZNKSt3__27num_getIwNS_19istreambuf_iteratorIwNS_11char_traitsIwEEEEE23__do_get_floating_pointIdEES4_S4_S4_RNS_8ios_baseERjRT_                                                           
0000f407  _ZNKSt3__27num_getIwNS_19istreambuf_iteratorIwNS_11char_traitsIwEEEEE23__do_get_floating_pointIeEES4_S4_S4_RNS_8ios_baseERjRT_                                                           
0000f759  _ZNKSt3__27num_getIwNS_19istreambuf_iteratorIwNS_11char_traitsIwEEEEE23__do_get_floating_pointIfEES4_S4_S4_RNS_8ios_baseERjRT_                                                           
0000dc55  _ZNKSt3__27num_getIwNS_19istreambuf_iteratorIwNS_11char_traitsIwEEEEE6do_getES4_S4_RNS_8ios_baseERjRPv                                                                                   
00012f89  _ZNKSt3__27num_getIwNS_19istreambuf_iteratorIwNS_11char_traitsIwEEEEE6do_getES4_S4_RNS_8ios_baseERjRb                                                                                    
0001a15f  _ZNKSt3__27num_getIwNS_19istreambuf_iteratorIwNS_11char_traitsIwEEEEE6do_getES4_S4_RNS_8ios_baseERjRd                                                                                    
0001a16f  _ZNKSt3__27num_getIwNS_19istreambuf_iteratorIwNS_11char_traitsIwEEEEE6do_getES4_S4_RNS_8ios_baseERjRe                                                                                    
0001a17f  _ZNKSt3__27num_getIwNS_19istreambuf_iteratorIwNS_11char_traitsIwEEEEE6do_getES4_S4_RNS_8ios_baseERjRf                                                                                    
0001a18f  _ZNKSt3__27num_getIwNS_19istreambuf_iteratorIwNS_11char_traitsIwEEEEE6do_getES4_S4_RNS_8ios_baseERjRl                                                                                    
0001a19f  _ZNKSt3__27num_getIwNS_19istreambuf_iteratorIwNS_11char_traitsIwEEEEE6do_getES4_S4_RNS_8ios_baseERjRm                                                                                    
0001a1af  _ZNKSt3__27num_getIwNS_19istreambuf_iteratorIwNS_11char_traitsIwEEEEE6do_getES4_S4_RNS_8ios_baseERjRt                                                                                    
0001a1bf  _ZNKSt3__27num_getIwNS_19istreambuf_iteratorIwNS_11char_traitsIwEEEEE6do_getES4_S4_RNS_8ios_baseERjRx                                                                                    
0001a1cf  _ZNKSt3__27num_getIwNS_19istreambuf_iteratorIwNS_11char_traitsIwEEEEE6do_getES4_S4_RNS_8ios_baseERjRy                                                                                    
0001a1df  _ZNKSt3__27num_getIwNS_19istreambuf_iteratorIwNS_11char_traitsIwEEEEE6do_getES4_S4_RNS_8ios_baseERjS8_                                                                                   
000149d1  _ZNKSt3__27num_putIcNS_19ostreambuf_iteratorIcNS_11char_traitsIcEEEEE6do_putES4_RNS_8ios_baseEcPKv                                                                                       
00014a69  _ZNKSt3__27num_putIcNS_19ostreambuf_iteratorIcNS_11char_traitsIcEEEEE6do_putES4_RNS_8ios_baseEcb                                                                                         
00010a0d  _ZNKSt3__27num_putIcNS_19ostreambuf_iteratorIcNS_11char_traitsIcEEEEE6do_putES4_RNS_8ios_baseEcd                                                                                         
00010dcd  _ZNKSt3__27num_putIcNS_19ostreambuf_iteratorIcNS_11char_traitsIcEEEEE6do_putES4_RNS_8ios_baseEce                                                                                         
00013bc1  _ZNKSt3__27num_putIcNS_19ostreambuf_iteratorIcNS_11char_traitsIcEEEEE6do_putES4_RNS_8ios_baseEcl                                                                                         
00013c81  _ZNKSt3__27num_putIcNS_19ostreambuf_iteratorIcNS_11char_traitsIcEEEEE6do_putES4_RNS_8ios_baseEcm                                                                                         
00013711  _ZNKSt3__27num_putIcNS_19ostreambuf_iteratorIcNS_11char_traitsIcEEEEE6do_putES4_RNS_8ios_baseEcx                                                                                         
00013a39  _ZNKSt3__27num_putIcNS_19ostreambuf_iteratorIcNS_11char_traitsIcEEEEE6do_putES4_RNS_8ios_baseEcy                                                                                         
0001462d  _ZNKSt3__27num_putIwNS_19ostreambuf_iteratorIwNS_11char_traitsIwEEEEE6do_putES4_RNS_8ios_baseEwPKv                                                                                       
000146c9  _ZNKSt3__27num_putIwNS_19ostreambuf_iteratorIwNS_11char_traitsIwEEEEE6do_putES4_RNS_8ios_baseEwb                                                                                         
00010f09  _ZNKSt3__27num_putIwNS_19ostreambuf_iteratorIwNS_11char_traitsIwEEEEE6do_putES4_RNS_8ios_baseEwd                                                                                         
00010b4d  _ZNKSt3__27num_putIwNS_19ostreambuf_iteratorIwNS_11char_traitsIwEEEEE6do_putES4_RNS_8ios_baseEwe                                                                                         
00013d41  _ZNKSt3__27num_putIwNS_19ostreambuf_iteratorIwNS_11char_traitsIwEEEEE6do_putES4_RNS_8ios_baseEwl                                                                                         
00013e01  _ZNKSt3__27num_putIwNS_19ostreambuf_iteratorIwNS_11char_traitsIwEEEEE6do_putES4_RNS_8ios_baseEwm                                                                                         
000137dd  _ZNKSt3__27num_putIwNS_19ostreambuf_iteratorIwNS_11char_traitsIwEEEEE6do_putES4_RNS_8ios_baseEwx                                                                                         
00013afd  _ZNKSt3__27num_putIwNS_19ostreambuf_iteratorIwNS_11char_traitsIwEEEEE6do_putES4_RNS_8ios_baseEwy                                                                                         
0001a79f  _ZNKSt3__28ios_base6getlocEv                                                                                                                                                             
0001a7a5  _ZNKSt3__28messagesIcE6do_getEiiiRKNS_12basic_stringIcNS_11char_traitsIcEENS_9allocatorIcEEEE                                                                                            
0001a7ab  _ZNKSt3__28messagesIcE7do_openERKNS_12basic_stringIcNS_11char_traitsIcEENS_9allocatorIcEEEERKNS_6localeE                                                                                 
0000a6c3  _ZNKSt3__28messagesIcE8do_closeEi                                                                                                                                                        
0001a7b1  _ZNKSt3__28messagesIwE6do_getEiiiRKNS_12basic_stringIwNS_11char_traitsIwEENS_9allocatorIwEEEE                                                                                            
0001a7b7  _ZNKSt3__28messagesIwE7do_openERKNS_12basic_stringIcNS_11char_traitsIcEENS_9allocatorIcEEEERKNS_6localeE                                                                                 
0000e193  _ZNKSt3__28messagesIwE8do_closeEi                                                                                                                                                        
0001a7bd  _ZNKSt3__28numpunctIcE11do_groupingEv                                                                                                                                                    
000195d9  _ZNKSt3__28numpunctIcE11do_truenameEv                                                                                                                                                    
00019275  _ZNKSt3__28numpunctIcE12do_falsenameEv                                                                                                                                                   
0001a6c9  _ZNKSt3__28numpunctIcE13thousands_sepEv                                                                                                                                                  
0001a87d  _ZNKSt3__28numpunctIcE16do_decimal_pointEv                                                                                                                                               
0001a881  _ZNKSt3__28numpunctIcE16do_thousands_sepEv                                                                                                                                               
0001a6d3  _ZNKSt3__28numpunctIcE8groupingEv                                                                                                                                                        
0001a6dd  _ZNKSt3__28numpunctIcE9falsenameEv                                                                                                                                                       
0001a7c3  _ZNKSt3__28numpunctIwE11do_groupingEv                                                                                                                                                    
00015159  _ZNKSt3__28numpunctIwE11do_truenameEv                                                                                                                                                    
000151e5  _ZNKSt3__28numpunctIwE12do_falsenameEv                                                                                                                                                   
0001a6e7  _ZNKSt3__28numpunctIwE13thousands_sepEv                                                                                                                                                  
0001a885  _ZNKSt3__28numpunctIwE16do_decimal_pointEv                                                                                                                                               
0001a889  _ZNKSt3__28numpunctIwE16do_thousands_sepEv                                                                                                                                               
0001a6f1  _ZNKSt3__28numpunctIwE8groupingEv                                                                                                                                                        
0001a6fb  _ZNKSt3__28numpunctIwE9falsenameEv                                                                                                                                                       
00018e55  _ZNKSt3__28time_getIcNS_19istreambuf_iteratorIcNS_11char_traitsIcEEEEE10__get_hourERiRS4_S4_RjRKNS_5ctypeIcEE                                                                            
00018685  _ZNKSt3__28time_getIcNS_19istreambuf_iteratorIcNS_11char_traitsIcEEEEE10__get_yearERiRS4_S4_RjRKNS_5ctypeIcEE                                                                            
0001581b  _ZNKSt3__28time_getIcNS_19istreambuf_iteratorIcNS_11char_traitsIcEEEEE11__get_am_pmERiRS4_S4_RjRKNS_5ctypeIcEE                                                                           
00018b87  _ZNKSt3__28time_getIcNS_19istreambuf_iteratorIcNS_11char_traitsIcEEEEE11__get_monthERiRS4_S4_RjRKNS_5ctypeIcEE                                                                           
0001929b  _ZNKSt3__28time_getIcNS_19istreambuf_iteratorIcNS_11char_traitsIcEEEEE11__get_year4ERiRS4_S4_RjRKNS_5ctypeIcEE                                                                           
000174f5  _ZNKSt3__28time_getIcNS_19istreambuf_iteratorIcNS_11char_traitsIcEEEEE11do_get_dateES4_S4_RNS_8ios_baseERjP2tm                                                                           
00018959  _ZNKSt3__28time_getIcNS_19istreambuf_iteratorIcNS_11char_traitsIcEEEEE11do_get_timeES4_S4_RNS_8ios_baseERjP2tm                                                                           
00018145  _ZNKSt3__28time_getIcNS_19istreambuf_iteratorIcNS_11char_traitsIcEEEEE11do_get_yearES4_S4_RNS_8ios_baseERjP2tm                                                                           
00018e83  _ZNKSt3__28time_getIcNS_19istreambuf_iteratorIcNS_11char_traitsIcEEEEE12__get_minuteERiRS4_S4_RjRKNS_5ctypeIcEE                                                                          
00018eb1  _ZNKSt3__28time_getIcNS_19istreambuf_iteratorIcNS_11char_traitsIcEEEEE12__get_secondERiRS4_S4_RjRKNS_5ctypeIcEE                                                                          
00018a8f  _ZNKSt3__28time_getIcNS_19istreambuf_iteratorIcNS_11char_traitsIcEEEEE13__get_12_hourERiRS4_S4_RjRKNS_5ctypeIcEE                                                                         
000169e9  _ZNKSt3__28time_getIcNS_19istreambuf_iteratorIcNS_11char_traitsIcEEEEE13__get_percentERS4_S4_RjRKNS_5ctypeIcEE                                                                           
00018edf  _ZNKSt3__28time_getIcNS_19istreambuf_iteratorIcNS_11char_traitsIcEEEEE13__get_weekdayERiRS4_S4_RjRKNS_5ctypeIcEE                                                                         
0001a88d  _ZNKSt3__28time_getIcNS_19istreambuf_iteratorIcNS_11char_traitsIcEEEEE13do_date_orderEv                                                                                                  
00018185  _ZNKSt3__28time_getIcNS_19istreambuf_iteratorIcNS_11char_traitsIcEEEEE14do_get_weekdayES4_S4_RNS_8ios_baseERjP2tm                                                                        
00017cb9  _ZNKSt3__28time_getIcNS_19istreambuf_iteratorIcNS_11char_traitsIcEEEEE15__get_monthnameERiRS4_S4_RjRKNS_5ctypeIcEE                                                                       
000181c5  _ZNKSt3__28time_getIcNS_19istreambuf_iteratorIcNS_11char_traitsIcEEEEE16do_get_monthnameES4_S4_RNS_8ios_baseERjP2tm                                                                      
00017cff  _ZNKSt3__28time_getIcNS_19istreambuf_iteratorIcNS_11char_traitsIcEEEEE17__get_weekdaynameERiRS4_S4_RjRKNS_5ctypeIcEE                                                                     
0001749d  _ZNKSt3__28time_getIcNS_19istreambuf_iteratorIcNS_11char_traitsIcEEEEE17__get_white_spaceERS4_S4_RjRKNS_5ctypeIcEE                                                                       
00018bb7  _ZNKSt3__28time_getIcNS_19istreambuf_iteratorIcNS_11char_traitsIcEEEEE18__get_day_year_numERiRS4_S4_RjRKNS_5ctypeIcEE                                                                    
0000fa91  _ZNKSt3__28time_getIcNS_19istreambuf_iteratorIcNS_11char_traitsIcEEEEE3getES4_S4_RNS_8ios_baseERjP2tmPKcSC_                                                                              
00009b91  _ZNKSt3__28time_getIcNS_19istreambuf_iteratorIcNS_11char_traitsIcEEEEE6do_getES4_S4_RNS_8ios_baseERjP2tmcc                                                                               
00018ac1  _ZNKSt3__28time_getIcNS_19istreambuf_iteratorIcNS_11char_traitsIcEEEEE9__get_dayERiRS4_S4_RjRKNS_5ctypeIcEE                                                                              
00018f0d  _ZNKSt3__28time_getIwNS_19istreambuf_iteratorIwNS_11char_traitsIwEEEEE10__get_hourERiRS4_S4_RjRKNS_5ctypeIwEE                                                                            
000186bd  _ZNKSt3__28time_getIwNS_19istreambuf_iteratorIwNS_11char_traitsIwEEEEE10__get_yearERiRS4_S4_RjRKNS_5ctypeIwEE                                                                            
00015897  _ZNKSt3__28time_getIwNS_19istreambuf_iteratorIwNS_11char_traitsIwEEEEE11__get_am_pmERiRS4_S4_RjRKNS_5ctypeIwEE                                                                           
00018be7  _ZNKSt3__28time_getIwNS_19istreambuf_iteratorIwNS_11char_traitsIwEEEEE11__get_monthERiRS4_S4_RjRKNS_5ctypeIwEE                                                                           
000192c1  _ZNKSt3__28time_getIwNS_19istreambuf_iteratorIwNS_11char_traitsIwEEEEE11__get_year4ERiRS4_S4_RjRKNS_5ctypeIwEE                                                                           
00017337  _ZNKSt3__28time_getIwNS_19istreambuf_iteratorIwNS_11char_traitsIwEEEEE11do_get_dateES4_S4_RNS_8ios_baseERjP2tm                                                                           
00018205  _ZNKSt3__28time_getIwNS_19istreambuf_iteratorIwNS_11char_traitsIwEEEEE11do_get_timeES4_S4_RNS_8ios_baseERjP2tm                                                                           
00018245  _ZNKSt3__28time_getIwNS_19istreambuf_iteratorIwNS_11char_traitsIwEEEEE11do_get_yearES4_S4_RNS_8ios_baseERjP2tm                                                                           
00018f3b  _ZNKSt3__28time_getIwNS_19istreambuf_iteratorIwNS_11char_traitsIwEEEEE12__get_minuteERiRS4_S4_RjRKNS_5ctypeIwEE                                                                          
00018f69  _ZNKSt3__28time_getIwNS_19istreambuf_iteratorIwNS_11char_traitsIwEEEEE12__get_secondERiRS4_S4_RjRKNS_5ctypeIwEE                                                                          
00018af3  _ZNKSt3__28time_getIwNS_19istreambuf_iteratorIwNS_11char_traitsIwEEEEE13__get_12_hourERiRS4_S4_RjRKNS_5ctypeIwEE                                                                         
00016a51  _ZNKSt3__28time_getIwNS_19istreambuf_iteratorIwNS_11char_traitsIwEEEEE13__get_percentERS4_S4_RjRKNS_5ctypeIwEE                                                                           
00018f97  _ZNKSt3__28time_getIwNS_19istreambuf_iteratorIwNS_11char_traitsIwEEEEE13__get_weekdayERiRS4_S4_RjRKNS_5ctypeIwEE                                                                         
0001a891  _ZNKSt3__28time_getIwNS_19istreambuf_iteratorIwNS_11char_traitsIwEEEEE13do_date_orderEv                                                                                                  
00018285  _ZNKSt3__28time_getIwNS_19istreambuf_iteratorIwNS_11char_traitsIwEEEEE14do_get_weekdayES4_S4_RNS_8ios_baseERjP2tm                                                                        
00017d45  _ZNKSt3__28time_getIwNS_19istreambuf_iteratorIwNS_11char_traitsIwEEEEE15__get_monthnameERiRS4_S4_RjRKNS_5ctypeIwEE                                                                       
000182c5  _ZNKSt3__28time_getIwNS_19istreambuf_iteratorIwNS_11char_traitsIwEEEEE16do_get_monthnameES4_S4_RNS_8ios_baseERjP2tm                                                                      
00017d8b  _ZNKSt3__28time_getIwNS_19istreambuf_iteratorIwNS_11char_traitsIwEEEEE17__get_weekdaynameERiRS4_S4_RjRKNS_5ctypeIwEE                                                                     
00017391  _ZNKSt3__28time_getIwNS_19istreambuf_iteratorIwNS_11char_traitsIwEEEEE17__get_white_spaceERS4_S4_RjRKNS_5ctypeIwEE                                                                       
00018c17  _ZNKSt3__28time_getIwNS_19istreambuf_iteratorIwNS_11char_traitsIwEEEEE18__get_day_year_numERiRS4_S4_RjRKNS_5ctypeIwEE                                                                    
0000f901  _ZNKSt3__28time_getIwNS_19istreambuf_iteratorIwNS_11char_traitsIwEEEEE3getES4_S4_RNS_8ios_baseERjP2tmPKwSC_                                                                              
00009e8d  _ZNKSt3__28time_getIwNS_19istreambuf_iteratorIwNS_11char_traitsIwEEEEE6do_getES4_S4_RNS_8ios_baseERjP2tmcc                                                                               
00018b25  _ZNKSt3__28time_getIwNS_19istreambuf_iteratorIwNS_11char_traitsIwEEEEE9__get_dayERiRS4_S4_RjRKNS_5ctypeIwEE                                                                              
00016d91  _ZNKSt3__28time_putIcNS_19ostreambuf_iteratorIcNS_11char_traitsIcEEEEE6do_putES4_RNS_8ios_baseEcPK2tmcc                                                                                  
00016ab9  _ZNKSt3__28time_putIwNS_19ostreambuf_iteratorIwNS_11char_traitsIwEEEEE6do_putES4_RNS_8ios_baseEwPK2tmcc                                                                                  
0000abd1  _ZNKSt3__29money_getIcNS_19istreambuf_iteratorIcNS_11char_traitsIcEEEEE6do_getES4_S4_bRNS_8ios_baseERjRNS_12basic_stringIcS3_NS_9allocatorIcEEEE                                         
0000fd99  _ZNKSt3__29money_getIcNS_19istreambuf_iteratorIcNS_11char_traitsIcEEEEE6do_getES4_S4_bRNS_8ios_baseERjRe                                                                                 
0000b7e1  _ZNKSt3__29money_getIwNS_19istreambuf_iteratorIwNS_11char_traitsIwEEEEE6do_getES4_S4_bRNS_8ios_baseERjRNS_12basic_stringIwS3_NS_9allocatorIwEEEE                                         
00011045  _ZNKSt3__29money_getIwNS_19istreambuf_iteratorIwNS_11char_traitsIwEEEEE6do_getES4_S4_bRNS_8ios_baseERjRe                                                                                 
0000c265  _ZNKSt3__29money_putIcNS_19ostreambuf_iteratorIcNS_11char_traitsIcEEEEE6do_putES4_bRNS_8ios_baseEcRKNS_12basic_stringIcS3_NS_9allocatorIcEEEE                                            
0000ba29  _ZNKSt3__29money_putIcNS_19ostreambuf_iteratorIcNS_11char_traitsIcEEEEE6do_putES4_bRNS_8ios_baseEce                                                                                      
0000c06d  _ZNKSt3__29money_putIwNS_19ostreambuf_iteratorIwNS_11char_traitsIwEEEEE6do_putES4_bRNS_8ios_baseEwRKNS_12basic_stringIwS3_NS_9allocatorIwEEEE                                            
0000b591  _ZNKSt3__29money_putIwNS_19ostreambuf_iteratorIwNS_11char_traitsIwEEEEE6do_putES4_bRNS_8ios_baseEwe                                                                                      
00018481  _ZNSt3__210__stdinbufIcE5imbueERKNS_6localeE                                                                                                                                             
0001a7c9  _ZNSt3__210__stdinbufIcE5uflowEv                                                                                                                                                         
00011f29  _ZNSt3__210__stdinbufIcE9__getcharEb                                                                                                                                                     
00014253  _ZNSt3__210__stdinbufIcE9pbackfailEi                                                                                                                                                     
0001a7cf  _ZNSt3__210__stdinbufIcE9underflowEv                                                                                                                                                     
00017ff5  _ZNSt3__210__stdinbufIcEC1EP7__sFILEPi                                                                                                                                                   
0001a2d7  _ZNSt3__210__stdinbufIcED0Ev                                                                                                                                                             
0001a895  _ZNSt3__210__stdinbufIcED1Ev                                                                                                                                                             
000186f5  _ZNSt3__210__stdinbufIwE5imbueERKNS_6localeE                                                                                                                                             
0001a7d5  _ZNSt3__210__stdinbufIwE5uflowEv                                                                                                                                                         
00011ad9  _ZNSt3__210__stdinbufIwE9__getcharEb                                                                                                                                                     
000141a3  _ZNSt3__210__stdinbufIwE9pbackfailEi                                                                                                                                                     
0001a7db  _ZNSt3__210__stdinbufIwE9underflowEv                                                                                                                                                     
00018039  _ZNSt3__210__stdinbufIwEC1EP7__sFILEPi                                                                                                                                                   
0001a2e5  _ZNSt3__210__stdinbufIwED0Ev                                                                                                                                                             
0001a899  _ZNSt3__210__stdinbufIwED1Ev                                                                                                                                                             
00019d89  _ZNSt3__210__time_putD1Ev                                                                                                                                                                
00019d89  _ZNSt3__210__time_putD2Ev                                                                                                                                                                
200211a4  _ZNSt3__210moneypunctIcLb0EE2idE                                                                                                                                                         
0001a2f3  _ZNSt3__210moneypunctIcLb0EED0Ev                                                                                                                                                         
0001a89d  _ZNSt3__210moneypunctIcLb0EED1Ev                                                                                                                                                         
200211ac  _ZNSt3__210moneypunctIcLb1EE2idE                                                                                                                                                         
0001a301  _ZNSt3__210moneypunctIcLb1EED0Ev                                                                                                                                                         
0001a8a1  _ZNSt3__210moneypunctIcLb1EED1Ev                                                                                                                                                         
200211b4  _ZNSt3__210moneypunctIwLb0EE2idE                                                                                                                                                         
0001a30f  _ZNSt3__210moneypunctIwLb0EED0Ev                                                                                                                                                         
0001a8a5  _ZNSt3__210moneypunctIwLb0EED1Ev                                                                                                                                                         
200211bc  _ZNSt3__210moneypunctIwLb1EE2idE                                                                                                                                                         
0001a31d  _ZNSt3__210moneypunctIwLb1EED0Ev                                                                                                                                                         
0001a8a9  _ZNSt3__210moneypunctIwLb1EED1Ev                                                                                                                                                         
0001a1ef  _ZNSt3__210unique_ptrIcPFvPvEE5resetEPc                                                                                                                                                  
0001a1ff  _ZNSt3__210unique_ptrIhPFvPvEE5resetEPh                                                                                                                                                  
0001a20f  _ZNSt3__210unique_ptrIwPFvPvEE5resetEPw                                                                                                                                                  
00019da1  _ZNSt3__211__call_onceERVmPvPFvS2_E                                                                                                                                                      
0000868d  _ZNSt3__211__money_getIcE13__gather_infoEbRKNS_6localeERNS_10money_base7patternERcS8_RNS_12basic_stringIcNS_11char_traitsIcEENS_9allocatorIcEEEESF_SF_SF_Ri                              
00008a3d  _ZNSt3__211__money_getIwE13__gather_infoEbRKNS_6localeERNS_10money_base7patternERwS8_RNS_12basic_stringIcNS_11char_traitsIcEENS_9allocatorIcEEEERNS9_IwNSA_IwEENSC_IwEEEESJ_SJ_Ri        
00009501  _ZNSt3__211__money_putIcE13__gather_infoEbbRKNS_6localeERNS_10money_base7patternERcS8_RNS_12basic_stringIcNS_11char_traitsIcEENS_9allocatorIcEEEESF_SF_Ri                                
0000a429  _ZNSt3__211__money_putIcE8__formatEPcRS2_S3_jPKcS5_RKNS_5ctypeIcEEbRKNS_10money_base7patternEccRKNS_12basic_stringIcNS_11char_traitsIcEENS_9allocatorIcEEEESL_SL_i                       
00009849  _ZNSt3__211__money_putIwE13__gather_infoEbbRKNS_6localeERNS_10money_base7patternERwS8_RNS_12basic_stringIcNS_11char_traitsIcEENS_9allocatorIcEEEERNS9_IwNSA_IwEENSC_IwEEEESJ_Ri          
0000a185  _ZNSt3__211__money_putIwE8__formatEPwRS2_S3_jPKwS5_RKNS_5ctypeIwEEbRKNS_10money_base7patternEwwRKNS_12basic_stringIcNS_11char_traitsIcEENS_9allocatorIcEEEERKNSE_IwNSF_IwEENSH_IwEEEESQ_i
00017737  _ZNSt3__211__stdoutbufIcE4syncEv                                                                                                                                                         
0001907d  _ZNSt3__211__stdoutbufIcE5imbueERKNS_6localeE                                                                                                                                            
00017dd1  _ZNSt3__211__stdoutbufIcE6xsputnEPKci                                                                                                                                                    
0001403d  _ZNSt3__211__stdoutbufIcE8overflowEi                                                                                                                                                     
00017b99  _ZNSt3__211__stdoutbufIcEC1EP7__sFILEPi                                                                                                                                                  
0001a32b  _ZNSt3__211__stdoutbufIcED0Ev                                                                                                                                                            
0001a8ad  _ZNSt3__211__stdoutbufIcED1Ev                                                                                                                                                            
00017783  _ZNSt3__211__stdoutbufIwE4syncEv                                                                                                                                                         
000190a9  _ZNSt3__211__stdoutbufIwE5imbueERKNS_6localeE                                                                                                                                            
00017e17  _ZNSt3__211__stdoutbufIwE6xsputnEPKwi                                                                                                                                                    
00013f81  _ZNSt3__211__stdoutbufIwE8overflowEi                                                                                                                                                     
00017be1  _ZNSt3__211__stdoutbufIwEC1EP7__sFILEPi                                                                                                                                                  
0001a339  _ZNSt3__211__stdoutbufIwED0Ev                                                                                                                                                            
0001a8b1  _ZNSt3__211__stdoutbufIwED1Ev                                                                                                                                                            
0000f8ff  _ZNSt3__211char_traitsIcE11to_int_typeEc                                                                                                                                                 
0001a589  _ZNSt3__211char_traitsIcE2eqEcc                                                                                                                                                          
0001a739  _ZNSt3__211char_traitsIcE4copyEPcPKcj                                                                                                                                                    
0001a741  _ZNSt3__211char_traitsIcE4moveEPcPKcj                                                                                                                                                    
00019925  _ZNSt3__211char_traitsIcE6assignEPcjc                                                                                                                                                    
0001a7e1  _ZNSt3__211char_traitsIcE6assignERcRKc                                                                                                                                                   
0001a8b5  _ZNSt3__211char_traitsIcE6lengthEPKc                                                                                                                                                     
0001a705  _ZNSt3__211char_traitsIcE7compareEPKcS3_j                                                                                                                                                
0001a749  _ZNSt3__211char_traitsIwE4copyEPwPKwj                                                                                                                                                    
0001a751  _ZNSt3__211char_traitsIwE4moveEPwPKwj                                                                                                                                                    
0001a7e7  _ZNSt3__211char_traitsIwE6assignERwRKw                                                                                                                                                   
0001a8b9  _ZNSt3__211char_traitsIwE6lengthEPKw                                                                                                                                                     
0000fd97  _ZNSt3__212__do_nothingEPv                                                                                                                                                               
00012759  _ZNSt3__212basic_stringIcNS_11char_traitsIcEENS_9allocatorIcEEE21__grow_by_and_replaceEjjjjjjPKc                                                                                         
0001619b  _ZNSt3__212basic_stringIcNS_11char_traitsIcEENS_9allocatorIcEEE6__initEPKcj                                                                                                              
0001620f  _ZNSt3__212basic_stringIcNS_11char_traitsIcEENS_9allocatorIcEEE6__initEPKcjj                                                                                                             
00016283  _ZNSt3__212basic_stringIcNS_11char_traitsIcEENS_9allocatorIcEEE6__initEjc                                                                                                                
00019db9  _ZNSt3__212basic_stringIcNS_11char_traitsIcEENS_9allocatorIcEEE6appendEPKc                                                                                                               
000143a5  _ZNSt3__212basic_stringIcNS_11char_traitsIcEENS_9allocatorIcEEE6appendEPKcj                                                                                                              
00014765  _ZNSt3__212basic_stringIcNS_11char_traitsIcEENS_9allocatorIcEEE6appendEjc                                                                                                                
00019dd1  _ZNSt3__212basic_stringIcNS_11char_traitsIcEENS_9allocatorIcEEE6assignEPKc                                                                                                               
00014b99  _ZNSt3__212basic_stringIcNS_11char_traitsIcEENS_9allocatorIcEEE6assignEPKcj                                                                                                              
00019b27  _ZNSt3__212basic_stringIcNS_11char_traitsIcEENS_9allocatorIcEEE6insertEjPKc                                                                                                              
00013141  _ZNSt3__212basic_stringIcNS_11char_traitsIcEENS_9allocatorIcEEE6insertEjPKcj                                                                                                             
000160af  _ZNSt3__212basic_stringIcNS_11char_traitsIcEENS_9allocatorIcEEE6resizeEjc                                                                                                                
00012667  _ZNSt3__212basic_stringIcNS_11char_traitsIcEENS_9allocatorIcEEE7reserveEj                                                                                                                
00013ec1  _ZNSt3__212basic_stringIcNS_11char_traitsIcEENS_9allocatorIcEEE9__grow_byEjjjjjj                                                                                                         
000144ed  _ZNSt3__212basic_stringIcNS_11char_traitsIcEENS_9allocatorIcEEE9push_backEc                                                                                                              
000177d1  _ZNSt3__212basic_stringIcNS_11char_traitsIcEENS_9allocatorIcEEEC1ERKS5_                                                                                                                  
00016b21  _ZNSt3__212basic_stringIcNS_11char_traitsIcEENS_9allocatorIcEEEC1ERKS5_jjRKS4_                                                                                                           
00019943  _ZNSt3__212basic_stringIcNS_11char_traitsIcEENS_9allocatorIcEEEC1Ev                                                                                                                      
0001963b  _ZNSt3__212basic_stringIcNS_11char_traitsIcEENS_9allocatorIcEEED1Ev                                                                                                                      
00018fc5  _ZNSt3__212basic_stringIcNS_11char_traitsIcEENS_9allocatorIcEEEaSERKS5_                                                                                                                  
00012259  _ZNSt3__212basic_stringIwNS_11char_traitsIwEENS_9allocatorIwEEE21__grow_by_and_replaceEjjjjjjPKw                                                                                         
00014df1  _ZNSt3__212basic_stringIwNS_11char_traitsIwEENS_9allocatorIwEEE6__initEPKwj                                                                                                              
00014449  _ZNSt3__212basic_stringIwNS_11char_traitsIwEENS_9allocatorIwEEE6appendEPKwj                                                                                                              
00019de9  _ZNSt3__212basic_stringIwNS_11char_traitsIwEENS_9allocatorIwEEE6assignEPKw                                                                                                               
00014b01  _ZNSt3__212basic_stringIwNS_11char_traitsIwEENS_9allocatorIwEEE6assignEPKwj                                                                                                              
00011bed  _ZNSt3__212basic_stringIwNS_11char_traitsIwEENS_9allocatorIwEEE7reserveEj                                                                                                                
0001321d  _ZNSt3__212basic_stringIwNS_11char_traitsIwEENS_9allocatorIwEEE9__grow_byEjjjjjj                                                                                                         
0001458d  _ZNSt3__212basic_stringIwNS_11char_traitsIwEENS_9allocatorIwEEE9push_backEw                                                                                                              
0001781d  _ZNSt3__212basic_stringIwNS_11char_traitsIwEENS_9allocatorIwEEEC1ERKS5_                                                                                                                  
00019961  _ZNSt3__212basic_stringIwNS_11char_traitsIwEENS_9allocatorIwEEEC1Ev                                                                                                                      
0001965b  _ZNSt3__212basic_stringIwNS_11char_traitsIwEENS_9allocatorIwEEED1Ev                                                                                                                      
0001a347  _ZNSt3__213basic_istreamIcNS_11char_traitsIcEEED0Ev                                                                                                                                      
00019b45  _ZNSt3__213basic_istreamIcNS_11char_traitsIcEEED1Ev                                                                                                                                      
00019fc1  _ZNSt3__213basic_istreamIcNS_11char_traitsIcEEED2Ev                                                                                                                                      
0001a355  _ZNSt3__213basic_istreamIwNS_11char_traitsIwEEED0Ev                                                                                                                                      
00019b61  _ZNSt3__213basic_istreamIwNS_11char_traitsIwEEED1Ev                                                                                                                                      
00019fd5  _ZNSt3__213basic_istreamIwNS_11char_traitsIwEEED2Ev                                                                                                                                      
00017647  _ZNSt3__213basic_ostreamIcNS_11char_traitsIcEEE5flushEv                                                                                                                                  
00017869  _ZNSt3__213basic_ostreamIcNS_11char_traitsIcEEE6sentryC1ERS3_                                                                                                                            
00015913  _ZNSt3__213basic_ostreamIcNS_11char_traitsIcEEE6sentryD1Ev                                                                                                                               
0001a363  _ZNSt3__213basic_ostreamIcNS_11char_traitsIcEEED0Ev                                                                                                                                      
00019b7d  _ZNSt3__213basic_ostreamIcNS_11char_traitsIcEEED1Ev                                                                                                                                      
0001a075  _ZNSt3__213basic_ostreamIcNS_11char_traitsIcEEED2Ev                                                                                                                                      
000138a9  _ZNSt3__213basic_ostreamIcNS_11char_traitsIcEEElsEi                                                                                                                                      
00013971  _ZNSt3__213basic_ostreamIcNS_11char_traitsIcEEElsEt                                                                                                                                      
00017697  _ZNSt3__213basic_ostreamIwNS_11char_traitsIwEEE5flushEv                                                                                                                                  
000178b5  _ZNSt3__213basic_ostreamIwNS_11char_traitsIwEEE6sentryC1ERS3_                                                                                                                            
0001598f  _ZNSt3__213basic_ostreamIwNS_11char_traitsIwEEE6sentryD1Ev                                                                                                                               
0001a371  _ZNSt3__213basic_ostreamIwNS_11char_traitsIwEEED0Ev                                                                                                                                      
00019b99  _ZNSt3__213basic_ostreamIwNS_11char_traitsIwEEED1Ev                                                                                                                                      
0001a087  _ZNSt3__213basic_ostreamIwNS_11char_traitsIwEEED2Ev                                                                                                                                      
00019595  _ZNSt3__214__num_get_base10__get_baseERNS_8ios_baseE                                                                                                                                     
0001b306  _ZNSt3__214__num_get_base5__srcE                                                                                                                                                         
000179e5  _ZNSt3__214__num_put_base12__format_intEPcPKcbj                                                                                                                                          
0001561d  _ZNSt3__214__num_put_base14__format_floatEPcPKcj                                                                                                                                         
00018533  _ZNSt3__214__num_put_base18__identify_paddingEPcS1_RKNS_8ios_baseE                                                                                                                       
0000c459  _ZNSt3__214__scan_keywordINS_19istreambuf_iteratorIcNS_11char_traitsIcEEEEPKNS_12basic_stringIcS3_NS_9allocatorIcEEEENS_5ctypeIcEEEET0_RT_SE_SD_SD_RKT1_Rjb                              
0000c649  _ZNSt3__214__scan_keywordINS_19istreambuf_iteratorIwNS_11char_traitsIwEEEEPKNS_12basic_stringIwS3_NS_9allocatorIwEEEENS_5ctypeIwEEEET0_RT_SE_SD_SD_RKT1_Rjb                              
00019c41  _ZNSt3__214__shared_count16__release_sharedEv                                                                                                                                            
00010dcb  _ZNSt3__214__shared_countD1Ev                                                                                                                                                            
00010dcb  _ZNSt3__214__shared_countD2Ev                                                                                                                                                            
00018103  _ZNSt3__214__split_bufferIPNS_6locale5facetERNS_15__sso_allocatorIS3_Lj28EEEEC1EjjS6_                                                                                                    
00018ff3  _ZNSt3__214__split_bufferIPNS_6locale5facetERNS_15__sso_allocatorIS3_Lj28EEEED1Ev                                                                                                        
000162f9  _ZNSt3__215__num_get_floatIdEET_PKcS3_Rj                                                                                                                                                 
0001636d  _ZNSt3__215__num_get_floatIeEET_PKcS3_Rj                                                                                                                                                 
00015de1  _ZNSt3__215__num_get_floatIfEET_PKcS3_Rj                                                                                                                                                 
0001a8bd  _ZNSt3__215basic_streambufIcNS_11char_traitsIcEEE4syncEv                                                                                                                                 
000113f3  _ZNSt3__215basic_streambufIcNS_11char_traitsIcEEE5imbueERKNS_6localeE                                                                                                                    
00019eef  _ZNSt3__215basic_streambufIcNS_11char_traitsIcEEE5sgetcEv                                                                                                                                
000193e9  _ZNSt3__215basic_streambufIcNS_11char_traitsIcEEE5uflowEv                                                                                                                                
00012a27  _ZNSt3__215basic_streambufIcNS_11char_traitsIcEEE6setbufEPci                                                                                                                             
000163e1  _ZNSt3__215basic_streambufIcNS_11char_traitsIcEEE6xsgetnEPci                                                                                                                             
00016df7  _ZNSt3__215basic_streambufIcNS_11char_traitsIcEEE6xsputnEPKci                                                                                                                            
0001997f  _ZNSt3__215basic_streambufIcNS_11char_traitsIcEEE7seekoffExNS_8ios_base7seekdirEj                                                                                                        
00019181  _ZNSt3__215basic_streambufIcNS_11char_traitsIcEEE7seekposENS_4fposIiEEj                                                                                                                  
0001a7ed  _ZNSt3__215basic_streambufIcNS_11char_traitsIcEEE8overflowEi                                                                                                                             
0001a7f3  _ZNSt3__215basic_streambufIcNS_11char_traitsIcEEE9pbackfailEi                                                                                                                            
0001a8c1  _ZNSt3__215basic_streambufIcNS_11char_traitsIcEEE9showmanycEv                                                                                                                            
0001a7f9  _ZNSt3__215basic_streambufIcNS_11char_traitsIcEEE9underflowEv                                                                                                                            
0001940d  _ZNSt3__215basic_streambufIcNS_11char_traitsIcEEEC1Ev                                                                                                                                    
0001a8c5  _ZNSt3__215basic_streambufIcNS_11char_traitsIcEEEC2Ev                                                                                                                                    
0001a37f  _ZNSt3__215basic_streambufIcNS_11char_traitsIcEEED0Ev                                                                                                                                    
0001a38d  _ZNSt3__215basic_streambufIcNS_11char_traitsIcEEED1Ev                                                                                                                                    
0001a8c9  _ZNSt3__215basic_streambufIcNS_11char_traitsIcEEED2Ev                                                                                                                                    
0001a8cd  _ZNSt3__215basic_streambufIwNS_11char_traitsIwEEE4syncEv                                                                                                                                 
0001321b  _ZNSt3__215basic_streambufIwNS_11char_traitsIwEEE5imbueERKNS_6localeE                                                                                                                    
00019f05  _ZNSt3__215basic_streambufIwNS_11char_traitsIwEEE5sgetcEv                                                                                                                                
00019431  _ZNSt3__215basic_streambufIwNS_11char_traitsIwEEE5uflowEv                                                                                                                                
000140ef  _ZNSt3__215basic_streambufIwNS_11char_traitsIwEEE6setbufEPwi                                                                                                                             
00015e59  _ZNSt3__215basic_streambufIwNS_11char_traitsIwEEE6xsgetnEPwi                                                                                                                             
00016b89  _ZNSt3__215basic_streambufIwNS_11char_traitsIwEEE6xsputnEPKwi                                                                                                                            
0001999d  _ZNSt3__215basic_streambufIwNS_11char_traitsIwEEE7seekoffExNS_8ios_base7seekdirEj                                                                                                        
000191ab  _ZNSt3__215basic_streambufIwNS_11char_traitsIwEEE7seekposENS_4fposIiEEj                                                                                                                  
0001a7ff  _ZNSt3__215basic_streambufIwNS_11char_traitsIwEEE8overflowEi                                                                                                                             
0001a805  _ZNSt3__215basic_streambufIwNS_11char_traitsIwEEE9pbackfailEi                                                                                                                            
0001a8d1  _ZNSt3__215basic_streambufIwNS_11char_traitsIwEEE9showmanycEv                                                                                                                            
0001a80b  _ZNSt3__215basic_streambufIwNS_11char_traitsIwEEE9underflowEv                                                                                                                            
00019455  _ZNSt3__215basic_streambufIwNS_11char_traitsIwEEEC1Ev                                                                                                                                    
0001a8d5  _ZNSt3__215basic_streambufIwNS_11char_traitsIwEEEC2Ev                                                                                                                                    
0001a39b  _ZNSt3__215basic_streambufIwNS_11char_traitsIwEEED0Ev                                                                                                                                    
0001a3a9  _ZNSt3__215basic_streambufIwNS_11char_traitsIwEEED1Ev                                                                                                                                    
0001a8d9  _ZNSt3__215basic_streambufIwNS_11char_traitsIwEEED2Ev                                                                                                                                    
00016455  _ZNSt3__216__check_groupingERKNS_12basic_stringIcNS_11char_traitsIcEENS_9allocatorIcEEEEPjS8_Rj                                                                                          
00012849  _ZNSt3__216__pad_and_outputIcNS_11char_traitsIcEEEENS_19ostreambuf_iteratorIT_T0_EES6_PKS4_S8_S8_RNS_8ios_baseES4_                                                                       
000118a5  _ZNSt3__216__pad_and_outputIwNS_11char_traitsIwEEEENS_19ostreambuf_iteratorIT_T0_EES6_PKS4_S8_S8_RNS_8ios_baseES4_                                                                       
0001967b  _ZNSt3__217__call_once_proxyINS_5tupleIJONS_34_GLOBAL__N__10_locale_cpp_a718320311__fake_bindEEEEEEvPv                                                                                   
00014e85  _ZNSt3__219__double_or_nothingIcEEvRNS_10unique_ptrIT_PFvPvEEERPS2_S9_                                                                                                                   
00014f19  _ZNSt3__219__double_or_nothingIjEEvRNS_10unique_ptrIT_PFvPvEEERPS2_S9_                                                                                                                   
000142fd  _ZNSt3__219__double_or_nothingIwEEvRNS_10unique_ptrIT_PFvPvEEERPS2_S9_                                                                                                                   
20021bec  _ZNSt3__219__start_std_streamsE                                                                                                                                                          
000164c9  _ZNSt3__219__str_find_first_ofIcjNS_11char_traitsIcEELj4294967295EEET0_PKT_S3_S6_S3_S3_                                                                                                  
0001969b  _ZNSt3__219istreambuf_iteratorIcNS_11char_traitsIcEEEppEv                                                                                                                                
000196bb  _ZNSt3__219istreambuf_iteratorIwNS_11char_traitsIwEEEppEv                                                                                                                                
00018c47  _ZNSt3__219ostreambuf_iteratorIcNS_11char_traitsIcEEEaSEc                                                                                                                                
00018c77  _ZNSt3__219ostreambuf_iteratorIwNS_11char_traitsIwEEEaSEw                                                                                                                                
00012ce9  _ZNSt3__220__get_up_to_n_digitsIcNS_19istreambuf_iteratorIcNS_11char_traitsIcEEEEEEiRT0_S5_RjRKNS_5ctypeIT_EEi                                                                           
00012939  _ZNSt3__220__get_up_to_n_digitsIwNS_19istreambuf_iteratorIwNS_11char_traitsIwEEEEEEiRT0_S5_RjRKNS_5ctypeIT_EEi                                                                           
0001a8dd  _ZNSt3__220__throw_length_errorEPKc                                                                                                                                                      
0001a8e1  _ZNSt3__220__throw_out_of_rangeEPKc                                                                                                                                                      
0001a8e5  _ZNSt3__221__throw_runtime_errorEPKc                                                                                                                                                     
000142fb  _ZNSt3__222__compressed_pair_elemINS_12basic_stringIcNS_11char_traitsIcEENS_9allocatorIcEEE5__repELi0ELb0EE5__getEv                                                                      
0001a21f  _ZNSt3__222__compressed_pair_elemINS_12basic_stringIcNS_11char_traitsIcEENS_9allocatorIcEEE5__repELi0ELb0EEC1Ev                                                                          
0001a8e9  _ZNSt3__222__compressed_pair_elemINS_12basic_stringIcNS_11char_traitsIcEENS_9allocatorIcEEE5__repELi0ELb0EEC2Ev                                                                          
0001462b  _ZNSt3__222__compressed_pair_elemINS_12basic_stringIwNS_11char_traitsIwEENS_9allocatorIwEEE5__repELi0ELb0EE5__getEv                                                                      
0001a22f  _ZNSt3__222__compressed_pair_elemINS_12basic_stringIwNS_11char_traitsIwEENS_9allocatorIwEEE5__repELi0ELb0EEC1Ev                                                                          
0001a8ed  _ZNSt3__222__compressed_pair_elemINS_12basic_stringIwNS_11char_traitsIwEENS_9allocatorIwEEE5__repELi0ELb0EEC2Ev                                                                          
00014d5b  _ZNSt3__222__compressed_pair_elemINS_9allocatorIcEELi1ELb1EEC1IRKS2_vEEOT_                                                                                                               
00015a87  _ZNSt3__222__compressed_pair_elemINS_9allocatorIcEELi1ELb1EEC1IS2_vEEOT_                                                                                                                 
0001a8f1  _ZNSt3__222__compressed_pair_elemINS_9allocatorIcEELi1ELb1EEC2IRKS2_vEEOT_                                                                                                               
0001a8f5  _ZNSt3__222__compressed_pair_elemINS_9allocatorIcEELi1ELb1EEC2IS2_vEEOT_                                                                                                                 
00015cef  _ZNSt3__222__compressed_pair_elemINS_9allocatorIwEELi1ELb1EEC1IS2_vEEOT_                                                                                                                 
0001a8f9  _ZNSt3__222__compressed_pair_elemINS_9allocatorIwEELi1ELb1EEC2IS2_vEEOT_                                                                                                                 
0001020d  _ZNSt3__224__put_character_sequenceIcNS_11char_traitsIcEEEERNS_13basic_ostreamIT_T0_EES7_PKS4_j                                                                                          
00014c2f  _ZNSt3__225__num_get_signed_integralIlEET_PKcS3_Rji                                                                                                                                      
00014fad  _ZNSt3__225__num_get_signed_integralIxEET_PKcS3_Rji                                                                                                                                      
00015b81  _ZNSt3__227__num_get_unsigned_integralIjEET_PKcS3_Rji                                                                                                                                    
00015bfb  _ZNSt3__227__num_get_unsigned_integralImEET_PKcS3_Rji                                                                                                                                    
00015ed1  _ZNSt3__227__num_get_unsigned_integralItEET_PKcS3_Rji                                                                                                                                    
0001653d  _ZNSt3__227__num_get_unsigned_integralIyEET_PKcS3_Rji                                                                                                                                    
0001a241  _ZNSt3__234_GLOBAL__N__10_string_cpp_11932bae10as_integerIiNS_12basic_stringIcNS_11char_traitsIcEENS_9allocatorIcEEEEEET_RKS7_RKT0_Pji                                                   
00018ca9  _ZNSt3__234_GLOBAL__N__10_string_cpp_11932bae12throw_helperISt12out_of_rangeEEvRKNS_12basic_stringIcNS_11char_traitsIcEENS_9allocatorIcEEEE                                              
00018cd9  _ZNSt3__234_GLOBAL__N__10_string_cpp_11932bae12throw_helperISt16invalid_argumentEEvRKNS_12basic_stringIcNS_11char_traitsIcEENS_9allocatorIcEEEE                                          
000167df  _ZNSt3__234_GLOBAL__N__10_string_cpp_11932bae17as_integer_helperIlNS_12basic_stringIcNS_11char_traitsIcEENS_9allocatorIcEEEEPFYlPKcPPciEEET_RKS7_RKT0_PjiT1_                             
000196dd  _ZNSt3__234_GLOBAL__N__10_string_cpp_11932bae29throw_from_string_invalid_argERKNS_12basic_stringIcNS_11char_traitsIcEENS_9allocatorIcEEEE                                                
000196fd  _ZNSt3__234_GLOBAL__N__10_string_cpp_11932bae30throw_from_string_out_of_rangeERKNS_12basic_stringIcNS_11char_traitsIcEENS_9allocatorIcEEEE                                               
00015a0b  _ZNSt3__234_GLOBAL__N__10_string_cpp_11932bae9as_stringINS_12basic_stringIcNS_11char_traitsIcEENS_9allocatorIcEEEEPFYiPcjPKczEiEET_T0_SD_PKNSD_10value_typeET1_                          
200215a0  _ZNSt3__23cinE                                                                                                                                                                           
20021450  _ZNSt3__24cerrE                                                                                                                                                                          
200214f8  _ZNSt3__24clogE                                                                                                                                                                          
200213a8  _ZNSt3__24coutE                                                                                                                                                                          
00018441  _ZNSt3__24stoiERKNS_12basic_stringIcNS_11char_traitsIcEENS_9allocatorIcEEEEPji                                                                                                           
00019fe9  _ZNSt3__24swapIViEENS_9enable_ifIXaasr3std3__221is_move_constructibleIT_EE5valuesr3std3__218is_move_assignableIS3_EE5valueEvE4typeERS3_S6_                                               
200215f8  _ZNSt3__24wcinE                                                                                                                                                                          
0001a759  _ZNSt3__25ctypeIcE13classic_tableEv                                                                                                                                                      
20020094  _ZNSt3__25ctypeIcE2idE                                                                                                                                                                   
00019479  _ZNSt3__25ctypeIcEC1EPKhbj                                                                                                                                                               
00019479  _ZNSt3__25ctypeIcEC2EPKhbj                                                                                                                                                               
0001a3b7  _ZNSt3__25ctypeIcED0Ev                                                                                                                                                                   
00019e01  _ZNSt3__25ctypeIcED1Ev                                                                                                                                                                   
00019e01  _ZNSt3__25ctypeIcED2Ev                                                                                                                                                                   
2002008c  _ZNSt3__25ctypeIwE2idE                                                                                                                                                                   
0001a3c5  _ZNSt3__25ctypeIwED0Ev                                                                                                                                                                   
0001a8fd  _ZNSt3__25ctypeIwED1Ev                                                                                                                                                                   
0001a8fd  _ZNSt3__25ctypeIwED2Ev                                                                                                                                                                   
200214a4  _ZNSt3__25wcerrE                                                                                                                                                                         
2002154c  _ZNSt3__25wclogE                                                                                                                                                                         
200213fc  _ZNSt3__25wcoutE                                                                                                                                                                         
0001872d  _ZNSt3__26__clocEv                                                                                                                                                                       
00018305  _ZNSt3__26locale2id5__getEv                                                                                                                                                              
0001a251  _ZNSt3__26locale2id6__initEv                                                                                                                                                             
20020000  _ZNSt3__26locale2id9__next_idE                                                                                                                                                           
00019e19  _ZNSt3__26locale5__imp11make_globalEv                                                                                                                                                    
00019bb5  _ZNSt3__26locale5__imp12make_classicEv                                                                                                                                                   
00016773  _ZNSt3__26locale5__imp7installEPNS0_5facetEl                                                                                                                                             
00007a05  _ZNSt3__26locale5__impC1Ej                                                                                                                                                               
00007a05  _ZNSt3__26locale5__impC2Ej                                                                                                                                                               
0001a3d3  _ZNSt3__26locale5__impD0Ev                                                                                                                                                               
0001569d  _ZNSt3__26locale5__impD1Ev                                                                                                                                                               
0001569d  _ZNSt3__26locale5__impD2Ev                                                                                                                                                               
0001a595  _ZNSt3__26locale5facet16__on_zero_sharedEv                                                                                                                                               
0001a3e1  _ZNSt3__26locale5facetD0Ev                                                                                                                                                               
0001a901  _ZNSt3__26locale5facetD1Ev                                                                                                                                                               
0001a901  _ZNSt3__26locale5facetD2Ev                                                                                                                                                               
000190d5  _ZNSt3__26locale7classicEv                                                                                                                                                               
00018d09  _ZNSt3__26locale8__globalEv                                                                                                                                                              
0001a5a1  _ZNSt3__26localeC1ERKS0_                                                                                                                                                                 
00019f1b  _ZNSt3__26localeC1Ev                                                                                                                                                                     
0001a5a1  _ZNSt3__26localeC2ERKS0_                                                                                                                                                                 
00019f1b  _ZNSt3__26localeC2Ev                                                                                                                                                                     
00019e31  _ZNSt3__26localeD1Ev                                                                                                                                                                     
00019e31  _ZNSt3__26localeD2Ev                                                                                                                                                                     
00019e49  _ZNSt3__26vectorIPNS_6locale5facetENS_15__sso_allocatorIS3_Lj28EEEE18__construct_at_endEj                                                                                                
00012dcd  _ZNSt3__26vectorIPNS_6locale5facetENS_15__sso_allocatorIS3_Lj28EEEE8__appendEj                                                                                                           
000183c5  _ZNSt3__26vectorIPNS_6locale5facetENS_15__sso_allocatorIS3_Lj28EEEE8allocateEj                                                                                                           
0001949d  _ZNSt3__26vectorIPNS_6locale5facetENS_15__sso_allocatorIS3_Lj28EEEEC1Ej                                                                                                                  
200200b4  _ZNSt3__27codecvtIDiciE2idE                                                                                                                                                              
0001a3ef  _ZNSt3__27codecvtIDiciED0Ev                                                                                                                                                              
0001a905  _ZNSt3__27codecvtIDiciED1Ev                                                                                                                                                              
0001a905  _ZNSt3__27codecvtIDiciED2Ev                                                                                                                                                              
200200ac  _ZNSt3__27codecvtIDsciE2idE                                                                                                                                                              
0001a3fd  _ZNSt3__27codecvtIDsciED0Ev                                                                                                                                                              
0001a909  _ZNSt3__27codecvtIDsciED1Ev                                                                                                                                                              
0001a909  _ZNSt3__27codecvtIDsciED2Ev                                                                                                                                                              
2002009c  _ZNSt3__27codecvtIcciE2idE                                                                                                                                                               
0001a40b  _ZNSt3__27codecvtIcciED0Ev                                                                                                                                                               
0001a90d  _ZNSt3__27codecvtIcciED1Ev                                                                                                                                                               
0001a90d  _ZNSt3__27codecvtIcciED2Ev                                                                                                                                                               
200200a4  _ZNSt3__27codecvtIwciE2idE                                                                                                                                                               
00019bd1  _ZNSt3__27codecvtIwciEC1Ej                                                                                                                                                               
00019bd1  _ZNSt3__27codecvtIwciEC2Ej                                                                                                                                                               
0001a419  _ZNSt3__27codecvtIwciED0Ev                                                                                                                                                               
000194c1  _ZNSt3__27codecvtIwciED1Ev                                                                                                                                                               
000194c1  _ZNSt3__27codecvtIwciED2Ev                                                                                                                                                               
200211c4  _ZNSt3__27collateIcE2idE                                                                                                                                                                 
0001a427  _ZNSt3__27collateIcED0Ev                                                                                                                                                                 
0001a911  _ZNSt3__27collateIcED1Ev                                                                                                                                                                 
200211cc  _ZNSt3__27collateIwE2idE                                                                                                                                                                 
0001a435  _ZNSt3__27collateIwED0Ev                                                                                                                                                                 
0001a915  _ZNSt3__27collateIwED1Ev                                                                                                                                                                 
200211d4  _ZNSt3__27num_getIcNS_19istreambuf_iteratorIcNS_11char_traitsIcEEEEE2idE                                                                                                                 
0001a443  _ZNSt3__27num_getIcNS_19istreambuf_iteratorIcNS_11char_traitsIcEEEEED0Ev                                                                                                                 
0001a919  _ZNSt3__27num_getIcNS_19istreambuf_iteratorIcNS_11char_traitsIcEEEEED1Ev                                                                                                                 
200211dc  _ZNSt3__27num_getIwNS_19istreambuf_iteratorIwNS_11char_traitsIwEEEEE2idE                                                                                                                 
0001a451  _ZNSt3__27num_getIwNS_19istreambuf_iteratorIwNS_11char_traitsIwEEEEED0Ev                                                                                                                 
0001a91d  _ZNSt3__27num_getIwNS_19istreambuf_iteratorIwNS_11char_traitsIwEEEEED1Ev                                                                                                                 
200211e4  _ZNSt3__27num_putIcNS_19ostreambuf_iteratorIcNS_11char_traitsIcEEEEE2idE                                                                                                                 
0001a45f  _ZNSt3__27num_putIcNS_19ostreambuf_iteratorIcNS_11char_traitsIcEEEEED0Ev                                                                                                                 
0001a921  _ZNSt3__27num_putIcNS_19ostreambuf_iteratorIcNS_11char_traitsIcEEEEED1Ev                                                                                                                 
200211ec  _ZNSt3__27num_putIwNS_19ostreambuf_iteratorIwNS_11char_traitsIwEEEEE2idE                                                                                                                 
0001a46d  _ZNSt3__27num_putIwNS_19ostreambuf_iteratorIwNS_11char_traitsIwEEEEED0Ev                                                                                                                 
0001a925  _ZNSt3__27num_putIwNS_19ostreambuf_iteratorIwNS_11char_traitsIwEEEEED1Ev                                                                                                                 
000192e7  _ZNSt3__28ios_base16__call_callbacksENS0_5eventE                                                                                                                                         
0000a6c5  _ZNSt3__28ios_base4InitC1Ev                                                                                                                                                              
0000a6c5  _ZNSt3__28ios_base4InitC2Ev                                                                                                                                                              
00018d39  _ZNSt3__28ios_base4InitD1Ev                                                                                                                                                              
00018d39  _ZNSt3__28ios_base4InitD2Ev                                                                                                                                                              
00018345  _ZNSt3__28ios_base4initEPv                                                                                                                                                               
0001a5ad  _ZNSt3__28ios_base5clearEj                                                                                                                                                               
0001a47b  _ZNSt3__28ios_baseD0Ev                                                                                                                                                                   
00018765  _ZNSt3__28ios_baseD1Ev                                                                                                                                                                   
00018765  _ZNSt3__28ios_baseD2Ev                                                                                                                                                                   
200211f4  _ZNSt3__28messagesIcE2idE                                                                                                                                                                
0001a489  _ZNSt3__28messagesIcED0Ev                                                                                                                                                                
0001a929  _ZNSt3__28messagesIcED1Ev                                                                                                                                                                
200211fc  _ZNSt3__28messagesIwE2idE                                                                                                                                                                
0001a497  _ZNSt3__28messagesIwED0Ev                                                                                                                                                                
0001a92d  _ZNSt3__28messagesIwED1Ev                                                                                                                                                                
200200bc  _ZNSt3__28numpunctIcE2idE                                                                                                                                                                
0001879d  _ZNSt3__28numpunctIcEC1Ej                                                                                                                                                                
0001879d  _ZNSt3__28numpunctIcEC2Ej                                                                                                                                                                
0001a4a5  _ZNSt3__28numpunctIcED0Ev                                                                                                                                                                
00019c5b  _ZNSt3__28numpunctIcED1Ev                                                                                                                                                                
00019c5b  _ZNSt3__28numpunctIcED2Ev                                                                                                                                                                
200200c4  _ZNSt3__28numpunctIwE2idE                                                                                                                                                                
000187d5  _ZNSt3__28numpunctIwEC1Ej                                                                                                                                                                
000187d5  _ZNSt3__28numpunctIwEC2Ej                                                                                                                                                                
0001a4b3  _ZNSt3__28numpunctIwED0Ev                                                                                                                                                                
00019c75  _ZNSt3__28numpunctIwED1Ev                                                                                                                                                                
00019c75  _ZNSt3__28numpunctIwED2Ev                                                                                                                                                                
20021204  _ZNSt3__28time_getIcNS_19istreambuf_iteratorIcNS_11char_traitsIcEEEEE2idE                                                                                                                
0001a4c1  _ZNSt3__28time_getIcNS_19istreambuf_iteratorIcNS_11char_traitsIcEEEEED0Ev                                                                                                                
0001a931  _ZNSt3__28time_getIcNS_19istreambuf_iteratorIcNS_11char_traitsIcEEEEED1Ev                                                                                                                
2002120c  _ZNSt3__28time_getIwNS_19istreambuf_iteratorIwNS_11char_traitsIwEEEEE2idE                                                                                                                
0001a4cf  _ZNSt3__28time_getIwNS_19istreambuf_iteratorIwNS_11char_traitsIwEEEEED0Ev                                                                                                                
0001a935  _ZNSt3__28time_getIwNS_19istreambuf_iteratorIwNS_11char_traitsIwEEEEED1Ev                                                                                                                
20021214  _ZNSt3__28time_putIcNS_19ostreambuf_iteratorIcNS_11char_traitsIcEEEEE2idE                                                                                                                
00019c8f  _ZNSt3__28time_putIcNS_19ostreambuf_iteratorIcNS_11char_traitsIcEEEEED0Ev                                                                                                                
00019ffd  _ZNSt3__28time_putIcNS_19ostreambuf_iteratorIcNS_11char_traitsIcEEEEED1Ev                                                                                                                
2002121c  _ZNSt3__28time_putIwNS_19ostreambuf_iteratorIwNS_11char_traitsIwEEEEE2idE                                                                                                                
00019ca9  _ZNSt3__28time_putIwNS_19ostreambuf_iteratorIwNS_11char_traitsIwEEEEED0Ev                                                                                                                
0001a011  _ZNSt3__28time_putIwNS_19ostreambuf_iteratorIwNS_11char_traitsIwEEEEED1Ev                                                                                                                
00012a29  _ZNSt3__29__num_getIcE17__stage2_int_loopEciPcRS2_RjcRKNS_12basic_stringIcNS_11char_traitsIcEENS_9allocatorIcEEEEPjRSD_PKc                                                               
000108c5  _ZNSt3__29__num_getIcE19__stage2_float_loopEcRbRcPcRS4_ccRKNS_12basic_stringIcNS_11char_traitsIcEENS_9allocatorIcEEEEPjRSE_RjS4_                                                         
00016bf1  _ZNSt3__29__num_getIcE19__stage2_float_prepERNS_8ios_baseEPcRcS5_                                                                                                                        
00012b15  _ZNSt3__29__num_getIwE17__stage2_int_loopEwiPcRS2_RjwRKNS_12basic_stringIcNS_11char_traitsIcEENS_9allocatorIcEEEEPjRSD_PKw                                                               
00010631  _ZNSt3__29__num_getIwE19__stage2_float_loopEwRbRcPcRS4_wwRKNS_12basic_stringIcNS_11char_traitsIcEENS_9allocatorIcEEEEPjRSE_RjPw                                                          
00016c59  _ZNSt3__29__num_getIwE19__stage2_float_prepERNS_8ios_baseEPwRwS5_                                                                                                                        
0000da8d  _ZNSt3__29__num_putIcE21__widen_and_group_intEPcS2_S2_S2_RS2_S3_RKNS_6localeE                                                                                                            
0000b329  _ZNSt3__29__num_putIcE23__widen_and_group_floatEPcS2_S2_S2_RS2_S3_RKNS_6localeE                                                                                                          
0000d8c1  _ZNSt3__29__num_putIwE21__widen_and_group_intEPcS2_S2_PwRS3_S4_RKNS_6localeE                                                                                                             
0000ae45  _ZNSt3__29__num_putIwE23__widen_and_group_floatEPcS2_S2_PwRS3_S4_RKNS_6localeE                                                                                                           
0001a4dd  _ZNSt3__29basic_iosIcNS_11char_traitsIcEEED0Ev                                                                                                                                           
0001a939  _ZNSt3__29basic_iosIcNS_11char_traitsIcEEED1Ev                                                                                                                                           
0001a93d  _ZNSt3__29basic_iosIcNS_11char_traitsIcEEED2Ev                                                                                                                                           
0001a4eb  _ZNSt3__29basic_iosIwNS_11char_traitsIwEEED0Ev                                                                                                                                           
0001a941  _ZNSt3__29basic_iosIwNS_11char_traitsIwEEED1Ev                                                                                                                                           
0001a945  _ZNSt3__29basic_iosIwNS_11char_traitsIwEEED2Ev                                                                                                                                           
20021224  _ZNSt3__29money_getIcNS_19istreambuf_iteratorIcNS_11char_traitsIcEEEEE2idE                                                                                                               
00005b89  _ZNSt3__29money_getIcNS_19istreambuf_iteratorIcNS_11char_traitsIcEEEEE8__do_getERS4_S4_bRKNS_6localeEjRjRbRKNS_5ctypeIcEERNS_10unique_ptrIcPFvPvEEERPcSM_                                
0001a4f9  _ZNSt3__29money_getIcNS_19istreambuf_iteratorIcNS_11char_traitsIcEEEEED0Ev                                                                                                               
0001a949  _ZNSt3__29money_getIcNS_19istreambuf_iteratorIcNS_11char_traitsIcEEEEED1Ev                                                                                                               
2002122c  _ZNSt3__29money_getIwNS_19istreambuf_iteratorIwNS_11char_traitsIwEEEEE2idE                                                                                                               
000064e1  _ZNSt3__29money_getIwNS_19istreambuf_iteratorIwNS_11char_traitsIwEEEEE8__do_getERS4_S4_bRKNS_6localeEjRjRbRKNS_5ctypeIwEERNS_10unique_ptrIwPFvPvEEERPwSM_                                
0001a507  _ZNSt3__29money_getIwNS_19istreambuf_iteratorIwNS_11char_traitsIwEEEEED0Ev                                                                                                               
0001a94d  _ZNSt3__29money_getIwNS_19istreambuf_iteratorIwNS_11char_traitsIwEEEEED1Ev                                                                                                               
20021234  _ZNSt3__29money_putIcNS_19ostreambuf_iteratorIcNS_11char_traitsIcEEEEE2idE                                                                                                               
0001a515  _ZNSt3__29money_putIcNS_19ostreambuf_iteratorIcNS_11char_traitsIcEEEEED0Ev                                                                                                               
0001a951  _ZNSt3__29money_putIcNS_19ostreambuf_iteratorIcNS_11char_traitsIcEEEEED1Ev                                                                                                               
2002123c  _ZNSt3__29money_putIwNS_19ostreambuf_iteratorIwNS_11char_traitsIwEEEEE2idE                                                                                                               
0001a523  _ZNSt3__29money_putIwNS_19ostreambuf_iteratorIwNS_11char_traitsIwEEEEED0Ev                                                                                                               
0001a955  _ZNSt3__29money_putIwNS_19ostreambuf_iteratorIwNS_11char_traitsIwEEEEED1Ev                                                                                                               
0001898d  _ZNSt3__29to_stringEi                                                                                                                                                                    
00017169  _ZNSt3__2eqIcNS_11char_traitsIcEEEEbRKNS_19istreambuf_iteratorIT_T0_EES8_                                                                                                                
0000de19  _ZNSt3__2lsINS_11char_traitsIcEEEERNS_13basic_ostreamIcT_EES6_PKc                                                                                                                        
000171c7  _ZNSt3__2neIwNS_11char_traitsIwEEEEbRKNS_19istreambuf_iteratorIT_T0_EES8_                                                                                                                
0001503d  _ZNSt3__2plIcNS_11char_traitsIcEENS_9allocatorIcEEEENS_12basic_stringIT_T0_T1_EEPKS6_RKS9_                                                                                               
00015a89  _ZNSt3__2plIcNS_11char_traitsIcEENS_9allocatorIcEEEENS_12basic_stringIT_T0_T1_EERKS9_PKS6_                                                                                               
000162f7  _ZNSt9type_infoD1Ev                                                                                                                                                                      
000162f7  _ZNSt9type_infoD2Ev                                                                                                                                                                      
0001a5b9  _ZSt15get_new_handlerv                                                                                                                                                                   
0001a9d9  _ZSt17__throw_bad_allocv                                                                                                                                                                 
0001a959  _ZSt18uncaught_exceptionv                                                                                                                                                                
0001cca0  _ZTIN10__cxxabiv117__class_type_infoE                                                                                                                                                    
0001ccac  _ZTIN10__cxxabiv120__si_class_type_infoE                                                                                                                                                 
0001ccb8  _ZTIN10__cxxabiv121__vmi_class_type_infoE                                                                                                                                                
0001ccc4  _ZTINSt3__210__stdinbufIcEE                                                                                                                                                              
0001ccd0  _ZTINSt3__210__stdinbufIwEE                                                                                                                                                              
0001cd54  _ZTINSt3__210__time_putE                                                                                                                                                                 
0001cd5c  _ZTINSt3__210ctype_baseE                                                                                                                                                                 
0001cd64  _ZTINSt3__210money_baseE                                                                                                                                                                 
0001c388  _ZTINSt3__210moneypunctIcLb0EEE                                                                                                                                                          
0001c3a8  _ZTINSt3__210moneypunctIcLb1EEE                                                                                                                                                          
0001c3c8  _ZTINSt3__210moneypunctIwLb0EEE                                                                                                                                                          
0001c3e8  _ZTINSt3__210moneypunctIwLb1EEE                                                                                                                                                          
0001cd6c  _ZTINSt3__211__money_getIcEE                                                                                                                                                             
0001cd74  _ZTINSt3__211__money_getIwEE                                                                                                                                                             
0001cd7c  _ZTINSt3__211__money_putIcEE                                                                                                                                                             
0001cd84  _ZTINSt3__211__money_putIwEE                                                                                                                                                             
0001ccdc  _ZTINSt3__211__stdoutbufIcEE                                                                                                                                                             
0001cce8  _ZTINSt3__211__stdoutbufIwEE                                                                                                                                                             
0001cd8c  _ZTINSt3__212codecvt_baseE                                                                                                                                                               
0001c88c  _ZTINSt3__213basic_istreamIcNS_11char_traitsIcEEEE                                                                                                                                       
0001c8a4  _ZTINSt3__213basic_istreamIwNS_11char_traitsIwEEEE                                                                                                                                       
0001c8bc  _ZTINSt3__213basic_ostreamIcNS_11char_traitsIcEEEE                                                                                                                                       
0001c8d4  _ZTINSt3__213basic_ostreamIwNS_11char_traitsIwEEEE                                                                                                                                       
0001cd94  _ZTINSt3__213messages_baseE                                                                                                                                                              
0001cd9c  _ZTINSt3__214__num_get_baseE                                                                                                                                                             
0001cda4  _ZTINSt3__214__num_put_baseE                                                                                                                                                             
0001cdac  _ZTINSt3__214__shared_countE                                                                                                                                                             
0001cdb4  _ZTINSt3__215basic_streambufIcNS_11char_traitsIcEEEE                                                                                                                                     
0001cdbc  _ZTINSt3__215basic_streambufIwNS_11char_traitsIwEEEE                                                                                                                                     
0001cdc4  _ZTINSt3__220__time_get_c_storageIcEE                                                                                                                                                    
0001cdcc  _ZTINSt3__220__time_get_c_storageIwEE                                                                                                                                                    
0001c408  _ZTINSt3__25ctypeIcEE                                                                                                                                                                    
0001c428  _ZTINSt3__25ctypeIwEE                                                                                                                                                                    
0001ccf4  _ZTINSt3__26locale5__impE                                                                                                                                                                
0001cd00  _ZTINSt3__26locale5facetE                                                                                                                                                                
0001c448  _ZTINSt3__27codecvtIDiciEE                                                                                                                                                               
0001c468  _ZTINSt3__27codecvtIDsciEE                                                                                                                                                               
0001c488  _ZTINSt3__27codecvtIcciEE                                                                                                                                                                
0001c4a8  _ZTINSt3__27codecvtIwciEE                                                                                                                                                                
0001cd0c  _ZTINSt3__27collateIcEE                                                                                                                                                                  
0001cd18  _ZTINSt3__27collateIwEE                                                                                                                                                                  
0001c4c8  _ZTINSt3__27num_getIcNS_19istreambuf_iteratorIcNS_11char_traitsIcEEEEEE                                                                                                                  
0001c4e8  _ZTINSt3__27num_getIwNS_19istreambuf_iteratorIwNS_11char_traitsIwEEEEEE                                                                                                                  
0001c508  _ZTINSt3__27num_putIcNS_19ostreambuf_iteratorIcNS_11char_traitsIcEEEEEE                                                                                                                  
0001c528  _ZTINSt3__27num_putIwNS_19ostreambuf_iteratorIwNS_11char_traitsIwEEEEEE                                                                                                                  
0001cdd4  _ZTINSt3__28ios_baseE                                                                                                                                                                    
0001c548  _ZTINSt3__28messagesIcEE                                                                                                                                                                 
0001c568  _ZTINSt3__28messagesIwEE                                                                                                                                                                 
0001cd24  _ZTINSt3__28numpunctIcEE                                                                                                                                                                 
0001cd30  _ZTINSt3__28numpunctIwEE                                                                                                                                                                 
0001c1e8  _ZTINSt3__28time_getIcNS_19istreambuf_iteratorIcNS_11char_traitsIcEEEEEE                                                                                                                 
0001c210  _ZTINSt3__28time_getIwNS_19istreambuf_iteratorIwNS_11char_traitsIwEEEEEE                                                                                                                 
0001c588  _ZTINSt3__28time_putIcNS_19ostreambuf_iteratorIcNS_11char_traitsIcEEEEEE                                                                                                                 
0001c5a8  _ZTINSt3__28time_putIwNS_19ostreambuf_iteratorIwNS_11char_traitsIwEEEEEE                                                                                                                 
0001c8ec  _ZTINSt3__29__num_getIcEE                                                                                                                                                                
0001c904  _ZTINSt3__29__num_getIwEE                                                                                                                                                                
0001c91c  _ZTINSt3__29__num_putIcEE                                                                                                                                                                
0001c934  _ZTINSt3__29__num_putIwEE                                                                                                                                                                
0001cd3c  _ZTINSt3__29basic_iosIcNS_11char_traitsIcEEEE                                                                                                                                            
0001cd48  _ZTINSt3__29basic_iosIwNS_11char_traitsIwEEEE                                                                                                                                            
0001c5c8  _ZTINSt3__29money_getIcNS_19istreambuf_iteratorIcNS_11char_traitsIcEEEEEE                                                                                                                
0001c5e8  _ZTINSt3__29money_getIwNS_19istreambuf_iteratorIwNS_11char_traitsIwEEEEEE                                                                                                                
0001c608  _ZTINSt3__29money_putIcNS_19ostreambuf_iteratorIcNS_11char_traitsIcEEEEEE                                                                                                                
0001c628  _ZTINSt3__29money_putIwNS_19ostreambuf_iteratorIwNS_11char_traitsIwEEEEEE                                                                                                                
0001cddc  _ZTINSt3__29time_baseE                                                                                                                                                                   
0001cde4  _ZTISt9type_info                                                                                                                                                                         
0001c31f  _ZTSN10__cxxabiv117__class_type_infoE                                                                                                                                                    
0001c2fa  _ZTSN10__cxxabiv120__si_class_type_infoE                                                                                                                                                 
0001c2d4  _ZTSN10__cxxabiv121__vmi_class_type_infoE                                                                                                                                                
0001c94c  _ZTSNSt3__210__stdinbufIcEE                                                                                                                                                              
0001c964  _ZTSNSt3__210__stdinbufIwEE                                                                                                                                                              
0001cab9  _ZTSNSt3__210__time_putE                                                                                                                                                                 
0001cace  _ZTSNSt3__210ctype_baseE                                                                                                                                                                 
0001cae3  _ZTSNSt3__210money_baseE                                                                                                                                                                 
0001c6c8  _ZTSNSt3__210moneypunctIcLb0EEE                                                                                                                                                          
0001c6e4  _ZTSNSt3__210moneypunctIcLb1EEE                                                                                                                                                          
0001c700  _ZTSNSt3__210moneypunctIwLb0EEE                                                                                                                                                          
0001c71c  _ZTSNSt3__210moneypunctIwLb1EEE                                                                                                                                                          
0001c7a8  _ZTSNSt3__211__money_getIcEE                                                                                                                                                             
0001c7c1  _ZTSNSt3__211__money_getIwEE                                                                                                                                                             
0001c7da  _ZTSNSt3__211__money_putIcEE                                                                                                                                                             
0001c7f3  _ZTSNSt3__211__money_putIwEE                                                                                                                                                             
0001c80c  _ZTSNSt3__211__stdoutbufIcEE                                                                                                                                                             
0001c825  _ZTSNSt3__211__stdoutbufIwEE                                                                                                                                                             
0001c9c4  _ZTSNSt3__212codecvt_baseE                                                                                                                                                               
0001c0d8  _ZTSNSt3__213basic_istreamIcNS_11char_traitsIcEEEE                                                                                                                                       
0001c107  _ZTSNSt3__213basic_istreamIwNS_11char_traitsIwEEEE                                                                                                                                       
0001c136  _ZTSNSt3__213basic_ostreamIcNS_11char_traitsIcEEEE                                                                                                                                       
0001c165  _ZTSNSt3__213basic_ostreamIwNS_11char_traitsIwEEEE                                                                                                                                       
0001c97c  _ZTSNSt3__213messages_baseE                                                                                                                                                              
0001c83e  _ZTSNSt3__214__num_get_baseE                                                                                                                                                             
0001c857  _ZTSNSt3__214__num_put_baseE                                                                                                                                                             
0001c870  _ZTSNSt3__214__shared_countE                                                                                                                                                             
0001bec4  _ZTSNSt3__215basic_streambufIcNS_11char_traitsIcEEEE                                                                                                                                     
0001bef5  _ZTSNSt3__215basic_streambufIwNS_11char_traitsIwEEEE                                                                                                                                     
0001c341  _ZTSNSt3__220__time_get_c_storageIcEE                                                                                                                                                    
0001c363  _ZTSNSt3__220__time_get_c_storageIwEE                                                                                                                                                    
0001cbaf  _ZTSNSt3__25ctypeIcEE                                                                                                                                                                    
0001cbc1  _ZTSNSt3__25ctypeIwEE                                                                                                                                                                    
0001ca09  _ZTSNSt3__26locale5__impE                                                                                                                                                                
0001ca1f  _ZTSNSt3__26locale5facetE                                                                                                                                                                
0001c9db  _ZTSNSt3__27codecvtIDiciEE                                                                                                                                                               
0001c9f2  _ZTSNSt3__27codecvtIDsciEE                                                                                                                                                               
0001ca35  _ZTSNSt3__27codecvtIcciEE                                                                                                                                                                
0001ca4b  _ZTSNSt3__27codecvtIwciEE                                                                                                                                                                
0001cb4c  _ZTSNSt3__27collateIcEE                                                                                                                                                                  
0001cb60  _ZTSNSt3__27collateIwEE                                                                                                                                                                  
0001b9f4  _ZTSNSt3__27num_getIcNS_19istreambuf_iteratorIcNS_11char_traitsIcEEEEEE                                                                                                                  
0001ba38  _ZTSNSt3__27num_getIwNS_19istreambuf_iteratorIwNS_11char_traitsIwEEEEEE                                                                                                                  
0001ba7c  _ZTSNSt3__27num_putIcNS_19ostreambuf_iteratorIcNS_11char_traitsIcEEEEEE                                                                                                                  
0001bac0  _ZTSNSt3__27num_putIwNS_19ostreambuf_iteratorIwNS_11char_traitsIwEEEEEE                                                                                                                  
0001cbd3  _ZTSNSt3__28ios_baseE                                                                                                                                                                    
0001caf8  _ZTSNSt3__28messagesIcEE                                                                                                                                                                 
0001cb0d  _ZTSNSt3__28messagesIwEE                                                                                                                                                                 
0001cb22  _ZTSNSt3__28numpunctIcEE                                                                                                                                                                 
0001cb37  _ZTSNSt3__28numpunctIwEE                                                                                                                                                                 
0001b89c  _ZTSNSt3__28time_getIcNS_19istreambuf_iteratorIcNS_11char_traitsIcEEEEEE                                                                                                                 
0001b8e1  _ZTSNSt3__28time_getIwNS_19istreambuf_iteratorIwNS_11char_traitsIwEEEEEE                                                                                                                 
0001b926  _ZTSNSt3__28time_putIcNS_19ostreambuf_iteratorIcNS_11char_traitsIcEEEEEE                                                                                                                 
0001b96b  _ZTSNSt3__28time_putIwNS_19ostreambuf_iteratorIwNS_11char_traitsIwEEEEEE                                                                                                                 
0001ca61  _ZTSNSt3__29__num_getIcEE                                                                                                                                                                
0001ca77  _ZTSNSt3__29__num_getIwEE                                                                                                                                                                
0001ca8d  _ZTSNSt3__29__num_putIcEE                                                                                                                                                                
0001caa3  _ZTSNSt3__29__num_putIwEE                                                                                                                                                                
0001c194  _ZTSNSt3__29basic_iosIcNS_11char_traitsIcEEEE                                                                                                                                            
0001c1be  _ZTSNSt3__29basic_iosIwNS_11char_traitsIwEEEE                                                                                                                                            
0001b784  _ZTSNSt3__29money_getIcNS_19istreambuf_iteratorIcNS_11char_traitsIcEEEEEE                                                                                                                
0001b7ca  _ZTSNSt3__29money_getIwNS_19istreambuf_iteratorIwNS_11char_traitsIwEEEEEE                                                                                                                
0001b810  _ZTSNSt3__29money_putIcNS_19ostreambuf_iteratorIcNS_11char_traitsIcEEEEEE                                                                                                                
0001b856  _ZTSNSt3__29money_putIwNS_19ostreambuf_iteratorIwNS_11char_traitsIwEEEEEE                                                                                                                
0001cb9c  _ZTSNSt3__29time_baseE                                                                                                                                                                   
0001cc91  _ZTSSt9type_info                                                                                                                                                                         
0001bf80  _ZTTNSt3__213basic_istreamIcNS_11char_traitsIcEEEE                                                                                                                                       
0001bfb0  _ZTTNSt3__213basic_istreamIwNS_11char_traitsIwEEEE                                                                                                                                       
0001bfe0  _ZTTNSt3__213basic_ostreamIcNS_11char_traitsIcEEEE                                                                                                                                       
0001c010  _ZTTNSt3__213basic_ostreamIwNS_11char_traitsIwEEEE                                                                                                                                       
0001cc08  _ZTVN10__cxxabiv117__class_type_infoE                                                                                                                                                    
0001cc18  _ZTVN10__cxxabiv120__si_class_type_infoE                                                                                                                                                 
0001cc28  _ZTVN10__cxxabiv121__vmi_class_type_infoE                                                                                                                                                
0001bb48  _ZTVNSt3__210__stdinbufIcEE                                                                                                                                                              
0001bb88  _ZTVNSt3__210__stdinbufIwEE                                                                                                                                                              
0001bd48  _ZTVNSt3__210moneypunctIcLb0EEE                                                                                                                                                          
0001bd80  _ZTVNSt3__210moneypunctIcLb1EEE                                                                                                                                                          
0001bdb8  _ZTVNSt3__210moneypunctIwLb0EEE                                                                                                                                                          
0001bdf0  _ZTVNSt3__210moneypunctIwLb1EEE                                                                                                                                                          
0001bbc8  _ZTVNSt3__211__stdoutbufIcEE                                                                                                                                                             
0001bc08  _ZTVNSt3__211__stdoutbufIwEE                                                                                                                                                             
0001bf58  _ZTVNSt3__213basic_istreamIcNS_11char_traitsIcEEEE                                                                                                                                       
0001bf88  _ZTVNSt3__213basic_istreamIwNS_11char_traitsIwEEEE                                                                                                                                       
0001bfb8  _ZTVNSt3__213basic_ostreamIcNS_11char_traitsIcEEEE                                                                                                                                       
0001bfe8  _ZTVNSt3__213basic_ostreamIwNS_11char_traitsIwEEEE                                                                                                                                       
0001bc48  _ZTVNSt3__215basic_streambufIcNS_11char_traitsIcEEEE                                                                                                                                     
0001bc88  _ZTVNSt3__215basic_streambufIwNS_11char_traitsIwEEEE                                                                                                                                     
0001be28  _ZTVNSt3__25ctypeIcEE                                                                                                                                                                    
0001bb04  _ZTVNSt3__25ctypeIwEE                                                                                                                                                                    
0001cb74  _ZTVNSt3__26locale5__impE                                                                                                                                                                
0001cb88  _ZTVNSt3__26locale5facetE                                                                                                                                                                
0001c018  _ZTVNSt3__27codecvtIDiciEE                                                                                                                                                               
0001c048  _ZTVNSt3__27codecvtIDsciEE                                                                                                                                                               
0001c078  _ZTVNSt3__27codecvtIcciEE                                                                                                                                                                
0001c0a8  _ZTVNSt3__27codecvtIwciEE                                                                                                                                                                
0001c648  _ZTVNSt3__27collateIcEE                                                                                                                                                                  
0001c668  _ZTVNSt3__27collateIwEE                                                                                                                                                                  
0001bcc8  _ZTVNSt3__27num_getIcNS_19istreambuf_iteratorIcNS_11char_traitsIcEEEEEE                                                                                                                  
0001bd08  _ZTVNSt3__27num_getIwNS_19istreambuf_iteratorIwNS_11char_traitsIwEEEEEE                                                                                                                  
0001be5c  _ZTVNSt3__27num_putIcNS_19ostreambuf_iteratorIcNS_11char_traitsIcEEEEEE                                                                                                                  
0001be90  _ZTVNSt3__27num_putIwNS_19ostreambuf_iteratorIwNS_11char_traitsIwEEEEEE                                                                                                                  
0001cc38  _ZTVNSt3__28ios_baseE                                                                                                                                                                    
0001c688  _ZTVNSt3__28messagesIcEE                                                                                                                                                                 
0001c6a8  _ZTVNSt3__28messagesIwEE                                                                                                                                                                 
0001c238  _ZTVNSt3__28numpunctIcEE                                                                                                                                                                 
0001c260  _ZTVNSt3__28numpunctIwEE                                                                                                                                                                 
0001b690  _ZTVNSt3__28time_getIcNS_19istreambuf_iteratorIcNS_11char_traitsIcEEEEEE                                                                                                                 
0001b6e4  _ZTVNSt3__28time_getIwNS_19istreambuf_iteratorIwNS_11char_traitsIwEEEEEE                                                                                                                 
0001c994  _ZTVNSt3__28time_putIcNS_19ostreambuf_iteratorIcNS_11char_traitsIcEEEEEE                                                                                                                 
0001c9ac  _ZTVNSt3__28time_putIwNS_19ostreambuf_iteratorIwNS_11char_traitsIwEEEEEE                                                                                                                 
0001cc48  _ZTVNSt3__29basic_iosIcNS_11char_traitsIcEEEE                                                                                                                                            
0001cc58  _ZTVNSt3__29basic_iosIwNS_11char_traitsIwEEEE                                                                                                                                            
0001c738  _ZTVNSt3__29money_getIcNS_19istreambuf_iteratorIcNS_11char_traitsIcEEEEEE                                                                                                                
0001c754  _ZTVNSt3__29money_getIwNS_19istreambuf_iteratorIwNS_11char_traitsIwEEEEEE                                                                                                                
0001c770  _ZTVNSt3__29money_putIcNS_19ostreambuf_iteratorIcNS_11char_traitsIcEEEEEE                                                                                                                
0001c78c  _ZTVNSt3__29money_putIwNS_19ostreambuf_iteratorIwNS_11char_traitsIwEEEEEE                                                                                                                
0001a5c5  _ZTv0_n12_NSt3__213basic_istreamIcNS_11char_traitsIcEEED0Ev                                                                                                                              
0001a5d1  _ZTv0_n12_NSt3__213basic_istreamIcNS_11char_traitsIcEEED1Ev                                                                                                                              
0001a5dd  _ZTv0_n12_NSt3__213basic_istreamIwNS_11char_traitsIwEEED0Ev                                                                                                                              
0001a5e9  _ZTv0_n12_NSt3__213basic_istreamIwNS_11char_traitsIwEEED1Ev                                                                                                                              
0001a5f5  _ZTv0_n12_NSt3__213basic_ostreamIcNS_11char_traitsIcEEED0Ev                                                                                                                              
0001a601  _ZTv0_n12_NSt3__213basic_ostreamIcNS_11char_traitsIcEEED1Ev                                                                                                                              
0001a60d  _ZTv0_n12_NSt3__213basic_ostreamIwNS_11char_traitsIwEEED0Ev                                                                                                                              
0001a619  _ZTv0_n12_NSt3__213basic_ostreamIwNS_11char_traitsIwEEED1Ev                                                                                                                              
0001b4b9  _ZZNKSt3__220__vector_base_commonILb1EE20__throw_length_errorEvEs                                                                                                                        
0001cc77  _ZZNKSt3__221__basic_string_commonILb1EE20__throw_length_errorEvEs                                                                                                                       
0001cc84  _ZZNKSt3__221__basic_string_commonILb1EE20__throw_out_of_rangeEvEs                                                                                                                       
0001c385  _ZZNKSt3__27num_getIcNS_19istreambuf_iteratorIcNS_11char_traitsIcEEEEE6do_getES4_S4_RNS_8ios_baseERjRPvEs                                                                                
0001c889  _ZZNKSt3__27num_getIwNS_19istreambuf_iteratorIwNS_11char_traitsIwEEEEE6do_getES4_S4_RNS_8ios_baseERjRPvEs                                                                                
0001ce15  _ZZNKSt3__27num_putIcNS_19ostreambuf_iteratorIcNS_11char_traitsIcEEEEE6do_putES4_RNS_8ios_baseEcdEs                                                                                      
0001b1d2  _ZZNKSt3__27num_putIcNS_19ostreambuf_iteratorIcNS_11char_traitsIcEEEEE6do_putES4_RNS_8ios_baseEceEs                                                                                      
0001b636  _ZZNKSt3__27num_putIcNS_19ostreambuf_iteratorIcNS_11char_traitsIcEEEEE6do_putES4_RNS_8ios_baseEclEs                                                                                      
0001bf26  _ZZNKSt3__27num_putIcNS_19ostreambuf_iteratorIcNS_11char_traitsIcEEEEE6do_putES4_RNS_8ios_baseEcmEs                                                                                      
0001cbe5  _ZZNKSt3__27num_putIcNS_19ostreambuf_iteratorIcNS_11char_traitsIcEEEEE6do_putES4_RNS_8ios_baseEcxEs                                                                                      
0001ce08  _ZZNKSt3__27num_putIcNS_19ostreambuf_iteratorIcNS_11char_traitsIcEEEEE6do_putES4_RNS_8ios_baseEcyEs                                                                                      
0001ce16  _ZZNKSt3__27num_putIwNS_19ostreambuf_iteratorIwNS_11char_traitsIwEEEEE6do_putES4_RNS_8ios_baseEwdEs                                                                                      
0001cc9e  _ZZNKSt3__27num_putIwNS_19ostreambuf_iteratorIwNS_11char_traitsIwEEEEE6do_putES4_RNS_8ios_baseEweEs                                                                                      
0001ce11  _ZZNKSt3__27num_putIwNS_19ostreambuf_iteratorIwNS_11char_traitsIwEEEEE6do_putES4_RNS_8ios_baseEwlEs                                                                                      
0001ce13  _ZZNKSt3__27num_putIwNS_19ostreambuf_iteratorIwNS_11char_traitsIwEEEEE6do_putES4_RNS_8ios_baseEwmEs                                                                                      
0001ce0b  _ZZNKSt3__27num_putIwNS_19ostreambuf_iteratorIwNS_11char_traitsIwEEEEE6do_putES4_RNS_8ios_baseEwxEs                                                                                      
0001ce0e  _ZZNKSt3__27num_putIwNS_19ostreambuf_iteratorIwNS_11char_traitsIwEEEEE6do_putES4_RNS_8ios_baseEwyEs                                                                                      
0001cdf8  _ZZNKSt3__29money_getIcNS_19istreambuf_iteratorIcNS_11char_traitsIcEEEEE6do_getES4_S4_bRNS_8ios_baseERjReEs_0                                                                            
0001cdfc  _ZZNKSt3__29money_getIwNS_19istreambuf_iteratorIwNS_11char_traitsIwEEEEE6do_getES4_S4_bRNS_8ios_baseERjReEs_0                                                                            
0001cdec  _ZZNKSt3__29money_putIcNS_19ostreambuf_iteratorIcNS_11char_traitsIcEEEEE6do_putES4_bRNS_8ios_baseEceEs                                                                                   
0001cdf2  _ZZNKSt3__29money_putIwNS_19ostreambuf_iteratorIwNS_11char_traitsIwEEEEE6do_putES4_bRNS_8ios_baseEweEs                                                                                   
0001c288  _ZZNSt3__210__stdinbufIcE5imbueERKNS_6localeEEs                                                                                                                                          
0001c2ae  _ZZNSt3__210__stdinbufIwE5imbueERKNS_6localeEEs                                                                                                                                          
20021b40  _ZZNSt3__234_GLOBAL__N__10_locale_cpp_a71832034makeINS_10moneypunctIcLb0EEEjEERT_T0_E3buf                                                                                                
20021b48  _ZZNSt3__234_GLOBAL__N__10_locale_cpp_a71832034makeINS_10moneypunctIcLb1EEEjEERT_T0_E3buf                                                                                                
20021b50  _ZZNSt3__234_GLOBAL__N__10_locale_cpp_a71832034makeINS_10moneypunctIwLb0EEEjEERT_T0_E3buf                                                                                                
20021b58  _ZZNSt3__234_GLOBAL__N__10_locale_cpp_a71832034makeINS_10moneypunctIwLb1EEEjEERT_T0_E3buf                                                                                                
20021ae0  _ZZNSt3__234_GLOBAL__N__10_locale_cpp_a71832034makeINS_5ctypeIcEEDnbjEERT_T0_T1_T2_E3buf                                                                                                 
20021b60  _ZZNSt3__234_GLOBAL__N__10_locale_cpp_a71832034makeINS_5ctypeIwEEjEERT_T0_E3buf                                                                                                          
20021950  _ZZNSt3__234_GLOBAL__N__10_locale_cpp_a71832034makeINS_6locale5__impEjEERT_T0_E3buf                                                                                                      
20021b68  _ZZNSt3__234_GLOBAL__N__10_locale_cpp_a71832034makeINS_7codecvtIDiciEEjEERT_T0_E3buf                                                                                                     
20021b70  _ZZNSt3__234_GLOBAL__N__10_locale_cpp_a71832034makeINS_7codecvtIDsciEEjEERT_T0_E3buf                                                                                                     
20021b78  _ZZNSt3__234_GLOBAL__N__10_locale_cpp_a71832034makeINS_7codecvtIcciEEjEERT_T0_E3buf                                                                                                      
20021af0  _ZZNSt3__234_GLOBAL__N__10_locale_cpp_a71832034makeINS_7codecvtIwciEEjEERT_T0_E3buf                                                                                                      
20021b80  _ZZNSt3__234_GLOBAL__N__10_locale_cpp_a71832034makeINS_7collateIcEEjEERT_T0_E3buf                                                                                                        
20021b88  _ZZNSt3__234_GLOBAL__N__10_locale_cpp_a71832034makeINS_7collateIwEEjEERT_T0_E3buf                                                                                                        
20021b90  _ZZNSt3__234_GLOBAL__N__10_locale_cpp_a71832034makeINS_7num_getIcNS_19istreambuf_iteratorIcNS_11char_traitsIcEEEEEEjEERT_T0_E3buf                                                        
20021b98  _ZZNSt3__234_GLOBAL__N__10_locale_cpp_a71832034makeINS_7num_getIwNS_19istreambuf_iteratorIwNS_11char_traitsIwEEEEEEjEERT_T0_E3buf                                                        
20021ba0  _ZZNSt3__234_GLOBAL__N__10_locale_cpp_a71832034makeINS_7num_putIcNS_19ostreambuf_iteratorIcNS_11char_traitsIcEEEEEEjEERT_T0_E3buf                                                        
20021ba8  _ZZNSt3__234_GLOBAL__N__10_locale_cpp_a71832034makeINS_7num_putIwNS_19ostreambuf_iteratorIwNS_11char_traitsIwEEEEEEjEERT_T0_E3buf                                                        
20021bb0  _ZZNSt3__234_GLOBAL__N__10_locale_cpp_a71832034makeINS_8messagesIcEEjEERT_T0_E3buf                                                                                                       
20021bb8  _ZZNSt3__234_GLOBAL__N__10_locale_cpp_a71832034makeINS_8messagesIwEEjEERT_T0_E3buf                                                                                                       
20021ab0  _ZZNSt3__234_GLOBAL__N__10_locale_cpp_a71832034makeINS_8numpunctIcEEjEERT_T0_E3buf                                                                                                       
20021ac8  _ZZNSt3__234_GLOBAL__N__10_locale_cpp_a71832034makeINS_8numpunctIwEEjEERT_T0_E3buf                                                                                                       
20021b00  _ZZNSt3__234_GLOBAL__N__10_locale_cpp_a71832034makeINS_8time_getIcNS_19istreambuf_iteratorIcNS_11char_traitsIcEEEEEEjEERT_T0_E3buf                                                       
20021b10  _ZZNSt3__234_GLOBAL__N__10_locale_cpp_a71832034makeINS_8time_getIwNS_19istreambuf_iteratorIwNS_11char_traitsIwEEEEEEjEERT_T0_E3buf                                                       
20021b20  _ZZNSt3__234_GLOBAL__N__10_locale_cpp_a71832034makeINS_8time_putIcNS_19ostreambuf_iteratorIcNS_11char_traitsIcEEEEEEjEERT_T0_E3buf                                                       
20021b30  _ZZNSt3__234_GLOBAL__N__10_locale_cpp_a71832034makeINS_8time_putIwNS_19ostreambuf_iteratorIwNS_11char_traitsIwEEEEEEjEERT_T0_E3buf                                                       
20021bc0  _ZZNSt3__234_GLOBAL__N__10_locale_cpp_a71832034makeINS_9money_getIcNS_19istreambuf_iteratorIcNS_11char_traitsIcEEEEEEjEERT_T0_E3buf                                                      
20021bc8  _ZZNSt3__234_GLOBAL__N__10_locale_cpp_a71832034makeINS_9money_getIwNS_19istreambuf_iteratorIwNS_11char_traitsIwEEEEEEjEERT_T0_E3buf                                                      
20021bd0  _ZZNSt3__234_GLOBAL__N__10_locale_cpp_a71832034makeINS_9money_putIcNS_19ostreambuf_iteratorIcNS_11char_traitsIcEEEEEEjEERT_T0_E3buf                                                      
20021bd8  _ZZNSt3__234_GLOBAL__N__10_locale_cpp_a71832034makeINS_9money_putIwNS_19ostreambuf_iteratorIwNS_11char_traitsIwEEEEEEjEERT_T0_E3buf                                                      
0001ce00  _ZZNSt3__234_GLOBAL__N__10_string_cpp_11932bae12throw_helperISt12out_of_rangeEEvRKNS_12basic_stringIcNS_11char_traitsIcEENS_9allocatorIcEEEEEs                                           
0001ce04  _ZZNSt3__234_GLOBAL__N__10_string_cpp_11932bae12throw_helperISt16invalid_argumentEEvRKNS_12basic_stringIcNS_11char_traitsIcEENS_9allocatorIcEEEEEs                                       
0001cbf8  _ZZNSt3__234_GLOBAL__N__10_string_cpp_11932bae29throw_from_string_invalid_argERKNS_12basic_stringIcNS_11char_traitsIcEENS_9allocatorIcEEEEEs                                             
0001cc68  _ZZNSt3__234_GLOBAL__N__10_string_cpp_11932bae30throw_from_string_out_of_rangeERKNS_12basic_stringIcNS_11char_traitsIcEENS_9allocatorIcEEEEEs                                            
0001b9b0  _ZZNSt3__29allocatorIwE8allocateEjPKvEs                                                                                                                                                  
0001a9b9  _ZdaPv                                                                                                                                                                                   
0001a761  _ZdlPv                                                                                                                                                                                   
0001a9bd  _ZdlPvj                                                                                                                                                                                  
0001a9c1  _Znaj                                                                                                                                                                                    
000195b7  _Znwj                                                                                                                                                                                    
20021830  __CIOBUF_                                                                                                                                                                                
20010000  __STACK_END                                                                                                                                                                              
00010000  __STACK_SIZE                                                                                                                                                                             
20000200  __STACK_TOP                                                                                                                                                                              
00010000  __SYSMEM_SIZE                                                                                                                                                                            
0001cee0  __TI_CINIT_Base                                                                                                                                                                          
0001cef0  __TI_CINIT_Limit                                                                                                                                                                         
0001cecc  __TI_Handler_Table_Base                                                                                                                                                                  
0001ced8  __TI_Handler_Table_Limit                                                                                                                                                                 
0001704d  __TI_auto_init_nobinit                                                                                                                                                                   
00014801  __TI_buff_read                                                                                                                                                                           
000189c1  __TI_cleanup                                                                                                                                                                             
20021184  __TI_cleanup_ptr                                                                                                                                                                         
000165b1  __TI_closefile                                                                                                                                                                           
00016d29  __TI_decompress_lzss                                                                                                                                                                     
0001a531  __TI_decompress_none                                                                                                                                                                     
00017901  __TI_doflush                                                                                                                                                                             
20021188  __TI_dtors_ptr                                                                                                                                                                           
2002118c  __TI_enable_exit_profile_output                                                                                                                                                          
20021174  __TI_ft_end                                                                                                                                                                              
ffffffff  __TI_pprof_out_hndl                                                                                                                                                                      
00005129  __TI_printfi                                                                                                                                                                             
ffffffff  __TI_prof_data_size                                                                                                                                                                      
ffffffff  __TI_prof_data_start                                                                                                                                                                     
00017a2f  __TI_rd_ok                                                                                                                                                                               
000189f5  __TI_readmsg                                                                                                                                                                             
00004639  __TI_scanfi                                                                                                                                                                              
00000000  __TI_static_base__                                                                                                                                                                       
200219f0  __TI_tmpnams                                                                                                                                                                             
0001880d  __TI_writemsg                                                                                                                                                                            
00016f89  __TI_wrt_ok                                                                                                                                                                              
0001a63d  __TI_zero_init                                                                                                                                                                           
0001a9c5  ___mb_cur_max_l                                                                                                                                                                          
0001a9c9  __abort_execution                                                                                                                                                                        
00018a29  __aeabi_atexit                                                                                                                                                                           
00015385  __aeabi_cdcmpeq                                                                                                                                                                          
00015385  __aeabi_cdcmple                                                                                                                                                                          
0001540b  __aeabi_cdrcmple                                                                                                                                                                         
00016705  __aeabi_d2f                                                                                                                                                                              
00017c71  __aeabi_d2iz                                                                                                                                                                             
0000dfe7  __aeabi_dadd                                                                                                                                                                             
000112bd  __aeabi_ddiv                                                                                                                                                                             
0001256b  __aeabi_dmul                                                                                                                                                                             
0000dfdd  __aeabi_dsub                                                                                                                                                                             
0001a769  __aeabi_errno_addr                                                                                                                                                                       
0001904f  __aeabi_i2d                                                                                                                                                                              
000173eb  __aeabi_idiv0                                                                                                                                                                            
000173eb  __aeabi_ldiv0                                                                                                                                                                            
00019e91  __aeabi_lmul                                                                                                                                                                             
00015c75  __aeabi_memclr                                                                                                                                                                           
00015c75  __aeabi_memclr4                                                                                                                                                                          
00015c75  __aeabi_memclr8                                                                                                                                                                          
0001489d  __aeabi_memcpy                                                                                                                                                                           
0001489d  __aeabi_memcpy4                                                                                                                                                                          
0001489d  __aeabi_memcpy8                                                                                                                                                                          
00015c77  __aeabi_memset                                                                                                                                                                           
00015c77  __aeabi_memset4                                                                                                                                                                          
00015c77  __aeabi_memset8                                                                                                                                                                          
20021180  __aeabi_stderr                                                                                                                                                                           
20021178  __aeabi_stdin                                                                                                                                                                            
2002117c  __aeabi_stdout                                                                                                                                                                           
00014cc5  __aeabi_uldivmod                                                                                                                                                                         
ffffffff  __binit__                                                                                                                                                                                
ffffffff  __c_args__                                                                                                                                                                               
0001a625  __cxa_guard_acquire                                                                                                                                                                      
0001a70f  __cxa_guard_release                                                                                                                                                                      
0001a631  __cxa_ia64_exit                                                                                                                                                                          
000194e5  __cxa_vec_ctor                                                                                                                                                                           
00019bed  __cxa_vec_dtor                                                                                                                                                                           
20021be8  __dso_handle                                                                                                                                                                             
UNDEFED   __mpu_init                                                                                                                                                                               
20000000  __stack                                                                                                                                                                                  
00006d51  __sti___11_Monitor_cpp_3f121771                                                                                                                                                          
0001971d  __sti___12_iostream_cpp_d173592a__prio101                                                                                                                                                
00000209  __sti___13_ZooKeeper_cpp_aardvark                                                                                                                                                        
00003a51  __sti___15_TimeHandler_cpp_6e5cdf1e                                                                                                                                                      
00002c79  __sti___16_ComandCenter_cpp_a0fed181                                                                                                                                                     
00008ded  __sti___16_GlobalConfig_cpp_27e1c5b7                                                                                                                                                     
000091ad  __sti___8_main_cpp_main                                                                                                                                                                  
000113f5  __vla_alloc                                                                                                                                                                              
00015f49  __vla_dealloc                                                                                                                                                                            
00018845  _c_int00_noargs                                                                                                                                                                          
0001b3b8  _ctypes_                                                                                                                                                                                 
2002108c  _device                                                                                                                                                                                  
20020f9c  _ftable                                                                                                                                                                                  
2002119c  _lock                                                                                                                                                                                    
00016e5b  _nop                                                                                                                                                                                     
20021104  _stream                                                                                                                                                                                  
20010000  _sys_memory                                                                                                                                                                              
UNDEFED   _system_post_cinit                                                                                                                                                                       
0001a9d5  _system_pre_init                                                                                                                                                                         
20021164  _tz                                                                                                                                                                                      
200211a0  _unlock                                                                                                                                                                                  
20021650  aardvark                                                                                                                                                                                 
0001a9d9  abort                                                                                                                                                                                    
00019cc3  asprintf_l                                                                                                                                                                               
0001794d  atoi                                                                                                                                                                                     
2002165c  beaver                                                                                                                                                                                   
ffffffff  binit                                                                                                                                                                                    
00017281  close                                                                                                                                                                                    
0001a025  copysign                                                                                                                                                                                 
0001a0ab  copysignf                                                                                                                                                                                
0001a025  copysignl                                                                                                                                                                                
20021668  cow                                                                                                                                                                                      
20021674  dog                                                                                                                                                                                      
20021680  elephant                                                                                                                                                                                 
2002125c  errno                                                                                                                                                                                    
00017c29  exit                                                                                                                                                                                     
00015b05  fflush                                                                                                                                                                                   
00015599  fgetc                                                                                                                                                                                    
00015599  fgetwc                                                                                                                                                                                   
00018dc9  finddevice                                                                                                                                                                               
00016e5d  fprintf                                                                                                                                                                                  
00015271  fputc                                                                                                                                                                                    
00011d01  fputs                                                                                                                                                                                    
000132f5  free                                                                                                                                                                                     
00016feb  freelocale                                                                                                                                                                               
00016ec1  frexp                                                                                                                                                                                    
00016ec1  frexpl                                                                                                                                                                                   
2002168c  frog                                                                                                                                                                                     
00016f25  fseek                                                                                                                                                                                    
0000ff19  fwrite                                                                                                                                                                                   
00000000  g_pfnVectors                                                                                                                                                                             
00015599  getc                                                                                                                                                                                     
0001807d  getdevice                                                                                                                                                                                
20021698  gorilla                                                                                                                                                                                  
200216a4  horse                                                                                                                                                                                    
0001973d  iswlower                                                                                                                                                                                 
200216b0  kangaroo                                                                                                                                                                                 
00012039  ldexp                                                                                                                                                                                    
00013641  ldexpf                                                                                                                                                                                   
00012039  ldexpl                                                                                                                                                                                   
200216bc  lizard                                                                                                                                                                                   
000191d5  lseek                                                                                                                                                                                    
000175a1  ltoa                                                                                                                                                                                     
00009191  main                                                                                                                                                                                     
00015fc1  malloc                                                                                                                                                                                   
0001a649  mbrlen                                                                                                                                                                                   
0001a9dd  mbrlen_l                                                                                                                                                                                 
0001930d  mbrtowc                                                                                                                                                                                  
0001a9e1  mbrtowc_l                                                                                                                                                                                
000176e7  mbsnrtowcs                                                                                                                                                                               
0001a655  mbsnrtowcs_l                                                                                                                                                                             
0001a261  mbsrtowcs                                                                                                                                                                                
0001a9e5  mbsrtowcs_l                                                                                                                                                                              
00019021  mbtowc                                                                                                                                                                                   
0001a9e9  mbtowc_l                                                                                                                                                                                 
00019c09  memccpy                                                                                                                                                                                  
0001975d  memchr                                                                                                                                                                                   
00019509  memcmp                                                                                                                                                                                   
0001489d  memcpy                                                                                                                                                                                   
0001952d  memmove                                                                                                                                                                                  
00015c7d  memset                                                                                                                                                                                   
0001887d  minit                                                                                                                                                                                    
200216c8  moose                                                                                                                                                                                    
0001a9ed  newlocale                                                                                                                                                                                
200216d4  octopus                                                                                                                                                                                  
20021be0  parmbuf                                                                                                                                                                                  
200216e0  parrot                                                                                                                                                                                   
00015271  putc                                                                                                                                                                                     
200216ec  rabbit                                                                                                                                                                                   
00019225  read                                                                                                                                                                                     
00011e15  realloc                                                                                                                                                                                  
00019101  remove                                                                                                                                                                                   
00012039  scalbn                                                                                                                                                                                   
00013641  scalbnf                                                                                                                                                                                  
00012039  scalbnl                                                                                                                                                                                  
200216f8  scorpion                                                                                                                                                                                 
00013065  setvbuf                                                                                                                                                                                  
00017999  snprintf                                                                                                                                                                                 
00019c25  snprintf_l                                                                                                                                                                               
000188b5  sscanf                                                                                                                                                                                   
00019cdd  sscanf_l                                                                                                                                                                                 
00019f31  strchr                                                                                                                                                                                   
00019ea9  strcmp                                                                                                                                                                                   
0001a039  strcpy                                                                                                                                                                                   
000075a1  strftime                                                                                                                                                                                 
0001a9f1  strftime_l                                                                                                                                                                               
0001a04d  strlen                                                                                                                                                                                   
000188ed  strncpy                                                                                                                                                                                  
00019ec1  strrchr                                                                                                                                                                                  
00007e65  strtod                                                                                                                                                                                   
0001a271  strtod_l                                                                                                                                                                                 
000082c5  strtof                                                                                                                                                                                   
0001a9f5  strtof_l                                                                                                                                                                                 
00011529  strtol                                                                                                                                                                                   
00007e65  strtold                                                                                                                                                                                  
0001a281  strtold_l                                                                                                                                                                                
0000c835  strtoll                                                                                                                                                                                  
0001a9f9  strtoll_l                                                                                                                                                                                
00012149  strtoul                                                                                                                                                                                  
000104d5  strtoull                                                                                                                                                                                 
0001a9fd  strtoull_l                                                                                                                                                                               
20021704  turtle                                                                                                                                                                                   
0001571d  ungetc                                                                                                                                                                                   
20021710  unicorn                                                                                                                                                                                  
00019101  unlink                                                                                                                                                                                   
00018923  vasprintf                                                                                                                                                                                
0001a779  vasprintf_l                                                                                                                                                                              
00018385  vsnprintf                                                                                                                                                                                
0001977d  vsscanf                                                                                                                                                                                  
2002171c  vulture                                                                                                                                                                                  
0001979d  wcrtomb                                                                                                                                                                                  
0001aa01  wcrtomb_l                                                                                                                                                                                
0001a0bd  wcslen                                                                                                                                                                                   
00016125  wcsnrtombs                                                                                                                                                                               
0001a66d  wcsnrtombs_l                                                                                                                                                                             
0001a811  wmemcpy                                                                                                                                                                                  
0001a817  wmemmove                                                                                                                                                                                 
0001a061  wmemset                                                                                                                                                                                  
20021728  wolf                                                                                                                                                                                     
0001924d  write                                                                                                                                                                                    
20021734  zebra                                                                                                                                                                                    


GLOBAL SYMBOLS: SORTED BY Symbol Address 

address   name                                                                                                                                                                                     
-------   ----                                                                                                                                                                                     
00000000  __TI_static_base__                                                                                                                                                                       
00000000  g_pfnVectors                                                                                                                                                                             
00000209  __sti___13_ZooKeeper_cpp_aardvark                                                                                                                                                        
00002c79  __sti___16_ComandCenter_cpp_a0fed181                                                                                                                                                     
00002fa9  _ZN13CommandCenter10ZooCommandENSt3__212basic_stringIcNS0_11char_traitsIcEENS0_9allocatorIcEEEE                                                                                          
0000318b  _ZN13CommandCenter8SafeStoiENSt3__212basic_stringIcNS0_11char_traitsIcEENS0_9allocatorIcEEEE                                                                                             
00003205  _ZN13CommandCenter12ParseTimeArgERNSt3__212basic_stringIcNS0_11char_traitsIcEENS0_9allocatorIcEEEER3smh                                                                                  
0000335f  _ZN13CommandCenter12AlarmCommandENSt3__212basic_stringIcNS0_11char_traitsIcEENS0_9allocatorIcEEEE                                                                                        
0000347b  _ZN13CommandCenter7ToUpperERNSt3__212basic_stringIcNS0_11char_traitsIcEENS0_9allocatorIcEEEE                                                                                             
000034d5  _ZN13CommandCenter12ParseDateArgERNSt3__212basic_stringIcNS0_11char_traitsIcEENS0_9allocatorIcEEEER3dmy                                                                                  
000036a5  _ZN13CommandCenter11DateCommandENSt3__212basic_stringIcNS0_11char_traitsIcEENS0_9allocatorIcEEEE                                                                                         
00003757  _ZN13CommandCenter11TimeCommandENSt3__212basic_stringIcNS0_11char_traitsIcEENS0_9allocatorIcEEEE                                                                                         
000037c1  _ZN13CommandCenterC1Ev                                                                                                                                                                   
000037c1  _ZN13CommandCenterC2Ev                                                                                                                                                                   
000037dd  _ZN13CommandCenter16GetCommandCenterEv                                                                                                                                                   
000037ff  _ZN13CommandCenter13SingletonGrabEv                                                                                                                                                      
00003815  _ZN13CommandCenter13HandleCommandENSt3__212basic_stringIcNS0_11char_traitsIcEENS0_9allocatorIcEEEE                                                                                       
00003a51  __sti___15_TimeHandler_cpp_6e5cdf1e                                                                                                                                                      
00003d01  _ZNK11TimeHandler18LexicalIntToStringEth                                                                                                                                                 
00003e05  _ZNK11TimeHandler16CheckAlarmActiveEv                                                                                                                                                    
00003e11  _ZNK11TimeHandler14CheckValidTimeER3smh                                                                                                                                                  
00003e41  _ZNK11TimeHandler13CheckLeapYearEt                                                                                                                                                       
00003ea5  _ZNK11TimeHandler14CheckValidDateER3dmy                                                                                                                                                  
00003f35  _ZNK11TimeHandler12CreateSMHStrER3smh                                                                                                                                                    
000040cd  _ZNK11TimeHandler12CreateDMYStrER3dmy                                                                                                                                                    
0000420d  _ZN11TimeHandlerC1Ev                                                                                                                                                                     
0000420d  _ZN11TimeHandlerC2Ev                                                                                                                                                                     
0000423b  _ZN11TimeHandler8TickYearEv                                                                                                                                                              
0000425f  _ZN11TimeHandler9TickMonthEv                                                                                                                                                             
00004277  _ZN11TimeHandler7TickDayEv                                                                                                                                                               
000042a5  _ZN11TimeHandler8TickHourEv                                                                                                                                                              
000042bb  _ZN11TimeHandler10FutureTimeER3smh                                                                                                                                                       
00004307  _ZN11TimeHandler17PrintCurrentAlarmEv                                                                                                                                                    
00004375  _ZN11TimeHandler8SetAlarmER5alarm                                                                                                                                                        
000043b3  _ZN11TimeHandler7TickMinEv                                                                                                                                                               
000043c9  _ZN11TimeHandler7TickSecEv                                                                                                                                                               
000043df  _ZN11TimeHandler7SetTimeER3smh                                                                                                                                                           
00004411  _ZN11TimeHandler7SetDateER3dmy                                                                                                                                                           
00004433  _ZN11TimeHandler16PrintCurrentTimeEv                                                                                                                                                     
0000448d  _ZN11TimeHandler16PrintCurrentDateEv                                                                                                                                                     
000044e7  _ZN11TimeHandler14GetTimeHandlerEv                                                                                                                                                       
00004505  _ZN11TimeHandler14GetCurrentTimeEv                                                                                                                                                       
0000450d  _ZN11TimeHandler13SingletonGrabEv                                                                                                                                                        
0000451d  _ZN11TimeHandler10CheckAlarmEv                                                                                                                                                           
000045d5  _ZN11TimeHandler12TickTenthSecEv                                                                                                                                                         
00004639  __TI_scanfi                                                                                                                                                                              
00005129  __TI_printfi                                                                                                                                                                             
00005b87  _ZNKSt3__222__compressed_pair_elemINS_12basic_stringIcNS_11char_traitsIcEENS_9allocatorIcEEE5__repELi0ELb0EE5__getEv                                                                     
00005b89  _ZNSt3__29money_getIcNS_19istreambuf_iteratorIcNS_11char_traitsIcEEEEE8__do_getERS4_S4_bRKNS_6localeEjRjRbRKNS_5ctypeIcEERNS_10unique_ptrIcPFvPvEEERPcSM_                                
000064df  _ZNKSt3__222__compressed_pair_elemINS_12basic_stringIwNS_11char_traitsIwEENS_9allocatorIwEEE5__repELi0ELb0EE5__getEv                                                                     
000064e1  _ZNSt3__29money_getIwNS_19istreambuf_iteratorIwNS_11char_traitsIwEEEEE8__do_getERS4_S4_bRKNS_6localeEjRjRbRKNS_5ctypeIwEERNS_10unique_ptrIwPFvPvEEERPwSM_                                
00006d51  __sti___11_Monitor_cpp_3f121771                                                                                                                                                          
00006fed  _ZN7MonitorD1Ev                                                                                                                                                                          
00006fed  _ZN7MonitorD2Ev                                                                                                                                                                          
00007007  _ZN7MonitorC1Ev                                                                                                                                                                          
00007007  _ZN7MonitorC2Ev                                                                                                                                                                          
00007031  _ZN7Monitor8PrintMsgENSt3__212basic_stringIcNS0_11char_traitsIcEENS0_9allocatorIcEEEE                                                                                                    
00007071  _ZN7Monitor19RePrintOutputBufferEv                                                                                                                                                       
00007135  _ZN7Monitor13HandleSYSTICKEv                                                                                                                                                             
00007149  _ZN7Monitor12PrintNewLineEv                                                                                                                                                              
00007211  _ZN7Monitor10HandleUARTEc                                                                                                                                                                
000073cf  _ZN7Monitor19CheckMessageHandlerER7MsgTypeRc                                                                                                                                             
00007413  _ZN7Monitor13SingletonGrabEv                                                                                                                                                             
0000742b  _ZN7Monitor13PrintErrorMsgENSt3__212basic_stringIcNS0_11char_traitsIcEENS0_9allocatorIcEEEE                                                                                              
00007491  _ZN7Monitor11CentralLoopEv                                                                                                                                                               
00007511  _ZN7Monitor10GetMonitorEv                                                                                                                                                                
000075a1  strftime                                                                                                                                                                                 
00007a05  _ZNSt3__26locale5__impC1Ej                                                                                                                                                               
00007a05  _ZNSt3__26locale5__impC2Ej                                                                                                                                                               
00007e65  strtod                                                                                                                                                                                   
00007e65  strtold                                                                                                                                                                                  
000082c5  strtof                                                                                                                                                                                   
0000868d  _ZNSt3__211__money_getIcE13__gather_infoEbRKNS_6localeERNS_10money_base7patternERcS8_RNS_12basic_stringIcNS_11char_traitsIcEENS_9allocatorIcEEEESF_SF_SF_Ri                              
00008a3d  _ZNSt3__211__money_getIwE13__gather_infoEbRKNS_6localeERNS_10money_base7patternERwS8_RNS_12basic_stringIcNS_11char_traitsIcEENS_9allocatorIcEEEERNS9_IwNSA_IwEENSC_IwEEEESJ_SJ_Ri        
00008ded  __sti___16_GlobalConfig_cpp_27e1c5b7                                                                                                                                                     
00009061  _Z21InterruptMasterEnablev                                                                                                                                                               
00009065  _Z15InterruptEnablem                                                                                                                                                                     
00009079  _Z14SingletonSetupv                                                                                                                                                                      
00009191  main                                                                                                                                                                                     
000091ad  __sti___8_main_cpp_main                                                                                                                                                                  
00009501  _ZNSt3__211__money_putIcE13__gather_infoEbbRKNS_6localeERNS_10money_base7patternERcS8_RNS_12basic_stringIcNS_11char_traitsIcEENS_9allocatorIcEEEESF_SF_Ri                                
00009849  _ZNSt3__211__money_putIwE13__gather_infoEbbRKNS_6localeERNS_10money_base7patternERwS8_RNS_12basic_stringIcNS_11char_traitsIcEENS_9allocatorIcEEEERNS9_IwNSA_IwEENSC_IwEEEESJ_Ri          
00009b91  _ZNKSt3__28time_getIcNS_19istreambuf_iteratorIcNS_11char_traitsIcEEEEE6do_getES4_S4_RNS_8ios_baseERjP2tmcc                                                                               
00009e8d  _ZNKSt3__28time_getIwNS_19istreambuf_iteratorIwNS_11char_traitsIwEEEEE6do_getES4_S4_RNS_8ios_baseERjP2tmcc                                                                               
0000a185  _ZNSt3__211__money_putIwE8__formatEPwRS2_S3_jPKwS5_RKNS_5ctypeIwEEbRKNS_10money_base7patternEwwRKNS_12basic_stringIcNS_11char_traitsIcEENS_9allocatorIcEEEERKNSE_IwNSF_IwEENSH_IwEEEESQ_i
0000a429  _ZNSt3__211__money_putIcE8__formatEPcRS2_S3_jPKcS5_RKNS_5ctypeIcEEbRKNS_10money_base7patternEccRKNS_12basic_stringIcNS_11char_traitsIcEENS_9allocatorIcEEEESL_SL_i                       
0000a6c3  _ZNKSt3__28messagesIcE8do_closeEi                                                                                                                                                        
0000a6c5  _ZNSt3__28ios_base4InitC1Ev                                                                                                                                                              
0000a6c5  _ZNSt3__28ios_base4InitC2Ev                                                                                                                                                              
0000a959  _ZNKSt3__220__time_get_c_storageIwE8__monthsEv                                                                                                                                           
0000abd1  _ZNKSt3__29money_getIcNS_19istreambuf_iteratorIcNS_11char_traitsIcEEEEE6do_getES4_S4_bRNS_8ios_baseERjRNS_12basic_stringIcS3_NS_9allocatorIcEEEE                                         
0000ae45  _ZNSt3__29__num_putIwE23__widen_and_group_floatEPcS2_S2_PwRS3_S4_RKNS_6localeE                                                                                                           
0000b329  _ZNSt3__29__num_putIcE23__widen_and_group_floatEPcS2_S2_S2_RS2_S3_RKNS_6localeE                                                                                                          
0000b591  _ZNKSt3__29money_putIwNS_19ostreambuf_iteratorIwNS_11char_traitsIwEEEEE6do_putES4_bRNS_8ios_baseEwe                                                                                      
0000b7e1  _ZNKSt3__29money_getIwNS_19istreambuf_iteratorIwNS_11char_traitsIwEEEEE6do_getES4_S4_bRNS_8ios_baseERjRNS_12basic_stringIwS3_NS_9allocatorIwEEEE                                         
0000ba29  _ZNKSt3__29money_putIcNS_19ostreambuf_iteratorIcNS_11char_traitsIcEEEEE6do_putES4_bRNS_8ios_baseEce                                                                                      
0000bc65  _ZN13ISRMsgHandlerD1Ev                                                                                                                                                                   
0000bc65  _ZN13ISRMsgHandlerD2Ev                                                                                                                                                                   
0000bc91  _ZN13ISRMsgHandlerC1Ev                                                                                                                                                                   
0000bc91  _ZN13ISRMsgHandlerC2Ev                                                                                                                                                                   
0000bce5  _ZN13ISRMsgHandler8QueueMsgE7MsgTypec                                                                                                                                                    
0000bd1f  _ZN13ISRMsgHandler17OutputBufferEmptyEv                                                                                                                                                  
0000bd2f  _ZN13ISRMsgHandler16GetISRMsgHandlerEv                                                                                                                                                   
0000bd4d  _ZN13ISRMsgHandler14QueueOutputMsgENSt3__212basic_stringIcNS0_11char_traitsIcEENS0_9allocatorIcEEEE                                                                                      
0000bde7  _ZN13ISRMsgHandler13SingletonGrabEv                                                                                                                                                      
0000bdf3  _ZN13ISRMsgHandler13GetOutputCharEv                                                                                                                                                      
0000be19  _ZN13ISRMsgHandler13CheckISRQueueEv                                                                                                                                                      
0000be29  _ZN13ISRMsgHandler12GetFromQueueER7MsgTypeRc                                                                                                                                             
0000be71  _ZNKSt3__220__time_get_c_storageIcE8__monthsEv                                                                                                                                           
0000c06d  _ZNKSt3__29money_putIwNS_19ostreambuf_iteratorIwNS_11char_traitsIwEEEEE6do_putES4_bRNS_8ios_baseEwRKNS_12basic_stringIwS3_NS_9allocatorIwEEEE                                            
0000c265  _ZNKSt3__29money_putIcNS_19ostreambuf_iteratorIcNS_11char_traitsIcEEEEE6do_putES4_bRNS_8ios_baseEcRKNS_12basic_stringIcS3_NS_9allocatorIcEEEE                                            
0000c459  _ZNSt3__214__scan_keywordINS_19istreambuf_iteratorIcNS_11char_traitsIcEEEEPKNS_12basic_stringIcS3_NS_9allocatorIcEEEENS_5ctypeIcEEEET0_RT_SE_SD_SD_RKT1_Rjb                              
0000c649  _ZNSt3__214__scan_keywordINS_19istreambuf_iteratorIwNS_11char_traitsIwEEEEPKNS_12basic_stringIwS3_NS_9allocatorIwEEEENS_5ctypeIwEEEET0_RT_SE_SD_SD_RKT1_Rjb                              
0000c835  strtoll                                                                                                                                                                                  
0000ca11  _ZNKSt3__27num_getIwNS_19istreambuf_iteratorIwNS_11char_traitsIwEEEEE15__do_get_signedIlEES4_S4_S4_RNS_8ios_baseERjRT_                                                                   
0000cbe9  _ZNKSt3__27num_getIwNS_19istreambuf_iteratorIwNS_11char_traitsIwEEEEE15__do_get_signedIxEES4_S4_S4_RNS_8ios_baseERjRT_                                                                   
0000cdc1  _ZNKSt3__27num_getIwNS_19istreambuf_iteratorIwNS_11char_traitsIwEEEEE17__do_get_unsignedIjEES4_S4_S4_RNS_8ios_baseERjRT_                                                                 
0000cf99  _ZNKSt3__27num_getIwNS_19istreambuf_iteratorIwNS_11char_traitsIwEEEEE17__do_get_unsignedImEES4_S4_S4_RNS_8ios_baseERjRT_                                                                 
0000d171  _ZNKSt3__27num_getIwNS_19istreambuf_iteratorIwNS_11char_traitsIwEEEEE17__do_get_unsignedItEES4_S4_S4_RNS_8ios_baseERjRT_                                                                 
0000d349  _ZNKSt3__27num_getIwNS_19istreambuf_iteratorIwNS_11char_traitsIwEEEEE17__do_get_unsignedIyEES4_S4_S4_RNS_8ios_baseERjRT_                                                                 
0000d8c1  _ZNSt3__29__num_putIwE21__widen_and_group_intEPcS2_S2_PwRS3_S4_RKNS_6localeE                                                                                                             
0000da8d  _ZNSt3__29__num_putIcE21__widen_and_group_intEPcS2_S2_S2_RS2_S3_RKNS_6localeE                                                                                                            
0000dc55  _ZNKSt3__27num_getIwNS_19istreambuf_iteratorIwNS_11char_traitsIwEEEEE6do_getES4_S4_RNS_8ios_baseERjRPv                                                                                   
0000de19  _ZNSt3__2lsINS_11char_traitsIcEEEERNS_13basic_ostreamIcT_EES6_PKc                                                                                                                        
0000dfdd  __aeabi_dsub                                                                                                                                                                             
0000dfe7  __aeabi_dadd                                                                                                                                                                             
0000e193  _ZNKSt3__28messagesIwE8do_closeEi                                                                                                                                                        
0000e195  _ZNKSt3__220__time_get_c_storageIwE7__weeksEv                                                                                                                                            
0000e345  _ZNKSt3__27num_getIcNS_19istreambuf_iteratorIcNS_11char_traitsIcEEEEE15__do_get_signedIxEES4_S4_S4_RNS_8ios_baseERjRT_                                                                   
0000e4f5  _ZNKSt3__27num_getIcNS_19istreambuf_iteratorIcNS_11char_traitsIcEEEEE17__do_get_unsignedIyEES4_S4_S4_RNS_8ios_baseERjRT_                                                                 
0000e6a5  _ZNKSt3__27num_getIcNS_19istreambuf_iteratorIcNS_11char_traitsIcEEEEE6do_getES4_S4_RNS_8ios_baseERjRPv                                                                                   
0000e855  _ZNKSt3__27num_getIcNS_19istreambuf_iteratorIcNS_11char_traitsIcEEEEE15__do_get_signedIlEES4_S4_S4_RNS_8ios_baseERjRT_                                                                   
0000ea01  _ZNKSt3__27num_getIcNS_19istreambuf_iteratorIcNS_11char_traitsIcEEEEE17__do_get_unsignedIjEES4_S4_S4_RNS_8ios_baseERjRT_                                                                 
0000ebad  _ZNKSt3__27num_getIcNS_19istreambuf_iteratorIcNS_11char_traitsIcEEEEE17__do_get_unsignedImEES4_S4_S4_RNS_8ios_baseERjRT_                                                                 
0000ed59  _ZNKSt3__27num_getIcNS_19istreambuf_iteratorIcNS_11char_traitsIcEEEEE17__do_get_unsignedItEES4_S4_S4_RNS_8ios_baseERjRT_                                                                 
0000ef05  _ZNKSt3__27num_getIcNS_19istreambuf_iteratorIcNS_11char_traitsIcEEEEE23__do_get_floating_pointIdEES4_S4_S4_RNS_8ios_baseERjRT_                                                           
0000f0b1  _ZNKSt3__27num_getIcNS_19istreambuf_iteratorIcNS_11char_traitsIcEEEEE23__do_get_floating_pointIeEES4_S4_S4_RNS_8ios_baseERjRT_                                                           
0000f25d  _ZNKSt3__27num_getIwNS_19istreambuf_iteratorIwNS_11char_traitsIwEEEEE23__do_get_floating_pointIdEES4_S4_S4_RNS_8ios_baseERjRT_                                                           
0000f407  _ZNKSt3__27num_getIwNS_19istreambuf_iteratorIwNS_11char_traitsIwEEEEE23__do_get_floating_pointIeEES4_S4_S4_RNS_8ios_baseERjRT_                                                           
0000f5b1  _ZNKSt3__27num_getIcNS_19istreambuf_iteratorIcNS_11char_traitsIcEEEEE23__do_get_floating_pointIfEES4_S4_S4_RNS_8ios_baseERjRT_                                                           
0000f759  _ZNKSt3__27num_getIwNS_19istreambuf_iteratorIwNS_11char_traitsIwEEEEE23__do_get_floating_pointIfEES4_S4_S4_RNS_8ios_baseERjRT_                                                           
0000f8ff  _ZNSt3__211char_traitsIcE11to_int_typeEc                                                                                                                                                 
0000f901  _ZNKSt3__28time_getIwNS_19istreambuf_iteratorIwNS_11char_traitsIwEEEEE3getES4_S4_RNS_8ios_baseERjP2tmPKwSC_                                                                              
0000fa91  _ZNKSt3__28time_getIcNS_19istreambuf_iteratorIcNS_11char_traitsIcEEEEE3getES4_S4_RNS_8ios_baseERjP2tmPKcSC_                                                                              
0000fd97  _ZNSt3__212__do_nothingEPv                                                                                                                                                               
0000fd99  _ZNKSt3__29money_getIcNS_19istreambuf_iteratorIcNS_11char_traitsIcEEEEE6do_getES4_S4_bRNS_8ios_baseERjRe                                                                                 
0000ff19  fwrite                                                                                                                                                                                   
00010000  __STACK_SIZE                                                                                                                                                                             
00010000  __SYSMEM_SIZE                                                                                                                                                                            
0001020d  _ZNSt3__224__put_character_sequenceIcNS_11char_traitsIcEEEERNS_13basic_ostreamIT_T0_EES7_PKS4_j                                                                                          
00010379  _ZNKSt3__220__time_get_c_storageIcE7__weeksEv                                                                                                                                            
000104d5  strtoull                                                                                                                                                                                 
00010631  _ZNSt3__29__num_getIwE19__stage2_float_loopEwRbRcPcRS4_wwRKNS_12basic_stringIcNS_11char_traitsIcEENS_9allocatorIcEEEEPjRSE_RjPw                                                          
000108c5  _ZNSt3__29__num_getIcE19__stage2_float_loopEcRbRcPcRS4_ccRKNS_12basic_stringIcNS_11char_traitsIcEENS_9allocatorIcEEEEPjRSE_RjS4_                                                         
00010a0d  _ZNKSt3__27num_putIcNS_19ostreambuf_iteratorIcNS_11char_traitsIcEEEEE6do_putES4_RNS_8ios_baseEcd                                                                                         
00010b4d  _ZNKSt3__27num_putIwNS_19ostreambuf_iteratorIwNS_11char_traitsIwEEEEE6do_putES4_RNS_8ios_baseEwe                                                                                         
00010dcb  _ZNSt3__214__shared_countD1Ev                                                                                                                                                            
00010dcb  _ZNSt3__214__shared_countD2Ev                                                                                                                                                            
00010dcd  _ZNKSt3__27num_putIcNS_19ostreambuf_iteratorIcNS_11char_traitsIcEEEEE6do_putES4_RNS_8ios_baseEce                                                                                         
00010f09  _ZNKSt3__27num_putIwNS_19ostreambuf_iteratorIwNS_11char_traitsIwEEEEE6do_putES4_RNS_8ios_baseEwd                                                                                         
00011045  _ZNKSt3__29money_getIwNS_19istreambuf_iteratorIwNS_11char_traitsIwEEEEE6do_getES4_S4_bRNS_8ios_baseERjRe                                                                                 
000112bd  __aeabi_ddiv                                                                                                                                                                             
000113f3  _ZNSt3__215basic_streambufIcNS_11char_traitsIcEEE5imbueERKNS_6localeE                                                                                                                    
000113f5  __vla_alloc                                                                                                                                                                              
00011529  strtol                                                                                                                                                                                   
00011659  _ZNKSt3__27codecvtIwciE5do_inERiPKcS4_RS4_PwS6_RS6_                                                                                                                                      
000118a5  _ZNSt3__216__pad_and_outputIwNS_11char_traitsIwEEEENS_19ostreambuf_iteratorIT_T0_EES6_PKS4_S8_S8_RNS_8ios_baseES4_                                                                       
000119c1  _ZNKSt3__27codecvtIwciE6do_outERiPKwS4_RS4_PcS6_RS6_                                                                                                                                     
00011ad9  _ZNSt3__210__stdinbufIwE9__getcharEb                                                                                                                                                     
00011bed  _ZNSt3__212basic_stringIwNS_11char_traitsIwEENS_9allocatorIwEEE7reserveEj                                                                                                                
00011d01  fputs                                                                                                                                                                                    
00011e15  realloc                                                                                                                                                                                  
00011f29  _ZNSt3__210__stdinbufIcE9__getcharEb                                                                                                                                                     
00012039  ldexp                                                                                                                                                                                    
00012039  ldexpl                                                                                                                                                                                   
00012039  scalbn                                                                                                                                                                                   
00012039  scalbnl                                                                                                                                                                                  
00012149  strtoul                                                                                                                                                                                  
00012259  _ZNSt3__212basic_stringIwNS_11char_traitsIwEENS_9allocatorIwEEE21__grow_by_and_replaceEjjjjjjPKw                                                                                         
00012365  _ZN11UART0Driver9UART0InitEv                                                                                                                                                             
000123b5  _ZN11UART0Driver11UART0EnableEm                                                                                                                                                          
000123c1  _ZN11UART0DriverC1Ev                                                                                                                                                                     
000123c1  _ZN11UART0DriverC2Ev                                                                                                                                                                     
000123d3  _ZN11UART0Driver15JumpStartOutputEc                                                                                                                                                      
000123db  _ZN11UART0Driver14GetUART0DriverEv                                                                                                                                                       
000123f9  _ZN11UART0Driver13SingletonGrabEv                                                                                                                                                        
00012405  _ZN11UART0Driver12UART0HandlerEv                                                                                                                                                         
0001256b  __aeabi_dmul                                                                                                                                                                             
00012667  _ZNSt3__212basic_stringIcNS_11char_traitsIcEENS_9allocatorIcEEE7reserveEj                                                                                                                
00012759  _ZNSt3__212basic_stringIcNS_11char_traitsIcEENS_9allocatorIcEEE21__grow_by_and_replaceEjjjjjjPKc                                                                                         
00012849  _ZNSt3__216__pad_and_outputIcNS_11char_traitsIcEEEENS_19ostreambuf_iteratorIT_T0_EES6_PKS4_S8_S8_RNS_8ios_baseES4_                                                                       
00012939  _ZNSt3__220__get_up_to_n_digitsIwNS_19istreambuf_iteratorIwNS_11char_traitsIwEEEEEEiRT0_S5_RjRKNS_5ctypeIT_EEi                                                                           
00012a27  _ZNSt3__215basic_streambufIcNS_11char_traitsIcEEE6setbufEPci                                                                                                                             
00012a29  _ZNSt3__29__num_getIcE17__stage2_int_loopEciPcRS2_RjcRKNS_12basic_stringIcNS_11char_traitsIcEENS_9allocatorIcEEEEPjRSD_PKc                                                               
00012b15  _ZNSt3__29__num_getIwE17__stage2_int_loopEwiPcRS2_RjwRKNS_12basic_stringIcNS_11char_traitsIcEENS_9allocatorIcEEEEPjRSD_PKw                                                               
00012c01  _ZNKSt3__220__time_get_c_storageIwE3__cEv                                                                                                                                                
00012ce9  _ZNSt3__220__get_up_to_n_digitsIcNS_19istreambuf_iteratorIcNS_11char_traitsIcEEEEEEiRT0_S5_RjRKNS_5ctypeIT_EEi                                                                           
00012dcd  _ZNSt3__26vectorIPNS_6locale5facetENS_15__sso_allocatorIS3_Lj28EEEE8__appendEj                                                                                                           
00012ead  _ZNKSt3__27num_getIcNS_19istreambuf_iteratorIcNS_11char_traitsIcEEEEE6do_getES4_S4_RNS_8ios_baseERjRb                                                                                    
00012f89  _ZNKSt3__27num_getIwNS_19istreambuf_iteratorIwNS_11char_traitsIwEEEEE6do_getES4_S4_RNS_8ios_baseERjRb                                                                                    
00013065  setvbuf                                                                                                                                                                                  
00013141  _ZNSt3__212basic_stringIcNS_11char_traitsIcEENS_9allocatorIcEEE6insertEjPKcj                                                                                                             
0001321b  _ZNSt3__215basic_streambufIwNS_11char_traitsIwEEE5imbueERKNS_6localeE                                                                                                                    
0001321d  _ZNSt3__212basic_stringIwNS_11char_traitsIwEENS_9allocatorIwEEE9__grow_byEjjjjjj                                                                                                         
000132f5  free                                                                                                                                                                                     
000133cd  _ZNKSt3__220__time_get_c_storageIwE3__rEv                                                                                                                                                
000134a1  _ZNKSt3__220__time_get_c_storageIwE3__XEv                                                                                                                                                
00013571  _ZNKSt3__220__time_get_c_storageIwE3__xEv                                                                                                                                                
00013641  ldexpf                                                                                                                                                                                   
00013641  scalbnf                                                                                                                                                                                  
00013711  _ZNKSt3__27num_putIcNS_19ostreambuf_iteratorIcNS_11char_traitsIcEEEEE6do_putES4_RNS_8ios_baseEcx                                                                                         
000137dd  _ZNKSt3__27num_putIwNS_19ostreambuf_iteratorIwNS_11char_traitsIwEEEEE6do_putES4_RNS_8ios_baseEwx                                                                                         
000138a9  _ZNSt3__213basic_ostreamIcNS_11char_traitsIcEEElsEi                                                                                                                                      
00013971  _ZNSt3__213basic_ostreamIcNS_11char_traitsIcEEElsEt                                                                                                                                      
00013a39  _ZNKSt3__27num_putIcNS_19ostreambuf_iteratorIcNS_11char_traitsIcEEEEE6do_putES4_RNS_8ios_baseEcy                                                                                         
00013afd  _ZNKSt3__27num_putIwNS_19ostreambuf_iteratorIwNS_11char_traitsIwEEEEE6do_putES4_RNS_8ios_baseEwy                                                                                         
00013bc1  _ZNKSt3__27num_putIcNS_19ostreambuf_iteratorIcNS_11char_traitsIcEEEEE6do_putES4_RNS_8ios_baseEcl                                                                                         
00013c81  _ZNKSt3__27num_putIcNS_19ostreambuf_iteratorIcNS_11char_traitsIcEEEEE6do_putES4_RNS_8ios_baseEcm                                                                                         
00013d41  _ZNKSt3__27num_putIwNS_19ostreambuf_iteratorIwNS_11char_traitsIwEEEEE6do_putES4_RNS_8ios_baseEwl                                                                                         
00013e01  _ZNKSt3__27num_putIwNS_19ostreambuf_iteratorIwNS_11char_traitsIwEEEEE6do_putES4_RNS_8ios_baseEwm                                                                                         
00013ec1  _ZNSt3__212basic_stringIcNS_11char_traitsIcEENS_9allocatorIcEEE9__grow_byEjjjjjj                                                                                                         
00013f81  _ZNSt3__211__stdoutbufIwE8overflowEi                                                                                                                                                     
0001403d  _ZNSt3__211__stdoutbufIcE8overflowEi                                                                                                                                                     
000140ef  _ZNSt3__215basic_streambufIwNS_11char_traitsIwEEE6setbufEPwi                                                                                                                             
000141a3  _ZNSt3__210__stdinbufIwE9pbackfailEi                                                                                                                                                     
00014253  _ZNSt3__210__stdinbufIcE9pbackfailEi                                                                                                                                                     
000142fb  _ZNSt3__222__compressed_pair_elemINS_12basic_stringIcNS_11char_traitsIcEENS_9allocatorIcEEE5__repELi0ELb0EE5__getEv                                                                      
000142fd  _ZNSt3__219__double_or_nothingIwEEvRNS_10unique_ptrIT_PFvPvEEERPS2_S9_                                                                                                                   
000143a5  _ZNSt3__212basic_stringIcNS_11char_traitsIcEENS_9allocatorIcEEE6appendEPKcj                                                                                                              
00014449  _ZNSt3__212basic_stringIwNS_11char_traitsIwEENS_9allocatorIwEEE6appendEPKwj                                                                                                              
000144ed  _ZNSt3__212basic_stringIcNS_11char_traitsIcEENS_9allocatorIcEEE9push_backEc                                                                                                              
0001458d  _ZNSt3__212basic_stringIwNS_11char_traitsIwEENS_9allocatorIwEEE9push_backEw                                                                                                              
0001462b  _ZNSt3__222__compressed_pair_elemINS_12basic_stringIwNS_11char_traitsIwEENS_9allocatorIwEEE5__repELi0ELb0EE5__getEv                                                                      
0001462d  _ZNKSt3__27num_putIwNS_19ostreambuf_iteratorIwNS_11char_traitsIwEEEEE6do_putES4_RNS_8ios_baseEwPKv                                                                                       
000146c9  _ZNKSt3__27num_putIwNS_19ostreambuf_iteratorIwNS_11char_traitsIwEEEEE6do_putES4_RNS_8ios_baseEwb                                                                                         
00014765  _ZNSt3__212basic_stringIcNS_11char_traitsIcEENS_9allocatorIcEEE6appendEjc                                                                                                                
00014801  __TI_buff_read                                                                                                                                                                           
0001489d  __aeabi_memcpy                                                                                                                                                                           
0001489d  __aeabi_memcpy4                                                                                                                                                                          
0001489d  __aeabi_memcpy8                                                                                                                                                                          
0001489d  memcpy                                                                                                                                                                                   
00014939  _ZNKSt3__210__time_put8__do_putEPwRS1_PK2tmcc                                                                                                                                            
000149d1  _ZNKSt3__27num_putIcNS_19ostreambuf_iteratorIcNS_11char_traitsIcEEEEE6do_putES4_RNS_8ios_baseEcPKv                                                                                       
00014a69  _ZNKSt3__27num_putIcNS_19ostreambuf_iteratorIcNS_11char_traitsIcEEEEE6do_putES4_RNS_8ios_baseEcb                                                                                         
00014b01  _ZNSt3__212basic_stringIwNS_11char_traitsIwEENS_9allocatorIwEEE6assignEPKwj                                                                                                              
00014b99  _ZNSt3__212basic_stringIcNS_11char_traitsIcEENS_9allocatorIcEEE6assignEPKcj                                                                                                              
00014c2f  _ZNSt3__225__num_get_signed_integralIlEET_PKcS3_Rji                                                                                                                                      
00014cc5  __aeabi_uldivmod                                                                                                                                                                         
00014d5b  _ZNSt3__222__compressed_pair_elemINS_9allocatorIcEELi1ELb1EEC1IRKS2_vEEOT_                                                                                                               
00014d5d  _ZNKSt3__220__time_get_c_storageIwE7__am_pmEv                                                                                                                                            
00014df1  _ZNSt3__212basic_stringIwNS_11char_traitsIwEENS_9allocatorIwEEE6__initEPKwj                                                                                                              
00014e85  _ZNSt3__219__double_or_nothingIcEEvRNS_10unique_ptrIT_PFvPvEEERPS2_S9_                                                                                                                   
00014f19  _ZNSt3__219__double_or_nothingIjEEvRNS_10unique_ptrIT_PFvPvEEERPS2_S9_                                                                                                                   
00014fad  _ZNSt3__225__num_get_signed_integralIxEET_PKcS3_Rji                                                                                                                                      
0001503d  _ZNSt3__2plIcNS_11char_traitsIcEENS_9allocatorIcEEEENS_12basic_stringIT_T0_T1_EEPKS6_RKS9_                                                                                               
000150cd  _ZNKSt3__220__time_get_c_storageIcE7__am_pmEv                                                                                                                                            
00015159  _ZNKSt3__28numpunctIwE11do_truenameEv                                                                                                                                                    
000151e5  _ZNKSt3__28numpunctIwE12do_falsenameEv                                                                                                                                                   
00015271  fputc                                                                                                                                                                                    
00015271  putc                                                                                                                                                                                     
000152fd  _ZN13SysTickDriver13SysTickEnableEb                                                                                                                                                      
00015313  _ZN13SysTickDriver12SysTickStartEv                                                                                                                                                       
0001531f  _ZN13SysTickDriverC1Ev                                                                                                                                                                   
0001531f  _ZN13SysTickDriverC2Ev                                                                                                                                                                   
00015339  _ZN13SysTickDriver16GetSysTickDriverEv                                                                                                                                                   
00015357  _ZN13SysTickDriver14SysTickHandlerEv                                                                                                                                                     
00015361  _ZN13SysTickDriver13SingletonGrabEv                                                                                                                                                      
0001536d  _ZN13SysTickDriver11SysTickStopEv                                                                                                                                                        
00015385  __aeabi_cdcmpeq                                                                                                                                                                          
00015385  __aeabi_cdcmple                                                                                                                                                                          
0001540b  __aeabi_cdrcmple                                                                                                                                                                         
00015491  _ZNKSt3__220__time_get_c_storageIcE3__cEv                                                                                                                                                
00015515  _ZNKSt3__27collateIwE12do_transformEPKwS3_                                                                                                                                               
00015599  fgetc                                                                                                                                                                                    
00015599  fgetwc                                                                                                                                                                                   
00015599  getc                                                                                                                                                                                     
0001561d  _ZNSt3__214__num_put_base14__format_floatEPcPKcj                                                                                                                                         
0001569d  _ZNSt3__26locale5__impD1Ev                                                                                                                                                               
0001569d  _ZNSt3__26locale5__impD2Ev                                                                                                                                                               
0001571d  ungetc                                                                                                                                                                                   
0001579d  _ZNKSt3__212basic_stringIcNS_11char_traitsIcEENS_9allocatorIcEEE7compareEjjPKcj                                                                                                          
0001581b  _ZNKSt3__28time_getIcNS_19istreambuf_iteratorIcNS_11char_traitsIcEEEEE11__get_am_pmERiRS4_S4_RjRKNS_5ctypeIcEE                                                                           
00015897  _ZNKSt3__28time_getIwNS_19istreambuf_iteratorIwNS_11char_traitsIwEEEEE11__get_am_pmERiRS4_S4_RjRKNS_5ctypeIwEE                                                                           
00015913  _ZNSt3__213basic_ostreamIcNS_11char_traitsIcEEE6sentryD1Ev                                                                                                                               
0001598f  _ZNSt3__213basic_ostreamIwNS_11char_traitsIwEEE6sentryD1Ev                                                                                                                               
00015a0b  _ZNSt3__234_GLOBAL__N__10_string_cpp_11932bae9as_stringINS_12basic_stringIcNS_11char_traitsIcEENS_9allocatorIcEEEEPFYiPcjPKczEiEET_T0_SD_PKNSD_10value_typeET1_                          
00015a87  _ZNSt3__222__compressed_pair_elemINS_9allocatorIcEELi1ELb1EEC1IS2_vEEOT_                                                                                                                 
00015a89  _ZNSt3__2plIcNS_11char_traitsIcEENS_9allocatorIcEEEENS_12basic_stringIT_T0_T1_EERKS9_PKS6_                                                                                               
00015b05  fflush                                                                                                                                                                                   
00015b81  _ZNSt3__227__num_get_unsigned_integralIjEET_PKcS3_Rji                                                                                                                                    
00015bfb  _ZNSt3__227__num_get_unsigned_integralImEET_PKcS3_Rji                                                                                                                                    
00015c75  __aeabi_memclr                                                                                                                                                                           
00015c75  __aeabi_memclr4                                                                                                                                                                          
00015c75  __aeabi_memclr8                                                                                                                                                                          
00015c77  __aeabi_memset                                                                                                                                                                           
00015c77  __aeabi_memset4                                                                                                                                                                          
00015c77  __aeabi_memset8                                                                                                                                                                          
00015c7d  memset                                                                                                                                                                                   
00015cef  _ZNSt3__222__compressed_pair_elemINS_9allocatorIwEELi1ELb1EEC1IS2_vEEOT_                                                                                                                 
00015d69  _ZNKSt3__220__time_get_c_storageIcE3__rEv                                                                                                                                                
00015de1  _ZNSt3__215__num_get_floatIfEET_PKcS3_Rj                                                                                                                                                 
00015e59  _ZNSt3__215basic_streambufIwNS_11char_traitsIwEEE6xsgetnEPwi                                                                                                                             
00015ed1  _ZNSt3__227__num_get_unsigned_integralItEET_PKcS3_Rji                                                                                                                                    
00015f49  __vla_dealloc                                                                                                                                                                            
00015fc1  malloc                                                                                                                                                                                   
000160af  _ZNSt3__212basic_stringIcNS_11char_traitsIcEENS_9allocatorIcEEE6resizeEjc                                                                                                                
00016125  wcsnrtombs                                                                                                                                                                               
0001619b  _ZNSt3__212basic_stringIcNS_11char_traitsIcEENS_9allocatorIcEEE6__initEPKcj                                                                                                              
0001620f  _ZNSt3__212basic_stringIcNS_11char_traitsIcEENS_9allocatorIcEEE6__initEPKcjj                                                                                                             
00016283  _ZNSt3__212basic_stringIcNS_11char_traitsIcEENS_9allocatorIcEEE6__initEjc                                                                                                                
000162f7  _ZNSt9type_infoD1Ev                                                                                                                                                                      
000162f7  _ZNSt9type_infoD2Ev                                                                                                                                                                      
000162f9  _ZNSt3__215__num_get_floatIdEET_PKcS3_Rj                                                                                                                                                 
0001636d  _ZNSt3__215__num_get_floatIeEET_PKcS3_Rj                                                                                                                                                 
000163e1  _ZNSt3__215basic_streambufIcNS_11char_traitsIcEEE6xsgetnEPci                                                                                                                             
00016455  _ZNSt3__216__check_groupingERKNS_12basic_stringIcNS_11char_traitsIcEENS_9allocatorIcEEEEPjS8_Rj                                                                                          
000164c9  _ZNSt3__219__str_find_first_ofIcjNS_11char_traitsIcEELj4294967295EEET0_PKT_S3_S6_S3_S3_                                                                                                  
0001653d  _ZNSt3__227__num_get_unsigned_integralIyEET_PKcS3_Rji                                                                                                                                    
000165b1  __TI_closefile                                                                                                                                                                           
00016705  __aeabi_d2f                                                                                                                                                                              
00016773  _ZNSt3__26locale5__imp7installEPNS0_5facetEl                                                                                                                                             
000167df  _ZNSt3__234_GLOBAL__N__10_string_cpp_11932bae17as_integer_helperIlNS_12basic_stringIcNS_11char_traitsIcEENS_9allocatorIcEEEEPFYlPKcPPciEEET_RKS7_RKT0_PjiT1_                             
00016849  HOSTlseek                                                                                                                                                                                
000168b1  HOSTrename                                                                                                                                                                               
00016919  _ZNKSt3__220__time_get_c_storageIcE3__XEv                                                                                                                                                
00016981  _ZNKSt3__220__time_get_c_storageIcE3__xEv                                                                                                                                                
000169e9  _ZNKSt3__28time_getIcNS_19istreambuf_iteratorIcNS_11char_traitsIcEEEEE13__get_percentERS4_S4_RjRKNS_5ctypeIcEE                                                                           
00016a51  _ZNKSt3__28time_getIwNS_19istreambuf_iteratorIwNS_11char_traitsIwEEEEE13__get_percentERS4_S4_RjRKNS_5ctypeIwEE                                                                           
00016ab9  _ZNKSt3__28time_putIwNS_19ostreambuf_iteratorIwNS_11char_traitsIwEEEEE6do_putES4_RNS_8ios_baseEwPK2tmcc                                                                                  
00016b21  _ZNSt3__212basic_stringIcNS_11char_traitsIcEENS_9allocatorIcEEEC1ERKS5_jjRKS4_                                                                                                           
00016b89  _ZNSt3__215basic_streambufIwNS_11char_traitsIwEEE6xsputnEPKwi                                                                                                                            
00016bf1  _ZNSt3__29__num_getIcE19__stage2_float_prepERNS_8ios_baseEPcRcS5_                                                                                                                        
00016c59  _ZNSt3__29__num_getIwE19__stage2_float_prepERNS_8ios_baseEPwRwS5_                                                                                                                        
00016d29  __TI_decompress_lzss                                                                                                                                                                     
00016d91  _ZNKSt3__28time_putIcNS_19ostreambuf_iteratorIcNS_11char_traitsIcEEEEE6do_putES4_RNS_8ios_baseEcPK2tmcc                                                                                  
00016df7  _ZNSt3__215basic_streambufIcNS_11char_traitsIcEEE6xsputnEPKci                                                                                                                            
00016e5b  _nop                                                                                                                                                                                     
00016e5d  fprintf                                                                                                                                                                                  
00016ec1  frexp                                                                                                                                                                                    
00016ec1  frexpl                                                                                                                                                                                   
00016f25  fseek                                                                                                                                                                                    
00016f89  __TI_wrt_ok                                                                                                                                                                              
00016feb  freelocale                                                                                                                                                                               
00016fed  HOSTopen                                                                                                                                                                                 
0001704d  __TI_auto_init_nobinit                                                                                                                                                                   
000170ad  _ZNKSt3__219istreambuf_iteratorIcNS_11char_traitsIcEEE5equalERKS3_                                                                                                                       
0001710b  _ZNKSt3__219istreambuf_iteratorIwNS_11char_traitsIwEEE5equalERKS3_                                                                                                                       
00017169  _ZNSt3__2eqIcNS_11char_traitsIcEEEEbRKNS_19istreambuf_iteratorIT_T0_EES8_                                                                                                                
000171c7  _ZNSt3__2neIwNS_11char_traitsIwEEEEbRKNS_19istreambuf_iteratorIT_T0_EES8_                                                                                                                
00017225  _ZNKSt3__27collateIcE12do_transformEPKcS3_                                                                                                                                               
00017281  close                                                                                                                                                                                    
000172dd  _ZNKSt3__234_GLOBAL__N__10_string_cpp_11932bae14initial_stringINS_12basic_stringIcNS_11char_traitsIcEENS_9allocatorIcEEEEiLb0EEclEv                                                      
00017337  _ZNKSt3__28time_getIwNS_19istreambuf_iteratorIwNS_11char_traitsIwEEEEE11do_get_dateES4_S4_RNS_8ios_baseERjP2tm                                                                           
00017391  _ZNKSt3__28time_getIwNS_19istreambuf_iteratorIwNS_11char_traitsIwEEEEE17__get_white_spaceERS4_S4_RjRKNS_5ctypeIwEE                                                                       
000173eb  __aeabi_idiv0                                                                                                                                                                            
000173eb  __aeabi_ldiv0                                                                                                                                                                            
000173ed  HOSTread                                                                                                                                                                                 
00017445  HOSTwrite                                                                                                                                                                                
0001749d  _ZNKSt3__28time_getIcNS_19istreambuf_iteratorIcNS_11char_traitsIcEEEEE17__get_white_spaceERS4_S4_RjRKNS_5ctypeIcEE                                                                       
000174f5  _ZNKSt3__28time_getIcNS_19istreambuf_iteratorIcNS_11char_traitsIcEEEEE11do_get_dateES4_S4_RNS_8ios_baseERjP2tm                                                                           
000175a1  ltoa                                                                                                                                                                                     
00017647  _ZNSt3__213basic_ostreamIcNS_11char_traitsIcEEE5flushEv                                                                                                                                  
00017697  _ZNSt3__213basic_ostreamIwNS_11char_traitsIwEEE5flushEv                                                                                                                                  
000176e7  mbsnrtowcs                                                                                                                                                                               
00017737  _ZNSt3__211__stdoutbufIcE4syncEv                                                                                                                                                         
00017783  _ZNSt3__211__stdoutbufIwE4syncEv                                                                                                                                                         
000177d1  _ZNSt3__212basic_stringIcNS_11char_traitsIcEENS_9allocatorIcEEEC1ERKS5_                                                                                                                  
0001781d  _ZNSt3__212basic_stringIwNS_11char_traitsIwEENS_9allocatorIwEEEC1ERKS5_                                                                                                                  
00017869  _ZNSt3__213basic_ostreamIcNS_11char_traitsIcEEE6sentryC1ERS3_                                                                                                                            
000178b5  _ZNSt3__213basic_ostreamIwNS_11char_traitsIwEEE6sentryC1ERS3_                                                                                                                            
00017901  __TI_doflush                                                                                                                                                                             
0001794d  atoi                                                                                                                                                                                     
00017999  snprintf                                                                                                                                                                                 
000179e5  _ZNSt3__214__num_put_base12__format_intEPcPKcbj                                                                                                                                          
00017a2f  __TI_rd_ok                                                                                                                                                                               
00017a79  _ZNKSt3__27codecvtIDiciE6do_outERiPKDiS4_RS4_PcS6_RS6_                                                                                                                                   
00017ac1  _ZNKSt3__27codecvtIDsciE6do_outERiPKDsS4_RS4_PcS6_RS6_                                                                                                                                   
00017b09  _ZNKSt3__27codecvtIwciE10do_unshiftERiPcS3_RS3_                                                                                                                                          
00017b51  _ZNKSt3__27codecvtIwciE9do_lengthERiPKcS4_j                                                                                                                                              
00017b99  _ZNSt3__211__stdoutbufIcEC1EP7__sFILEPi                                                                                                                                                  
00017be1  _ZNSt3__211__stdoutbufIwEC1EP7__sFILEPi                                                                                                                                                  
00017c29  exit                                                                                                                                                                                     
00017c71  __aeabi_d2iz                                                                                                                                                                             
00017cb9  _ZNKSt3__28time_getIcNS_19istreambuf_iteratorIcNS_11char_traitsIcEEEEE15__get_monthnameERiRS4_S4_RjRKNS_5ctypeIcEE                                                                       
00017cff  _ZNKSt3__28time_getIcNS_19istreambuf_iteratorIcNS_11char_traitsIcEEEEE17__get_weekdaynameERiRS4_S4_RjRKNS_5ctypeIcEE                                                                     
00017d45  _ZNKSt3__28time_getIwNS_19istreambuf_iteratorIwNS_11char_traitsIwEEEEE15__get_monthnameERiRS4_S4_RjRKNS_5ctypeIwEE                                                                       
00017d8b  _ZNKSt3__28time_getIwNS_19istreambuf_iteratorIwNS_11char_traitsIwEEEEE17__get_weekdaynameERiRS4_S4_RjRKNS_5ctypeIwEE                                                                     
00017dd1  _ZNSt3__211__stdoutbufIcE6xsputnEPKci                                                                                                                                                    
00017e17  _ZNSt3__211__stdoutbufIwE6xsputnEPKwi                                                                                                                                                    
00017e5d  HOSTclose                                                                                                                                                                                
00017ea1  HOSTunlink                                                                                                                                                                               
00017ee5  _Z25__add_destruction_to_listPP20a_needed_destructionPFYvPvES2_S2_                                                                                                                       
00017f29  _ZNKSt3__210__time_put8__do_putEPcRS1_PK2tmcc                                                                                                                                            
00017f6d  _ZNKSt3__27codecvtIDiciE5do_inERiPKcS4_RS4_PDiS6_RS6_                                                                                                                                    
00017fb1  _ZNKSt3__27codecvtIDsciE5do_inERiPKcS4_RS4_PDsS6_RS6_                                                                                                                                    
00017ff5  _ZNSt3__210__stdinbufIcEC1EP7__sFILEPi                                                                                                                                                   
00018039  _ZNSt3__210__stdinbufIwEC1EP7__sFILEPi                                                                                                                                                   
0001807d  getdevice                                                                                                                                                                                
000180c1  _Z23__finalize_destructionsPP20a_needed_destructionPv                                                                                                                                    
00018103  _ZNSt3__214__split_bufferIPNS_6locale5facetERNS_15__sso_allocatorIS3_Lj28EEEEC1EjjS6_                                                                                                    
00018145  _ZNKSt3__28time_getIcNS_19istreambuf_iteratorIcNS_11char_traitsIcEEEEE11do_get_yearES4_S4_RNS_8ios_baseERjP2tm                                                                           
00018185  _ZNKSt3__28time_getIcNS_19istreambuf_iteratorIcNS_11char_traitsIcEEEEE14do_get_weekdayES4_S4_RNS_8ios_baseERjP2tm                                                                        
000181c5  _ZNKSt3__28time_getIcNS_19istreambuf_iteratorIcNS_11char_traitsIcEEEEE16do_get_monthnameES4_S4_RNS_8ios_baseERjP2tm                                                                      
00018205  _ZNKSt3__28time_getIwNS_19istreambuf_iteratorIwNS_11char_traitsIwEEEEE11do_get_timeES4_S4_RNS_8ios_baseERjP2tm                                                                           
00018245  _ZNKSt3__28time_getIwNS_19istreambuf_iteratorIwNS_11char_traitsIwEEEEE11do_get_yearES4_S4_RNS_8ios_baseERjP2tm                                                                           
00018285  _ZNKSt3__28time_getIwNS_19istreambuf_iteratorIwNS_11char_traitsIwEEEEE14do_get_weekdayES4_S4_RNS_8ios_baseERjP2tm                                                                        
000182c5  _ZNKSt3__28time_getIwNS_19istreambuf_iteratorIwNS_11char_traitsIwEEEEE16do_get_monthnameES4_S4_RNS_8ios_baseERjP2tm                                                                      
00018305  _ZNSt3__26locale2id5__getEv                                                                                                                                                              
00018345  _ZNSt3__28ios_base4initEPv                                                                                                                                                               
00018385  vsnprintf                                                                                                                                                                                
000183c5  _ZNSt3__26vectorIPNS_6locale5facetENS_15__sso_allocatorIS3_Lj28EEEE8allocateEj                                                                                                           
00018441  _ZNSt3__24stoiERKNS_12basic_stringIcNS_11char_traitsIcEENS_9allocatorIcEEEEPji                                                                                                           
00018481  _ZNSt3__210__stdinbufIcE5imbueERKNS_6localeE                                                                                                                                             
000184f9  _ZNKSt3__27collateIwE10do_compareEPKwS3_S3_S3_                                                                                                                                           
00018533  _ZNSt3__214__num_put_base18__identify_paddingEPcS1_RKNS_8ios_baseE                                                                                                                       
0001856d  _ZNKSt3__25ctypeIcE10do_tolowerEPcPKc                                                                                                                                                    
000185a5  _ZNKSt3__25ctypeIcE10do_toupperEPcPKc                                                                                                                                                    
000185dd  _ZNKSt3__25ctypeIwE10do_tolowerEPwPKw                                                                                                                                                    
00018615  _ZNKSt3__25ctypeIwE10do_toupperEPwPKw                                                                                                                                                    
0001864d  _ZNKSt3__27collateIcE10do_compareEPKcS3_S3_S3_                                                                                                                                           
00018685  _ZNKSt3__28time_getIcNS_19istreambuf_iteratorIcNS_11char_traitsIcEEEEE10__get_yearERiRS4_S4_RjRKNS_5ctypeIcEE                                                                            
000186bd  _ZNKSt3__28time_getIwNS_19istreambuf_iteratorIwNS_11char_traitsIwEEEEE10__get_yearERiRS4_S4_RjRKNS_5ctypeIwEE                                                                            
000186f5  _ZNSt3__210__stdinbufIwE5imbueERKNS_6localeE                                                                                                                                             
0001872d  _ZNSt3__26__clocEv                                                                                                                                                                       
00018765  _ZNSt3__28ios_baseD1Ev                                                                                                                                                                   
00018765  _ZNSt3__28ios_baseD2Ev                                                                                                                                                                   
0001879d  _ZNSt3__28numpunctIcEC1Ej                                                                                                                                                                
0001879d  _ZNSt3__28numpunctIcEC2Ej                                                                                                                                                                
000187d5  _ZNSt3__28numpunctIwEC1Ej                                                                                                                                                                
000187d5  _ZNSt3__28numpunctIwEC2Ej                                                                                                                                                                
0001880d  __TI_writemsg                                                                                                                                                                            
0001883b  C$$IO$$                                                                                                                                                                                  
00018845  _c_int00_noargs                                                                                                                                                                          
0001887d  minit                                                                                                                                                                                    
000188b5  sscanf                                                                                                                                                                                   
000188ed  strncpy                                                                                                                                                                                  
00018923  vasprintf                                                                                                                                                                                
00018959  _ZNKSt3__28time_getIcNS_19istreambuf_iteratorIcNS_11char_traitsIcEEEEE11do_get_timeES4_S4_RNS_8ios_baseERjP2tm                                                                           
0001898d  _ZNSt3__29to_stringEi                                                                                                                                                                    
000189c1  __TI_cleanup                                                                                                                                                                             
000189f5  __TI_readmsg                                                                                                                                                                             
00018a29  __aeabi_atexit                                                                                                                                                                           
00018a5d  _ZNKSt3__27collateIwE7do_hashEPKwS3_                                                                                                                                                     
00018a8f  _ZNKSt3__28time_getIcNS_19istreambuf_iteratorIcNS_11char_traitsIcEEEEE13__get_12_hourERiRS4_S4_RjRKNS_5ctypeIcEE                                                                         
00018ac1  _ZNKSt3__28time_getIcNS_19istreambuf_iteratorIcNS_11char_traitsIcEEEEE9__get_dayERiRS4_S4_RjRKNS_5ctypeIcEE                                                                              
00018af3  _ZNKSt3__28time_getIwNS_19istreambuf_iteratorIwNS_11char_traitsIwEEEEE13__get_12_hourERiRS4_S4_RjRKNS_5ctypeIwEE                                                                         
00018b25  _ZNKSt3__28time_getIwNS_19istreambuf_iteratorIwNS_11char_traitsIwEEEEE9__get_dayERiRS4_S4_RjRKNS_5ctypeIwEE                                                                              
00018b57  _ZNKSt3__27collateIcE7do_hashEPKcS3_                                                                                                                                                     
00018b87  _ZNKSt3__28time_getIcNS_19istreambuf_iteratorIcNS_11char_traitsIcEEEEE11__get_monthERiRS4_S4_RjRKNS_5ctypeIcEE                                                                           
00018bb7  _ZNKSt3__28time_getIcNS_19istreambuf_iteratorIcNS_11char_traitsIcEEEEE18__get_day_year_numERiRS4_S4_RjRKNS_5ctypeIcEE                                                                    
00018be7  _ZNKSt3__28time_getIwNS_19istreambuf_iteratorIwNS_11char_traitsIwEEEEE11__get_monthERiRS4_S4_RjRKNS_5ctypeIwEE                                                                           
00018c17  _ZNKSt3__28time_getIwNS_19istreambuf_iteratorIwNS_11char_traitsIwEEEEE18__get_day_year_numERiRS4_S4_RjRKNS_5ctypeIwEE                                                                    
00018c47  _ZNSt3__219ostreambuf_iteratorIcNS_11char_traitsIcEEEaSEc                                                                                                                                
00018c77  _ZNSt3__219ostreambuf_iteratorIwNS_11char_traitsIwEEEaSEw                                                                                                                                
00018ca9  _ZNSt3__234_GLOBAL__N__10_string_cpp_11932bae12throw_helperISt12out_of_rangeEEvRKNS_12basic_stringIcNS_11char_traitsIcEENS_9allocatorIcEEEE                                              
00018cd9  _ZNSt3__234_GLOBAL__N__10_string_cpp_11932bae12throw_helperISt16invalid_argumentEEvRKNS_12basic_stringIcNS_11char_traitsIcEENS_9allocatorIcEEEE                                          
00018d09  _ZNSt3__26locale8__globalEv                                                                                                                                                              
00018d39  _ZNSt3__28ios_base4InitD1Ev                                                                                                                                                              
00018d39  _ZNSt3__28ios_base4InitD2Ev                                                                                                                                                              
00018dc9  finddevice                                                                                                                                                                               
00018df9  _ZNKSt3__25ctypeIwE5do_isEPKwS3_Ph                                                                                                                                                       
00018e27  _ZNKSt3__27codecvtIwciE11do_encodingEv                                                                                                                                                   
00018e55  _ZNKSt3__28time_getIcNS_19istreambuf_iteratorIcNS_11char_traitsIcEEEEE10__get_hourERiRS4_S4_RjRKNS_5ctypeIcEE                                                                            
00018e83  _ZNKSt3__28time_getIcNS_19istreambuf_iteratorIcNS_11char_traitsIcEEEEE12__get_minuteERiRS4_S4_RjRKNS_5ctypeIcEE                                                                          
00018eb1  _ZNKSt3__28time_getIcNS_19istreambuf_iteratorIcNS_11char_traitsIcEEEEE12__get_secondERiRS4_S4_RjRKNS_5ctypeIcEE                                                                          
00018edf  _ZNKSt3__28time_getIcNS_19istreambuf_iteratorIcNS_11char_traitsIcEEEEE13__get_weekdayERiRS4_S4_RjRKNS_5ctypeIcEE                                                                         
00018f0d  _ZNKSt3__28time_getIwNS_19istreambuf_iteratorIwNS_11char_traitsIwEEEEE10__get_hourERiRS4_S4_RjRKNS_5ctypeIwEE                                                                            
00018f3b  _ZNKSt3__28time_getIwNS_19istreambuf_iteratorIwNS_11char_traitsIwEEEEE12__get_minuteERiRS4_S4_RjRKNS_5ctypeIwEE                                                                          
00018f69  _ZNKSt3__28time_getIwNS_19istreambuf_iteratorIwNS_11char_traitsIwEEEEE12__get_secondERiRS4_S4_RjRKNS_5ctypeIwEE                                                                          
00018f97  _ZNKSt3__28time_getIwNS_19istreambuf_iteratorIwNS_11char_traitsIwEEEEE13__get_weekdayERiRS4_S4_RjRKNS_5ctypeIwEE                                                                         
00018fc5  _ZNSt3__212basic_stringIcNS_11char_traitsIcEENS_9allocatorIcEEEaSERKS5_                                                                                                                  
00018ff3  _ZNSt3__214__split_bufferIPNS_6locale5facetERNS_15__sso_allocatorIS3_Lj28EEEED1Ev                                                                                                        
00019021  mbtowc                                                                                                                                                                                   
0001904f  __aeabi_i2d                                                                                                                                                                              
0001907d  _ZNSt3__211__stdoutbufIcE5imbueERKNS_6localeE                                                                                                                                            
000190a9  _ZNSt3__211__stdoutbufIwE5imbueERKNS_6localeE                                                                                                                                            
000190d5  _ZNSt3__26locale7classicEv                                                                                                                                                               
00019101  remove                                                                                                                                                                                   
00019101  unlink                                                                                                                                                                                   
0001912d  _ZNKSt3__25ctypeIwE10do_scan_isEhPKwS3_                                                                                                                                                  
00019157  _ZNKSt3__25ctypeIwE11do_scan_notEhPKwS3_                                                                                                                                                 
00019181  _ZNSt3__215basic_streambufIcNS_11char_traitsIcEEE7seekposENS_4fposIiEEj                                                                                                                  
000191ab  _ZNSt3__215basic_streambufIwNS_11char_traitsIwEEE7seekposENS_4fposIiEEj                                                                                                                  
000191d5  lseek                                                                                                                                                                                    
00019225  read                                                                                                                                                                                     
0001924d  write                                                                                                                                                                                    
00019275  _ZNKSt3__28numpunctIcE12do_falsenameEv                                                                                                                                                   
0001929b  _ZNKSt3__28time_getIcNS_19istreambuf_iteratorIcNS_11char_traitsIcEEEEE11__get_year4ERiRS4_S4_RjRKNS_5ctypeIcEE                                                                           
000192c1  _ZNKSt3__28time_getIwNS_19istreambuf_iteratorIwNS_11char_traitsIwEEEEE11__get_year4ERiRS4_S4_RjRKNS_5ctypeIwEE                                                                           
000192e7  _ZNSt3__28ios_base16__call_callbacksENS0_5eventE                                                                                                                                         
0001930d  mbrtowc                                                                                                                                                                                  
00019333  _ZN10RingBufferIcE3GetEv                                                                                                                                                                 
00019359  _ZNKSt3__25ctypeIcE10do_tolowerEc                                                                                                                                                        
0001937d  _ZNKSt3__25ctypeIcE10do_toupperEc                                                                                                                                                        
000193a1  _ZNKSt3__25ctypeIwE10do_tolowerEw                                                                                                                                                        
000193c5  _ZNKSt3__25ctypeIwE9do_narrowEPKwS3_cPc                                                                                                                                                  
000193e9  _ZNSt3__215basic_streambufIcNS_11char_traitsIcEEE5uflowEv                                                                                                                                
0001940d  _ZNSt3__215basic_streambufIcNS_11char_traitsIcEEEC1Ev                                                                                                                                    
00019431  _ZNSt3__215basic_streambufIwNS_11char_traitsIwEEE5uflowEv                                                                                                                                
00019455  _ZNSt3__215basic_streambufIwNS_11char_traitsIwEEEC1Ev                                                                                                                                    
00019479  _ZNSt3__25ctypeIcEC1EPKhbj                                                                                                                                                               
00019479  _ZNSt3__25ctypeIcEC2EPKhbj                                                                                                                                                               
0001949d  _ZNSt3__26vectorIPNS_6locale5facetENS_15__sso_allocatorIS3_Lj28EEEEC1Ej                                                                                                                  
000194c1  _ZNSt3__27codecvtIwciED1Ev                                                                                                                                                               
000194c1  _ZNSt3__27codecvtIwciED2Ev                                                                                                                                                               
000194e5  __cxa_vec_ctor                                                                                                                                                                           
00019509  memcmp                                                                                                                                                                                   
0001952d  memmove                                                                                                                                                                                  
00019551  _ZNKSt3__25ctypeIcE9do_narrowEPKcS3_cPc                                                                                                                                                  
00019573  _ZNKSt3__25ctypeIwE10do_toupperEw                                                                                                                                                        
00019595  _ZNSt3__214__num_get_base10__get_baseERNS_8ios_baseE                                                                                                                                     
000195b7  _Znwj                                                                                                                                                                                    
000195d9  _ZNKSt3__28numpunctIcE11do_truenameEv                                                                                                                                                    
000195fb  _ZNKSt3__27codecvtIcciE3outERiPKcS4_RS4_PcS6_RS6_                                                                                                                                        
0001961b  _ZNKSt3__27codecvtIwciE3outERiPKwS4_RS4_PcS6_RS6_                                                                                                                                        
0001963b  _ZNSt3__212basic_stringIcNS_11char_traitsIcEENS_9allocatorIcEEED1Ev                                                                                                                      
0001965b  _ZNSt3__212basic_stringIwNS_11char_traitsIwEENS_9allocatorIwEEED1Ev                                                                                                                      
0001967b  _ZNSt3__217__call_once_proxyINS_5tupleIJONS_34_GLOBAL__N__10_locale_cpp_a718320311__fake_bindEEEEEEvPv                                                                                   
0001969b  _ZNSt3__219istreambuf_iteratorIcNS_11char_traitsIcEEEppEv                                                                                                                                
000196bb  _ZNSt3__219istreambuf_iteratorIwNS_11char_traitsIwEEEppEv                                                                                                                                
000196dd  _ZNSt3__234_GLOBAL__N__10_string_cpp_11932bae29throw_from_string_invalid_argERKNS_12basic_stringIcNS_11char_traitsIcEENS_9allocatorIcEEEE                                                
000196fd  _ZNSt3__234_GLOBAL__N__10_string_cpp_11932bae30throw_from_string_out_of_rangeERKNS_12basic_stringIcNS_11char_traitsIcEENS_9allocatorIcEEEE                                               
0001971d  __sti___12_iostream_cpp_d173592a__prio101                                                                                                                                                
0001973d  iswlower                                                                                                                                                                                 
0001975d  memchr                                                                                                                                                                                   
0001977d  vsscanf                                                                                                                                                                                  
0001979d  wcrtomb                                                                                                                                                                                  
000197bd  _ZNKSt3__210moneypunctIcLb0EE13do_neg_formatEv                                                                                                                                           
000197db  _ZNKSt3__210moneypunctIcLb0EE13do_pos_formatEv                                                                                                                                           
000197f9  _ZNKSt3__210moneypunctIcLb0EE16do_negative_signEv                                                                                                                                        
00019817  _ZNKSt3__210moneypunctIcLb1EE13do_neg_formatEv                                                                                                                                           
00019835  _ZNKSt3__210moneypunctIcLb1EE13do_pos_formatEv                                                                                                                                           
00019853  _ZNKSt3__210moneypunctIcLb1EE16do_negative_signEv                                                                                                                                        
00019871  _ZNKSt3__210moneypunctIwLb0EE13do_neg_formatEv                                                                                                                                           
0001988f  _ZNKSt3__210moneypunctIwLb0EE13do_pos_formatEv                                                                                                                                           
000198ad  _ZNKSt3__210moneypunctIwLb0EE16do_negative_signEv                                                                                                                                        
000198cb  _ZNKSt3__210moneypunctIwLb1EE13do_neg_formatEv                                                                                                                                           
000198e9  _ZNKSt3__210moneypunctIwLb1EE13do_pos_formatEv                                                                                                                                           
00019907  _ZNKSt3__210moneypunctIwLb1EE16do_negative_signEv                                                                                                                                        
00019925  _ZNSt3__211char_traitsIcE6assignEPcjc                                                                                                                                                    
00019943  _ZNSt3__212basic_stringIcNS_11char_traitsIcEENS_9allocatorIcEEEC1Ev                                                                                                                      
00019961  _ZNSt3__212basic_stringIwNS_11char_traitsIwEENS_9allocatorIwEEEC1Ev                                                                                                                      
0001997f  _ZNSt3__215basic_streambufIcNS_11char_traitsIcEEE7seekoffExNS_8ios_base7seekdirEj                                                                                                        
0001999d  _ZNSt3__215basic_streambufIwNS_11char_traitsIwEEE7seekoffExNS_8ios_base7seekdirEj                                                                                                        
000199bb  _ZNKSt3__210moneypunctIcLb0EE11do_groupingEv                                                                                                                                             
000199d7  _ZNKSt3__210moneypunctIcLb0EE14do_curr_symbolEv                                                                                                                                          
000199f3  _ZNKSt3__210moneypunctIcLb0EE16do_positive_signEv                                                                                                                                        
00019a0f  _ZNKSt3__210moneypunctIcLb1EE11do_groupingEv                                                                                                                                             
00019a2b  _ZNKSt3__210moneypunctIcLb1EE14do_curr_symbolEv                                                                                                                                          
00019a47  _ZNKSt3__210moneypunctIcLb1EE16do_positive_signEv                                                                                                                                        
00019a63  _ZNKSt3__210moneypunctIwLb0EE11do_groupingEv                                                                                                                                             
00019a7f  _ZNKSt3__210moneypunctIwLb0EE14do_curr_symbolEv                                                                                                                                          
00019a9b  _ZNKSt3__210moneypunctIwLb0EE16do_positive_signEv                                                                                                                                        
00019ab7  _ZNKSt3__210moneypunctIwLb1EE11do_groupingEv                                                                                                                                             
00019ad3  _ZNKSt3__210moneypunctIwLb1EE14do_curr_symbolEv                                                                                                                                          
00019aef  _ZNKSt3__210moneypunctIwLb1EE16do_positive_signEv                                                                                                                                        
00019b0b  _ZNKSt3__25ctypeIwE5do_isEhw                                                                                                                                                             
00019b27  _ZNSt3__212basic_stringIcNS_11char_traitsIcEENS_9allocatorIcEEE6insertEjPKc                                                                                                              
00019b45  _ZNSt3__213basic_istreamIcNS_11char_traitsIcEEED1Ev                                                                                                                                      
00019b61  _ZNSt3__213basic_istreamIwNS_11char_traitsIwEEED1Ev                                                                                                                                      
00019b7d  _ZNSt3__213basic_ostreamIcNS_11char_traitsIcEEED1Ev                                                                                                                                      
00019b99  _ZNSt3__213basic_ostreamIwNS_11char_traitsIwEEED1Ev                                                                                                                                      
00019bb5  _ZNSt3__26locale5__imp12make_classicEv                                                                                                                                                   
00019bd1  _ZNSt3__27codecvtIwciEC1Ej                                                                                                                                                               
00019bd1  _ZNSt3__27codecvtIwciEC2Ej                                                                                                                                                               
00019bed  __cxa_vec_dtor                                                                                                                                                                           
00019c09  memccpy                                                                                                                                                                                  
00019c25  snprintf_l                                                                                                                                                                               
00019c41  _ZNSt3__214__shared_count16__release_sharedEv                                                                                                                                            
00019c5b  _ZNSt3__28numpunctIcED1Ev                                                                                                                                                                
00019c5b  _ZNSt3__28numpunctIcED2Ev                                                                                                                                                                
00019c75  _ZNSt3__28numpunctIwED1Ev                                                                                                                                                                
00019c75  _ZNSt3__28numpunctIwED2Ev                                                                                                                                                                
00019c8f  _ZNSt3__28time_putIcNS_19ostreambuf_iteratorIcNS_11char_traitsIcEEEEED0Ev                                                                                                                
00019ca9  _ZNSt3__28time_putIwNS_19ostreambuf_iteratorIwNS_11char_traitsIwEEEEED0Ev                                                                                                                
00019cc3  asprintf_l                                                                                                                                                                               
00019cdd  sscanf_l                                                                                                                                                                                 
00019d11  UART0_ISR_C                                                                                                                                                                              
00019d1d  SysTick_ISR_C                                                                                                                                                                            
00019d29  _ZNKSt3__25ctypeIcE8do_widenEPKcS3_Pc                                                                                                                                                    
00019d41  _ZNKSt3__25ctypeIwE8do_widenEPKcS3_Pw                                                                                                                                                    
00019d59  _ZNKSt3__27codecvtIDiciE9do_lengthERiPKcS4_j                                                                                                                                             
00019d71  _ZNKSt3__27codecvtIDsciE9do_lengthERiPKcS4_j                                                                                                                                             
00019d89  _ZNSt3__210__time_putD1Ev                                                                                                                                                                
00019d89  _ZNSt3__210__time_putD2Ev                                                                                                                                                                
00019da1  _ZNSt3__211__call_onceERVmPvPFvS2_E                                                                                                                                                      
00019db9  _ZNSt3__212basic_stringIcNS_11char_traitsIcEENS_9allocatorIcEEE6appendEPKc                                                                                                               
00019dd1  _ZNSt3__212basic_stringIcNS_11char_traitsIcEENS_9allocatorIcEEE6assignEPKc                                                                                                               
00019de9  _ZNSt3__212basic_stringIwNS_11char_traitsIwEENS_9allocatorIwEEE6assignEPKw                                                                                                               
00019e01  _ZNSt3__25ctypeIcED1Ev                                                                                                                                                                   
00019e01  _ZNSt3__25ctypeIcED2Ev                                                                                                                                                                   
00019e19  _ZNSt3__26locale5__imp11make_globalEv                                                                                                                                                    
00019e31  _ZNSt3__26localeD1Ev                                                                                                                                                                     
00019e31  _ZNSt3__26localeD2Ev                                                                                                                                                                     
00019e49  _ZNSt3__26vectorIPNS_6locale5facetENS_15__sso_allocatorIS3_Lj28EEEE18__construct_at_endEj                                                                                                
00019e91  __aeabi_lmul                                                                                                                                                                             
00019ea9  strcmp                                                                                                                                                                                   
00019ec1  strrchr                                                                                                                                                                                  
00019ed9  _ZNKSt3__26locale9use_facetERNS0_2idE                                                                                                                                                    
00019eef  _ZNSt3__215basic_streambufIcNS_11char_traitsIcEEE5sgetcEv                                                                                                                                
00019f05  _ZNSt3__215basic_streambufIwNS_11char_traitsIwEEE5sgetcEv                                                                                                                                
00019f1b  _ZNSt3__26localeC1Ev                                                                                                                                                                     
00019f1b  _ZNSt3__26localeC2Ev                                                                                                                                                                     
00019f31  strchr                                                                                                                                                                                   
00019fad  _ZNKSt3__27codecvtIcciE9do_lengthERiPKcS4_j                                                                                                                                              
00019fc1  _ZNSt3__213basic_istreamIcNS_11char_traitsIcEEED2Ev                                                                                                                                      
00019fd5  _ZNSt3__213basic_istreamIwNS_11char_traitsIwEEED2Ev                                                                                                                                      
00019fe9  _ZNSt3__24swapIViEENS_9enable_ifIXaasr3std3__221is_move_constructibleIT_EE5valuesr3std3__218is_move_assignableIS3_EE5valueEvE4typeERS3_S6_                                               
00019ffd  _ZNSt3__28time_putIcNS_19ostreambuf_iteratorIcNS_11char_traitsIcEEEEED1Ev                                                                                                                
0001a011  _ZNSt3__28time_putIwNS_19ostreambuf_iteratorIwNS_11char_traitsIwEEEEED1Ev                                                                                                                
0001a025  copysign                                                                                                                                                                                 
0001a025  copysignl                                                                                                                                                                                
0001a039  strcpy                                                                                                                                                                                   
0001a04d  strlen                                                                                                                                                                                   
0001a061  wmemset                                                                                                                                                                                  
0001a075  _ZNSt3__213basic_ostreamIcNS_11char_traitsIcEEED2Ev                                                                                                                                      
0001a087  _ZNSt3__213basic_ostreamIwNS_11char_traitsIwEEED2Ev                                                                                                                                      
0001a0ab  copysignf                                                                                                                                                                                
0001a0bd  wcslen                                                                                                                                                                                   
0001a0cf  _ZNKSt3__27num_getIcNS_19istreambuf_iteratorIcNS_11char_traitsIcEEEEE6do_getES4_S4_RNS_8ios_baseERjRd                                                                                    
0001a0df  _ZNKSt3__27num_getIcNS_19istreambuf_iteratorIcNS_11char_traitsIcEEEEE6do_getES4_S4_RNS_8ios_baseERjRe                                                                                    
0001a0ef  _ZNKSt3__27num_getIcNS_19istreambuf_iteratorIcNS_11char_traitsIcEEEEE6do_getES4_S4_RNS_8ios_baseERjRf                                                                                    
0001a0ff  _ZNKSt3__27num_getIcNS_19istreambuf_iteratorIcNS_11char_traitsIcEEEEE6do_getES4_S4_RNS_8ios_baseERjRl                                                                                    
0001a10f  _ZNKSt3__27num_getIcNS_19istreambuf_iteratorIcNS_11char_traitsIcEEEEE6do_getES4_S4_RNS_8ios_baseERjRm                                                                                    
0001a11f  _ZNKSt3__27num_getIcNS_19istreambuf_iteratorIcNS_11char_traitsIcEEEEE6do_getES4_S4_RNS_8ios_baseERjRt                                                                                    
0001a12f  _ZNKSt3__27num_getIcNS_19istreambuf_iteratorIcNS_11char_traitsIcEEEEE6do_getES4_S4_RNS_8ios_baseERjRx                                                                                    
0001a13f  _ZNKSt3__27num_getIcNS_19istreambuf_iteratorIcNS_11char_traitsIcEEEEE6do_getES4_S4_RNS_8ios_baseERjRy                                                                                    
0001a14f  _ZNKSt3__27num_getIcNS_19istreambuf_iteratorIcNS_11char_traitsIcEEEEE6do_getES4_S4_RNS_8ios_baseERjS8_                                                                                   
0001a15f  _ZNKSt3__27num_getIwNS_19istreambuf_iteratorIwNS_11char_traitsIwEEEEE6do_getES4_S4_RNS_8ios_baseERjRd                                                                                    
0001a16f  _ZNKSt3__27num_getIwNS_19istreambuf_iteratorIwNS_11char_traitsIwEEEEE6do_getES4_S4_RNS_8ios_baseERjRe                                                                                    
0001a17f  _ZNKSt3__27num_getIwNS_19istreambuf_iteratorIwNS_11char_traitsIwEEEEE6do_getES4_S4_RNS_8ios_baseERjRf                                                                                    
0001a18f  _ZNKSt3__27num_getIwNS_19istreambuf_iteratorIwNS_11char_traitsIwEEEEE6do_getES4_S4_RNS_8ios_baseERjRl                                                                                    
0001a19f  _ZNKSt3__27num_getIwNS_19istreambuf_iteratorIwNS_11char_traitsIwEEEEE6do_getES4_S4_RNS_8ios_baseERjRm                                                                                    
0001a1af  _ZNKSt3__27num_getIwNS_19istreambuf_iteratorIwNS_11char_traitsIwEEEEE6do_getES4_S4_RNS_8ios_baseERjRt                                                                                    
0001a1bf  _ZNKSt3__27num_getIwNS_19istreambuf_iteratorIwNS_11char_traitsIwEEEEE6do_getES4_S4_RNS_8ios_baseERjRx                                                                                    
0001a1cf  _ZNKSt3__27num_getIwNS_19istreambuf_iteratorIwNS_11char_traitsIwEEEEE6do_getES4_S4_RNS_8ios_baseERjRy                                                                                    
0001a1df  _ZNKSt3__27num_getIwNS_19istreambuf_iteratorIwNS_11char_traitsIwEEEEE6do_getES4_S4_RNS_8ios_baseERjS8_                                                                                   
0001a1ef  _ZNSt3__210unique_ptrIcPFvPvEE5resetEPc                                                                                                                                                  
0001a1ff  _ZNSt3__210unique_ptrIhPFvPvEE5resetEPh                                                                                                                                                  
0001a20f  _ZNSt3__210unique_ptrIwPFvPvEE5resetEPw                                                                                                                                                  
0001a21f  _ZNSt3__222__compressed_pair_elemINS_12basic_stringIcNS_11char_traitsIcEENS_9allocatorIcEEE5__repELi0ELb0EEC1Ev                                                                          
0001a22f  _ZNSt3__222__compressed_pair_elemINS_12basic_stringIwNS_11char_traitsIwEENS_9allocatorIwEEE5__repELi0ELb0EEC1Ev                                                                          
0001a241  _ZNSt3__234_GLOBAL__N__10_string_cpp_11932bae10as_integerIiNS_12basic_stringIcNS_11char_traitsIcEENS_9allocatorIcEEEEEET_RKS7_RKT0_Pji                                                   
0001a251  _ZNSt3__26locale2id6__initEv                                                                                                                                                             
0001a261  mbsrtowcs                                                                                                                                                                                
0001a271  strtod_l                                                                                                                                                                                 
0001a281  strtold_l                                                                                                                                                                                
0001a291  _ZN10__cxxabiv117__class_type_infoD0Ev                                                                                                                                                   
0001a29f  _ZN10__cxxabiv120__si_class_type_infoD0Ev                                                                                                                                                
0001a2ad  _ZN10__cxxabiv121__vmi_class_type_infoD0Ev                                                                                                                                               
0001a2bb  _ZNKSt3__27codecvtIcciE5do_inERiPKcS4_RS4_PcS6_RS6_                                                                                                                                      
0001a2c9  _ZNKSt3__27codecvtIcciE6do_outERiPKcS4_RS4_PcS6_RS6_                                                                                                                                     
0001a2d7  _ZNSt3__210__stdinbufIcED0Ev                                                                                                                                                             
0001a2e5  _ZNSt3__210__stdinbufIwED0Ev                                                                                                                                                             
0001a2f3  _ZNSt3__210moneypunctIcLb0EED0Ev                                                                                                                                                         
0001a301  _ZNSt3__210moneypunctIcLb1EED0Ev                                                                                                                                                         
0001a30f  _ZNSt3__210moneypunctIwLb0EED0Ev                                                                                                                                                         
0001a31d  _ZNSt3__210moneypunctIwLb1EED0Ev                                                                                                                                                         
0001a32b  _ZNSt3__211__stdoutbufIcED0Ev                                                                                                                                                            
0001a339  _ZNSt3__211__stdoutbufIwED0Ev                                                                                                                                                            
0001a347  _ZNSt3__213basic_istreamIcNS_11char_traitsIcEEED0Ev                                                                                                                                      
0001a355  _ZNSt3__213basic_istreamIwNS_11char_traitsIwEEED0Ev                                                                                                                                      
0001a363  _ZNSt3__213basic_ostreamIcNS_11char_traitsIcEEED0Ev                                                                                                                                      
0001a371  _ZNSt3__213basic_ostreamIwNS_11char_traitsIwEEED0Ev                                                                                                                                      
0001a37f  _ZNSt3__215basic_streambufIcNS_11char_traitsIcEEED0Ev                                                                                                                                    
0001a38d  _ZNSt3__215basic_streambufIcNS_11char_traitsIcEEED1Ev                                                                                                                                    
0001a39b  _ZNSt3__215basic_streambufIwNS_11char_traitsIwEEED0Ev                                                                                                                                    
0001a3a9  _ZNSt3__215basic_streambufIwNS_11char_traitsIwEEED1Ev                                                                                                                                    
0001a3b7  _ZNSt3__25ctypeIcED0Ev                                                                                                                                                                   
0001a3c5  _ZNSt3__25ctypeIwED0Ev                                                                                                                                                                   
0001a3d3  _ZNSt3__26locale5__impD0Ev                                                                                                                                                               
0001a3e1  _ZNSt3__26locale5facetD0Ev                                                                                                                                                               
0001a3ef  _ZNSt3__27codecvtIDiciED0Ev                                                                                                                                                              
0001a3fd  _ZNSt3__27codecvtIDsciED0Ev                                                                                                                                                              
0001a40b  _ZNSt3__27codecvtIcciED0Ev                                                                                                                                                               
0001a419  _ZNSt3__27codecvtIwciED0Ev                                                                                                                                                               
0001a427  _ZNSt3__27collateIcED0Ev                                                                                                                                                                 
0001a435  _ZNSt3__27collateIwED0Ev                                                                                                                                                                 
0001a443  _ZNSt3__27num_getIcNS_19istreambuf_iteratorIcNS_11char_traitsIcEEEEED0Ev                                                                                                                 
0001a451  _ZNSt3__27num_getIwNS_19istreambuf_iteratorIwNS_11char_traitsIwEEEEED0Ev                                                                                                                 
0001a45f  _ZNSt3__27num_putIcNS_19ostreambuf_iteratorIcNS_11char_traitsIcEEEEED0Ev                                                                                                                 
0001a46d  _ZNSt3__27num_putIwNS_19ostreambuf_iteratorIwNS_11char_traitsIwEEEEED0Ev                                                                                                                 
0001a47b  _ZNSt3__28ios_baseD0Ev                                                                                                                                                                   
0001a489  _ZNSt3__28messagesIcED0Ev                                                                                                                                                                
0001a497  _ZNSt3__28messagesIwED0Ev                                                                                                                                                                
0001a4a5  _ZNSt3__28numpunctIcED0Ev                                                                                                                                                                
0001a4b3  _ZNSt3__28numpunctIwED0Ev                                                                                                                                                                
0001a4c1  _ZNSt3__28time_getIcNS_19istreambuf_iteratorIcNS_11char_traitsIcEEEEED0Ev                                                                                                                
0001a4cf  _ZNSt3__28time_getIwNS_19istreambuf_iteratorIwNS_11char_traitsIwEEEEED0Ev                                                                                                                
0001a4dd  _ZNSt3__29basic_iosIcNS_11char_traitsIcEEED0Ev                                                                                                                                           
0001a4eb  _ZNSt3__29basic_iosIwNS_11char_traitsIwEEED0Ev                                                                                                                                           
0001a4f9  _ZNSt3__29money_getIcNS_19istreambuf_iteratorIcNS_11char_traitsIcEEEEED0Ev                                                                                                               
0001a507  _ZNSt3__29money_getIwNS_19istreambuf_iteratorIwNS_11char_traitsIwEEEEED0Ev                                                                                                               
0001a515  _ZNSt3__29money_putIcNS_19ostreambuf_iteratorIcNS_11char_traitsIcEEEEED0Ev                                                                                                               
0001a523  _ZNSt3__29money_putIwNS_19ostreambuf_iteratorIwNS_11char_traitsIwEEEEED0Ev                                                                                                               
0001a531  __TI_decompress_none                                                                                                                                                                     
0001a541  _ZNKSt3__220__vector_base_commonILb1EE20__throw_length_errorEv                                                                                                                           
0001a54d  _ZNKSt3__221__basic_string_commonILb1EE20__throw_length_errorEv                                                                                                                          
0001a559  _ZNKSt3__221__basic_string_commonILb1EE20__throw_out_of_rangeEv                                                                                                                          
0001a565  _ZNKSt3__25ctypeIcE9do_narrowEcc                                                                                                                                                         
0001a571  _ZNKSt3__25ctypeIwE9do_narrowEwc                                                                                                                                                         
0001a57d  _ZNKSt3__27codecvtIwciE13do_max_lengthEv                                                                                                                                                 
0001a589  _ZNSt3__211char_traitsIcE2eqEcc                                                                                                                                                          
0001a595  _ZNSt3__26locale5facet16__on_zero_sharedEv                                                                                                                                               
0001a5a1  _ZNSt3__26localeC1ERKS0_                                                                                                                                                                 
0001a5a1  _ZNSt3__26localeC2ERKS0_                                                                                                                                                                 
0001a5ad  _ZNSt3__28ios_base5clearEj                                                                                                                                                               
0001a5b9  _ZSt15get_new_handlerv                                                                                                                                                                   
0001a5c5  _ZTv0_n12_NSt3__213basic_istreamIcNS_11char_traitsIcEEED0Ev                                                                                                                              
0001a5d1  _ZTv0_n12_NSt3__213basic_istreamIcNS_11char_traitsIcEEED1Ev                                                                                                                              
0001a5dd  _ZTv0_n12_NSt3__213basic_istreamIwNS_11char_traitsIwEEED0Ev                                                                                                                              
0001a5e9  _ZTv0_n12_NSt3__213basic_istreamIwNS_11char_traitsIwEEED1Ev                                                                                                                              
0001a5f5  _ZTv0_n12_NSt3__213basic_ostreamIcNS_11char_traitsIcEEED0Ev                                                                                                                              
0001a601  _ZTv0_n12_NSt3__213basic_ostreamIcNS_11char_traitsIcEEED1Ev                                                                                                                              
0001a60d  _ZTv0_n12_NSt3__213basic_ostreamIwNS_11char_traitsIwEEED0Ev                                                                                                                              
0001a619  _ZTv0_n12_NSt3__213basic_ostreamIwNS_11char_traitsIwEEED1Ev                                                                                                                              
0001a625  __cxa_guard_acquire                                                                                                                                                                      
0001a631  __cxa_ia64_exit                                                                                                                                                                          
0001a63d  __TI_zero_init                                                                                                                                                                           
0001a649  mbrlen                                                                                                                                                                                   
0001a655  mbsnrtowcs_l                                                                                                                                                                             
0001a661  ResetISR                                                                                                                                                                                 
0001a66d  wcsnrtombs_l                                                                                                                                                                             
0001a679  _ZNKSt3__25ctypeIcE5widenEPKcS3_Pc                                                                                                                                                       
0001a683  _ZNKSt3__25ctypeIcE5widenEc                                                                                                                                                              
0001a68d  _ZNKSt3__25ctypeIcE6narrowEcc                                                                                                                                                            
0001a697  _ZNKSt3__25ctypeIcE7toupperEc                                                                                                                                                            
0001a6a1  _ZNKSt3__25ctypeIwE2isEhw                                                                                                                                                                
0001a6ab  _ZNKSt3__25ctypeIwE5widenEPKcS3_Pw                                                                                                                                                       
0001a6b5  _ZNKSt3__25ctypeIwE5widenEc                                                                                                                                                              
0001a6bf  _ZNKSt3__27codecvtIwciE13always_noconvEv                                                                                                                                                 
0001a6c9  _ZNKSt3__28numpunctIcE13thousands_sepEv                                                                                                                                                  
0001a6d3  _ZNKSt3__28numpunctIcE8groupingEv                                                                                                                                                        
0001a6dd  _ZNKSt3__28numpunctIcE9falsenameEv                                                                                                                                                       
0001a6e7  _ZNKSt3__28numpunctIwE13thousands_sepEv                                                                                                                                                  
0001a6f1  _ZNKSt3__28numpunctIwE8groupingEv                                                                                                                                                        
0001a6fb  _ZNKSt3__28numpunctIwE9falsenameEv                                                                                                                                                       
0001a705  _ZNSt3__211char_traitsIcE7compareEPKcS3_j                                                                                                                                                
0001a70f  __cxa_guard_release                                                                                                                                                                      
0001a719  _ZNKSt3__26locale5__imp9use_facetEl                                                                                                                                                      
0001a721  _ZNKSt3__27codecvtIDiciE10do_unshiftERiPcS3_RS3_                                                                                                                                         
0001a729  _ZNKSt3__27codecvtIDsciE10do_unshiftERiPcS3_RS3_                                                                                                                                         
0001a731  _ZNKSt3__27codecvtIcciE10do_unshiftERiPcS3_RS3_                                                                                                                                          
0001a739  _ZNSt3__211char_traitsIcE4copyEPcPKcj                                                                                                                                                    
0001a741  _ZNSt3__211char_traitsIcE4moveEPcPKcj                                                                                                                                                    
0001a749  _ZNSt3__211char_traitsIwE4copyEPwPKwj                                                                                                                                                    
0001a751  _ZNSt3__211char_traitsIwE4moveEPwPKwj                                                                                                                                                    
0001a759  _ZNSt3__25ctypeIcE13classic_tableEv                                                                                                                                                      
0001a761  _ZdlPv                                                                                                                                                                                   
0001a769  __aeabi_errno_addr                                                                                                                                                                       
0001a779  vasprintf_l                                                                                                                                                                              
0001a781  _ZNKSt3__210moneypunctIwLb0EE16do_decimal_pointEv                                                                                                                                        
0001a787  _ZNKSt3__210moneypunctIwLb0EE16do_thousands_sepEv                                                                                                                                        
0001a78d  _ZNKSt3__210moneypunctIwLb1EE16do_decimal_pointEv                                                                                                                                        
0001a793  _ZNKSt3__210moneypunctIwLb1EE16do_thousands_sepEv                                                                                                                                        
0001a799  _ZNKSt3__26vectorIPNS_6locale5facetENS_15__sso_allocatorIS3_Lj28EEEE8max_sizeEv                                                                                                          
0001a79f  _ZNKSt3__28ios_base6getlocEv                                                                                                                                                             
0001a7a5  _ZNKSt3__28messagesIcE6do_getEiiiRKNS_12basic_stringIcNS_11char_traitsIcEENS_9allocatorIcEEEE                                                                                            
0001a7ab  _ZNKSt3__28messagesIcE7do_openERKNS_12basic_stringIcNS_11char_traitsIcEENS_9allocatorIcEEEERKNS_6localeE                                                                                 
0001a7b1  _ZNKSt3__28messagesIwE6do_getEiiiRKNS_12basic_stringIwNS_11char_traitsIwEENS_9allocatorIwEEEE                                                                                            
0001a7b7  _ZNKSt3__28messagesIwE7do_openERKNS_12basic_stringIcNS_11char_traitsIcEENS_9allocatorIcEEEERKNS_6localeE                                                                                 
0001a7bd  _ZNKSt3__28numpunctIcE11do_groupingEv                                                                                                                                                    
0001a7c3  _ZNKSt3__28numpunctIwE11do_groupingEv                                                                                                                                                    
0001a7c9  _ZNSt3__210__stdinbufIcE5uflowEv                                                                                                                                                         
0001a7cf  _ZNSt3__210__stdinbufIcE9underflowEv                                                                                                                                                     
0001a7d5  _ZNSt3__210__stdinbufIwE5uflowEv                                                                                                                                                         
0001a7db  _ZNSt3__210__stdinbufIwE9underflowEv                                                                                                                                                     
0001a7e1  _ZNSt3__211char_traitsIcE6assignERcRKc                                                                                                                                                   
0001a7e7  _ZNSt3__211char_traitsIwE6assignERwRKw                                                                                                                                                   
0001a7ed  _ZNSt3__215basic_streambufIcNS_11char_traitsIcEEE8overflowEi                                                                                                                             
0001a7f3  _ZNSt3__215basic_streambufIcNS_11char_traitsIcEEE9pbackfailEi                                                                                                                            
0001a7f9  _ZNSt3__215basic_streambufIcNS_11char_traitsIcEEE9underflowEv                                                                                                                            
0001a7ff  _ZNSt3__215basic_streambufIwNS_11char_traitsIwEEE8overflowEi                                                                                                                             
0001a805  _ZNSt3__215basic_streambufIwNS_11char_traitsIwEEE9pbackfailEi                                                                                                                            
0001a80b  _ZNSt3__215basic_streambufIwNS_11char_traitsIwEEE9underflowEv                                                                                                                            
0001a811  wmemcpy                                                                                                                                                                                  
0001a817  wmemmove                                                                                                                                                                                 
0001a81d  _ZN10__cxxabiv117__class_type_infoD1Ev                                                                                                                                                   
0001a81d  _ZN10__cxxabiv117__class_type_infoD2Ev                                                                                                                                                   
0001a821  _ZN10__cxxabiv120__si_class_type_infoD1Ev                                                                                                                                                
0001a821  _ZN10__cxxabiv120__si_class_type_infoD2Ev                                                                                                                                                
0001a825  _ZN10__cxxabiv121__vmi_class_type_infoD1Ev                                                                                                                                               
0001a825  _ZN10__cxxabiv121__vmi_class_type_infoD2Ev                                                                                                                                               
0001a82d  _ZNKSt3__210moneypunctIcLb0EE14do_frac_digitsEv                                                                                                                                          
0001a831  _ZNKSt3__210moneypunctIcLb0EE16do_decimal_pointEv                                                                                                                                        
0001a835  _ZNKSt3__210moneypunctIcLb0EE16do_thousands_sepEv                                                                                                                                        
0001a839  _ZNKSt3__210moneypunctIcLb1EE14do_frac_digitsEv                                                                                                                                          
0001a83d  _ZNKSt3__210moneypunctIcLb1EE16do_decimal_pointEv                                                                                                                                        
0001a841  _ZNKSt3__210moneypunctIcLb1EE16do_thousands_sepEv                                                                                                                                        
0001a845  _ZNKSt3__210moneypunctIwLb0EE14do_frac_digitsEv                                                                                                                                          
0001a849  _ZNKSt3__210moneypunctIwLb1EE14do_frac_digitsEv                                                                                                                                          
0001a84d  _ZNKSt3__25ctypeIcE8do_widenEc                                                                                                                                                           
0001a851  _ZNKSt3__25ctypeIwE8do_widenEc                                                                                                                                                           
0001a855  _ZNKSt3__27codecvtIDiciE11do_encodingEv                                                                                                                                                  
0001a859  _ZNKSt3__27codecvtIDiciE13do_max_lengthEv                                                                                                                                                
0001a85d  _ZNKSt3__27codecvtIDiciE16do_always_noconvEv                                                                                                                                             
0001a861  _ZNKSt3__27codecvtIDsciE11do_encodingEv                                                                                                                                                  
0001a865  _ZNKSt3__27codecvtIDsciE13do_max_lengthEv                                                                                                                                                
0001a869  _ZNKSt3__27codecvtIDsciE16do_always_noconvEv                                                                                                                                             
0001a86d  _ZNKSt3__27codecvtIcciE11do_encodingEv                                                                                                                                                   
0001a871  _ZNKSt3__27codecvtIcciE13do_max_lengthEv                                                                                                                                                 
0001a875  _ZNKSt3__27codecvtIcciE16do_always_noconvEv                                                                                                                                              
0001a879  _ZNKSt3__27codecvtIwciE16do_always_noconvEv                                                                                                                                              
0001a87d  _ZNKSt3__28numpunctIcE16do_decimal_pointEv                                                                                                                                               
0001a881  _ZNKSt3__28numpunctIcE16do_thousands_sepEv                                                                                                                                               
0001a885  _ZNKSt3__28numpunctIwE16do_decimal_pointEv                                                                                                                                               
0001a889  _ZNKSt3__28numpunctIwE16do_thousands_sepEv                                                                                                                                               
0001a88d  _ZNKSt3__28time_getIcNS_19istreambuf_iteratorIcNS_11char_traitsIcEEEEE13do_date_orderEv                                                                                                  
0001a891  _ZNKSt3__28time_getIwNS_19istreambuf_iteratorIwNS_11char_traitsIwEEEEE13do_date_orderEv                                                                                                  
0001a895  _ZNSt3__210__stdinbufIcED1Ev                                                                                                                                                             
0001a899  _ZNSt3__210__stdinbufIwED1Ev                                                                                                                                                             
0001a89d  _ZNSt3__210moneypunctIcLb0EED1Ev                                                                                                                                                         
0001a8a1  _ZNSt3__210moneypunctIcLb1EED1Ev                                                                                                                                                         
0001a8a5  _ZNSt3__210moneypunctIwLb0EED1Ev                                                                                                                                                         
0001a8a9  _ZNSt3__210moneypunctIwLb1EED1Ev                                                                                                                                                         
0001a8ad  _ZNSt3__211__stdoutbufIcED1Ev                                                                                                                                                            
0001a8b1  _ZNSt3__211__stdoutbufIwED1Ev                                                                                                                                                            
0001a8b5  _ZNSt3__211char_traitsIcE6lengthEPKc                                                                                                                                                     
0001a8b9  _ZNSt3__211char_traitsIwE6lengthEPKw                                                                                                                                                     
0001a8bd  _ZNSt3__215basic_streambufIcNS_11char_traitsIcEEE4syncEv                                                                                                                                 
0001a8c1  _ZNSt3__215basic_streambufIcNS_11char_traitsIcEEE9showmanycEv                                                                                                                            
0001a8c5  _ZNSt3__215basic_streambufIcNS_11char_traitsIcEEEC2Ev                                                                                                                                    
0001a8c9  _ZNSt3__215basic_streambufIcNS_11char_traitsIcEEED2Ev                                                                                                                                    
0001a8cd  _ZNSt3__215basic_streambufIwNS_11char_traitsIwEEE4syncEv                                                                                                                                 
0001a8d1  _ZNSt3__215basic_streambufIwNS_11char_traitsIwEEE9showmanycEv                                                                                                                            
0001a8d5  _ZNSt3__215basic_streambufIwNS_11char_traitsIwEEEC2Ev                                                                                                                                    
0001a8d9  _ZNSt3__215basic_streambufIwNS_11char_traitsIwEEED2Ev                                                                                                                                    
0001a8dd  _ZNSt3__220__throw_length_errorEPKc                                                                                                                                                      
0001a8e1  _ZNSt3__220__throw_out_of_rangeEPKc                                                                                                                                                      
0001a8e5  _ZNSt3__221__throw_runtime_errorEPKc                                                                                                                                                     
0001a8e9  _ZNSt3__222__compressed_pair_elemINS_12basic_stringIcNS_11char_traitsIcEENS_9allocatorIcEEE5__repELi0ELb0EEC2Ev                                                                          
0001a8ed  _ZNSt3__222__compressed_pair_elemINS_12basic_stringIwNS_11char_traitsIwEENS_9allocatorIwEEE5__repELi0ELb0EEC2Ev                                                                          
0001a8f1  _ZNSt3__222__compressed_pair_elemINS_9allocatorIcEELi1ELb1EEC2IRKS2_vEEOT_                                                                                                               
0001a8f5  _ZNSt3__222__compressed_pair_elemINS_9allocatorIcEELi1ELb1EEC2IS2_vEEOT_                                                                                                                 
0001a8f9  _ZNSt3__222__compressed_pair_elemINS_9allocatorIwEELi1ELb1EEC2IS2_vEEOT_                                                                                                                 
0001a8fd  _ZNSt3__25ctypeIwED1Ev                                                                                                                                                                   
0001a8fd  _ZNSt3__25ctypeIwED2Ev                                                                                                                                                                   
0001a901  _ZNSt3__26locale5facetD1Ev                                                                                                                                                               
0001a901  _ZNSt3__26locale5facetD2Ev                                                                                                                                                               
0001a905  _ZNSt3__27codecvtIDiciED1Ev                                                                                                                                                              
0001a905  _ZNSt3__27codecvtIDiciED2Ev                                                                                                                                                              
0001a909  _ZNSt3__27codecvtIDsciED1Ev                                                                                                                                                              
0001a909  _ZNSt3__27codecvtIDsciED2Ev                                                                                                                                                              
0001a90d  _ZNSt3__27codecvtIcciED1Ev                                                                                                                                                               
0001a90d  _ZNSt3__27codecvtIcciED2Ev                                                                                                                                                               
0001a911  _ZNSt3__27collateIcED1Ev                                                                                                                                                                 
0001a915  _ZNSt3__27collateIwED1Ev                                                                                                                                                                 
0001a919  _ZNSt3__27num_getIcNS_19istreambuf_iteratorIcNS_11char_traitsIcEEEEED1Ev                                                                                                                 
0001a91d  _ZNSt3__27num_getIwNS_19istreambuf_iteratorIwNS_11char_traitsIwEEEEED1Ev                                                                                                                 
0001a921  _ZNSt3__27num_putIcNS_19ostreambuf_iteratorIcNS_11char_traitsIcEEEEED1Ev                                                                                                                 
0001a925  _ZNSt3__27num_putIwNS_19ostreambuf_iteratorIwNS_11char_traitsIwEEEEED1Ev                                                                                                                 
0001a929  _ZNSt3__28messagesIcED1Ev                                                                                                                                                                
0001a92d  _ZNSt3__28messagesIwED1Ev                                                                                                                                                                
0001a931  _ZNSt3__28time_getIcNS_19istreambuf_iteratorIcNS_11char_traitsIcEEEEED1Ev                                                                                                                
0001a935  _ZNSt3__28time_getIwNS_19istreambuf_iteratorIwNS_11char_traitsIwEEEEED1Ev                                                                                                                
0001a939  _ZNSt3__29basic_iosIcNS_11char_traitsIcEEED1Ev                                                                                                                                           
0001a93d  _ZNSt3__29basic_iosIcNS_11char_traitsIcEEED2Ev                                                                                                                                           
0001a941  _ZNSt3__29basic_iosIwNS_11char_traitsIwEEED1Ev                                                                                                                                           
0001a945  _ZNSt3__29basic_iosIwNS_11char_traitsIwEEED2Ev                                                                                                                                           
0001a949  _ZNSt3__29money_getIcNS_19istreambuf_iteratorIcNS_11char_traitsIcEEEEED1Ev                                                                                                               
0001a94d  _ZNSt3__29money_getIwNS_19istreambuf_iteratorIwNS_11char_traitsIwEEEEED1Ev                                                                                                               
0001a951  _ZNSt3__29money_putIcNS_19ostreambuf_iteratorIcNS_11char_traitsIcEEEEED1Ev                                                                                                               
0001a955  _ZNSt3__29money_putIwNS_19ostreambuf_iteratorIwNS_11char_traitsIwEEEEED1Ev                                                                                                               
0001a959  _ZSt18uncaught_exceptionv                                                                                                                                                                
0001a9b9  _ZdaPv                                                                                                                                                                                   
0001a9bd  _ZdlPvj                                                                                                                                                                                  
0001a9c1  _Znaj                                                                                                                                                                                    
0001a9c5  ___mb_cur_max_l                                                                                                                                                                          
0001a9c9  __abort_execution                                                                                                                                                                        
0001a9d5  _system_pre_init                                                                                                                                                                         
0001a9d9  C$$EXIT                                                                                                                                                                                  
0001a9d9  _ZSt17__throw_bad_allocv                                                                                                                                                                 
0001a9d9  abort                                                                                                                                                                                    
0001a9dd  mbrlen_l                                                                                                                                                                                 
0001a9e1  mbrtowc_l                                                                                                                                                                                
0001a9e5  mbsrtowcs_l                                                                                                                                                                              
0001a9e9  mbtowc_l                                                                                                                                                                                 
0001a9ed  newlocale                                                                                                                                                                                
0001a9f1  strftime_l                                                                                                                                                                               
0001a9f5  strtof_l                                                                                                                                                                                 
0001a9f9  strtoll_l                                                                                                                                                                                
0001a9fd  strtoull_l                                                                                                                                                                               
0001aa01  wcrtomb_l                                                                                                                                                                                
0001b1d2  _ZZNKSt3__27num_putIcNS_19ostreambuf_iteratorIcNS_11char_traitsIcEEEEE6do_putES4_RNS_8ios_baseEceEs                                                                                      
0001b306  _ZNSt3__214__num_get_base5__srcE                                                                                                                                                         
0001b3b8  _ctypes_                                                                                                                                                                                 
0001b4b9  _ZZNKSt3__220__vector_base_commonILb1EE20__throw_length_errorEvEs                                                                                                                        
0001b636  _ZZNKSt3__27num_putIcNS_19ostreambuf_iteratorIcNS_11char_traitsIcEEEEE6do_putES4_RNS_8ios_baseEclEs                                                                                      
0001b690  _ZTVNSt3__28time_getIcNS_19istreambuf_iteratorIcNS_11char_traitsIcEEEEEE                                                                                                                 
0001b6e4  _ZTVNSt3__28time_getIwNS_19istreambuf_iteratorIwNS_11char_traitsIwEEEEEE                                                                                                                 
0001b784  _ZTSNSt3__29money_getIcNS_19istreambuf_iteratorIcNS_11char_traitsIcEEEEEE                                                                                                                
0001b7ca  _ZTSNSt3__29money_getIwNS_19istreambuf_iteratorIwNS_11char_traitsIwEEEEEE                                                                                                                
0001b810  _ZTSNSt3__29money_putIcNS_19ostreambuf_iteratorIcNS_11char_traitsIcEEEEEE                                                                                                                
0001b856  _ZTSNSt3__29money_putIwNS_19ostreambuf_iteratorIwNS_11char_traitsIwEEEEEE                                                                                                                
0001b89c  _ZTSNSt3__28time_getIcNS_19istreambuf_iteratorIcNS_11char_traitsIcEEEEEE                                                                                                                 
0001b8e1  _ZTSNSt3__28time_getIwNS_19istreambuf_iteratorIwNS_11char_traitsIwEEEEEE                                                                                                                 
0001b926  _ZTSNSt3__28time_putIcNS_19ostreambuf_iteratorIcNS_11char_traitsIcEEEEEE                                                                                                                 
0001b96b  _ZTSNSt3__28time_putIwNS_19ostreambuf_iteratorIwNS_11char_traitsIwEEEEEE                                                                                                                 
0001b9b0  _ZZNSt3__29allocatorIwE8allocateEjPKvEs                                                                                                                                                  
0001b9f4  _ZTSNSt3__27num_getIcNS_19istreambuf_iteratorIcNS_11char_traitsIcEEEEEE                                                                                                                  
0001ba38  _ZTSNSt3__27num_getIwNS_19istreambuf_iteratorIwNS_11char_traitsIwEEEEEE                                                                                                                  
0001ba7c  _ZTSNSt3__27num_putIcNS_19ostreambuf_iteratorIcNS_11char_traitsIcEEEEEE                                                                                                                  
0001bac0  _ZTSNSt3__27num_putIwNS_19ostreambuf_iteratorIwNS_11char_traitsIwEEEEEE                                                                                                                  
0001bb04  _ZTVNSt3__25ctypeIwEE                                                                                                                                                                    
0001bb48  _ZTVNSt3__210__stdinbufIcEE                                                                                                                                                              
0001bb88  _ZTVNSt3__210__stdinbufIwEE                                                                                                                                                              
0001bbc8  _ZTVNSt3__211__stdoutbufIcEE                                                                                                                                                             
0001bc08  _ZTVNSt3__211__stdoutbufIwEE                                                                                                                                                             
0001bc48  _ZTVNSt3__215basic_streambufIcNS_11char_traitsIcEEEE                                                                                                                                     
0001bc88  _ZTVNSt3__215basic_streambufIwNS_11char_traitsIwEEEE                                                                                                                                     
0001bcc8  _ZTVNSt3__27num_getIcNS_19istreambuf_iteratorIcNS_11char_traitsIcEEEEEE                                                                                                                  
0001bd08  _ZTVNSt3__27num_getIwNS_19istreambuf_iteratorIwNS_11char_traitsIwEEEEEE                                                                                                                  
0001bd48  _ZTVNSt3__210moneypunctIcLb0EEE                                                                                                                                                          
0001bd80  _ZTVNSt3__210moneypunctIcLb1EEE                                                                                                                                                          
0001bdb8  _ZTVNSt3__210moneypunctIwLb0EEE                                                                                                                                                          
0001bdf0  _ZTVNSt3__210moneypunctIwLb1EEE                                                                                                                                                          
0001be28  _ZTVNSt3__25ctypeIcEE                                                                                                                                                                    
0001be5c  _ZTVNSt3__27num_putIcNS_19ostreambuf_iteratorIcNS_11char_traitsIcEEEEEE                                                                                                                  
0001be90  _ZTVNSt3__27num_putIwNS_19ostreambuf_iteratorIwNS_11char_traitsIwEEEEEE                                                                                                                  
0001bec4  _ZTSNSt3__215basic_streambufIcNS_11char_traitsIcEEEE                                                                                                                                     
0001bef5  _ZTSNSt3__215basic_streambufIwNS_11char_traitsIwEEEE                                                                                                                                     
0001bf26  _ZZNKSt3__27num_putIcNS_19ostreambuf_iteratorIcNS_11char_traitsIcEEEEE6do_putES4_RNS_8ios_baseEcmEs                                                                                      
0001bf58  _ZTVNSt3__213basic_istreamIcNS_11char_traitsIcEEEE                                                                                                                                       
0001bf80  _ZTTNSt3__213basic_istreamIcNS_11char_traitsIcEEEE                                                                                                                                       
0001bf88  _ZTVNSt3__213basic_istreamIwNS_11char_traitsIwEEEE                                                                                                                                       
0001bfb0  _ZTTNSt3__213basic_istreamIwNS_11char_traitsIwEEEE                                                                                                                                       
0001bfb8  _ZTVNSt3__213basic_ostreamIcNS_11char_traitsIcEEEE                                                                                                                                       
0001bfe0  _ZTTNSt3__213basic_ostreamIcNS_11char_traitsIcEEEE                                                                                                                                       
0001bfe8  _ZTVNSt3__213basic_ostreamIwNS_11char_traitsIwEEEE                                                                                                                                       
0001c010  _ZTTNSt3__213basic_ostreamIwNS_11char_traitsIwEEEE                                                                                                                                       
0001c018  _ZTVNSt3__27codecvtIDiciEE                                                                                                                                                               
0001c048  _ZTVNSt3__27codecvtIDsciEE                                                                                                                                                               
0001c078  _ZTVNSt3__27codecvtIcciEE                                                                                                                                                                
0001c0a8  _ZTVNSt3__27codecvtIwciEE                                                                                                                                                                
0001c0d8  _ZTSNSt3__213basic_istreamIcNS_11char_traitsIcEEEE                                                                                                                                       
0001c107  _ZTSNSt3__213basic_istreamIwNS_11char_traitsIwEEEE                                                                                                                                       
0001c136  _ZTSNSt3__213basic_ostreamIcNS_11char_traitsIcEEEE                                                                                                                                       
0001c165  _ZTSNSt3__213basic_ostreamIwNS_11char_traitsIwEEEE                                                                                                                                       
0001c194  _ZTSNSt3__29basic_iosIcNS_11char_traitsIcEEEE                                                                                                                                            
0001c1be  _ZTSNSt3__29basic_iosIwNS_11char_traitsIwEEEE                                                                                                                                            
0001c1e8  _ZTINSt3__28time_getIcNS_19istreambuf_iteratorIcNS_11char_traitsIcEEEEEE                                                                                                                 
0001c210  _ZTINSt3__28time_getIwNS_19istreambuf_iteratorIwNS_11char_traitsIwEEEEEE                                                                                                                 
0001c238  _ZTVNSt3__28numpunctIcEE                                                                                                                                                                 
0001c260  _ZTVNSt3__28numpunctIwEE                                                                                                                                                                 
0001c288  _ZZNSt3__210__stdinbufIcE5imbueERKNS_6localeEEs                                                                                                                                          
0001c2ae  _ZZNSt3__210__stdinbufIwE5imbueERKNS_6localeEEs                                                                                                                                          
0001c2d4  _ZTSN10__cxxabiv121__vmi_class_type_infoE                                                                                                                                                
0001c2fa  _ZTSN10__cxxabiv120__si_class_type_infoE                                                                                                                                                 
0001c31f  _ZTSN10__cxxabiv117__class_type_infoE                                                                                                                                                    
0001c341  _ZTSNSt3__220__time_get_c_storageIcEE                                                                                                                                                    
0001c363  _ZTSNSt3__220__time_get_c_storageIwEE                                                                                                                                                    
0001c385  _ZZNKSt3__27num_getIcNS_19istreambuf_iteratorIcNS_11char_traitsIcEEEEE6do_getES4_S4_RNS_8ios_baseERjRPvEs                                                                                
0001c388  _ZTINSt3__210moneypunctIcLb0EEE                                                                                                                                                          
0001c3a8  _ZTINSt3__210moneypunctIcLb1EEE                                                                                                                                                          
0001c3c8  _ZTINSt3__210moneypunctIwLb0EEE                                                                                                                                                          
0001c3e8  _ZTINSt3__210moneypunctIwLb1EEE                                                                                                                                                          
0001c408  _ZTINSt3__25ctypeIcEE                                                                                                                                                                    
0001c428  _ZTINSt3__25ctypeIwEE                                                                                                                                                                    
0001c448  _ZTINSt3__27codecvtIDiciEE                                                                                                                                                               
0001c468  _ZTINSt3__27codecvtIDsciEE                                                                                                                                                               
0001c488  _ZTINSt3__27codecvtIcciEE                                                                                                                                                                
0001c4a8  _ZTINSt3__27codecvtIwciEE                                                                                                                                                                
0001c4c8  _ZTINSt3__27num_getIcNS_19istreambuf_iteratorIcNS_11char_traitsIcEEEEEE                                                                                                                  
0001c4e8  _ZTINSt3__27num_getIwNS_19istreambuf_iteratorIwNS_11char_traitsIwEEEEEE                                                                                                                  
0001c508  _ZTINSt3__27num_putIcNS_19ostreambuf_iteratorIcNS_11char_traitsIcEEEEEE                                                                                                                  
0001c528  _ZTINSt3__27num_putIwNS_19ostreambuf_iteratorIwNS_11char_traitsIwEEEEEE                                                                                                                  
0001c548  _ZTINSt3__28messagesIcEE                                                                                                                                                                 
0001c568  _ZTINSt3__28messagesIwEE                                                                                                                                                                 
0001c588  _ZTINSt3__28time_putIcNS_19ostreambuf_iteratorIcNS_11char_traitsIcEEEEEE                                                                                                                 
0001c5a8  _ZTINSt3__28time_putIwNS_19ostreambuf_iteratorIwNS_11char_traitsIwEEEEEE                                                                                                                 
0001c5c8  _ZTINSt3__29money_getIcNS_19istreambuf_iteratorIcNS_11char_traitsIcEEEEEE                                                                                                                
0001c5e8  _ZTINSt3__29money_getIwNS_19istreambuf_iteratorIwNS_11char_traitsIwEEEEEE                                                                                                                
0001c608  _ZTINSt3__29money_putIcNS_19ostreambuf_iteratorIcNS_11char_traitsIcEEEEEE                                                                                                                
0001c628  _ZTINSt3__29money_putIwNS_19ostreambuf_iteratorIwNS_11char_traitsIwEEEEEE                                                                                                                
0001c648  _ZTVNSt3__27collateIcEE                                                                                                                                                                  
0001c668  _ZTVNSt3__27collateIwEE                                                                                                                                                                  
0001c688  _ZTVNSt3__28messagesIcEE                                                                                                                                                                 
0001c6a8  _ZTVNSt3__28messagesIwEE                                                                                                                                                                 
0001c6c8  _ZTSNSt3__210moneypunctIcLb0EEE                                                                                                                                                          
0001c6e4  _ZTSNSt3__210moneypunctIcLb1EEE                                                                                                                                                          
0001c700  _ZTSNSt3__210moneypunctIwLb0EEE                                                                                                                                                          
0001c71c  _ZTSNSt3__210moneypunctIwLb1EEE                                                                                                                                                          
0001c738  _ZTVNSt3__29money_getIcNS_19istreambuf_iteratorIcNS_11char_traitsIcEEEEEE                                                                                                                
0001c754  _ZTVNSt3__29money_getIwNS_19istreambuf_iteratorIwNS_11char_traitsIwEEEEEE                                                                                                                
0001c770  _ZTVNSt3__29money_putIcNS_19ostreambuf_iteratorIcNS_11char_traitsIcEEEEEE                                                                                                                
0001c78c  _ZTVNSt3__29money_putIwNS_19ostreambuf_iteratorIwNS_11char_traitsIwEEEEEE                                                                                                                
0001c7a8  _ZTSNSt3__211__money_getIcEE                                                                                                                                                             
0001c7c1  _ZTSNSt3__211__money_getIwEE                                                                                                                                                             
0001c7da  _ZTSNSt3__211__money_putIcEE                                                                                                                                                             
0001c7f3  _ZTSNSt3__211__money_putIwEE                                                                                                                                                             
0001c80c  _ZTSNSt3__211__stdoutbufIcEE                                                                                                                                                             
0001c825  _ZTSNSt3__211__stdoutbufIwEE                                                                                                                                                             
0001c83e  _ZTSNSt3__214__num_get_baseE                                                                                                                                                             
0001c857  _ZTSNSt3__214__num_put_baseE                                                                                                                                                             
0001c870  _ZTSNSt3__214__shared_countE                                                                                                                                                             
0001c889  _ZZNKSt3__27num_getIwNS_19istreambuf_iteratorIwNS_11char_traitsIwEEEEE6do_getES4_S4_RNS_8ios_baseERjRPvEs                                                                                
0001c88c  _ZTINSt3__213basic_istreamIcNS_11char_traitsIcEEEE                                                                                                                                       
0001c8a4  _ZTINSt3__213basic_istreamIwNS_11char_traitsIwEEEE                                                                                                                                       
0001c8bc  _ZTINSt3__213basic_ostreamIcNS_11char_traitsIcEEEE                                                                                                                                       
0001c8d4  _ZTINSt3__213basic_ostreamIwNS_11char_traitsIwEEEE                                                                                                                                       
0001c8ec  _ZTINSt3__29__num_getIcEE                                                                                                                                                                
0001c904  _ZTINSt3__29__num_getIwEE                                                                                                                                                                
0001c91c  _ZTINSt3__29__num_putIcEE                                                                                                                                                                
0001c934  _ZTINSt3__29__num_putIwEE                                                                                                                                                                
0001c94c  _ZTSNSt3__210__stdinbufIcEE                                                                                                                                                              
0001c964  _ZTSNSt3__210__stdinbufIwEE                                                                                                                                                              
0001c97c  _ZTSNSt3__213messages_baseE                                                                                                                                                              
0001c994  _ZTVNSt3__28time_putIcNS_19ostreambuf_iteratorIcNS_11char_traitsIcEEEEEE                                                                                                                 
0001c9ac  _ZTVNSt3__28time_putIwNS_19ostreambuf_iteratorIwNS_11char_traitsIwEEEEEE                                                                                                                 
0001c9c4  _ZTSNSt3__212codecvt_baseE                                                                                                                                                               
0001c9db  _ZTSNSt3__27codecvtIDiciEE                                                                                                                                                               
0001c9f2  _ZTSNSt3__27codecvtIDsciEE                                                                                                                                                               
0001ca09  _ZTSNSt3__26locale5__impE                                                                                                                                                                
0001ca1f  _ZTSNSt3__26locale5facetE                                                                                                                                                                
0001ca35  _ZTSNSt3__27codecvtIcciEE                                                                                                                                                                
0001ca4b  _ZTSNSt3__27codecvtIwciEE                                                                                                                                                                
0001ca61  _ZTSNSt3__29__num_getIcEE                                                                                                                                                                
0001ca77  _ZTSNSt3__29__num_getIwEE                                                                                                                                                                
0001ca8d  _ZTSNSt3__29__num_putIcEE                                                                                                                                                                
0001caa3  _ZTSNSt3__29__num_putIwEE                                                                                                                                                                
0001cab9  _ZTSNSt3__210__time_putE                                                                                                                                                                 
0001cace  _ZTSNSt3__210ctype_baseE                                                                                                                                                                 
0001cae3  _ZTSNSt3__210money_baseE                                                                                                                                                                 
0001caf8  _ZTSNSt3__28messagesIcEE                                                                                                                                                                 
0001cb0d  _ZTSNSt3__28messagesIwEE                                                                                                                                                                 
0001cb22  _ZTSNSt3__28numpunctIcEE                                                                                                                                                                 
0001cb37  _ZTSNSt3__28numpunctIwEE                                                                                                                                                                 
0001cb4c  _ZTSNSt3__27collateIcEE                                                                                                                                                                  
0001cb60  _ZTSNSt3__27collateIwEE                                                                                                                                                                  
0001cb74  _ZTVNSt3__26locale5__impE                                                                                                                                                                
0001cb88  _ZTVNSt3__26locale5facetE                                                                                                                                                                
0001cb9c  _ZTSNSt3__29time_baseE                                                                                                                                                                   
0001cbaf  _ZTSNSt3__25ctypeIcEE                                                                                                                                                                    
0001cbc1  _ZTSNSt3__25ctypeIwEE                                                                                                                                                                    
0001cbd3  _ZTSNSt3__28ios_baseE                                                                                                                                                                    
0001cbe5  _ZZNKSt3__27num_putIcNS_19ostreambuf_iteratorIcNS_11char_traitsIcEEEEE6do_putES4_RNS_8ios_baseEcxEs                                                                                      
0001cbf8  _ZZNSt3__234_GLOBAL__N__10_string_cpp_11932bae29throw_from_string_invalid_argERKNS_12basic_stringIcNS_11char_traitsIcEENS_9allocatorIcEEEEEs                                             
0001cc08  _ZTVN10__cxxabiv117__class_type_infoE                                                                                                                                                    
0001cc18  _ZTVN10__cxxabiv120__si_class_type_infoE                                                                                                                                                 
0001cc28  _ZTVN10__cxxabiv121__vmi_class_type_infoE                                                                                                                                                
0001cc38  _ZTVNSt3__28ios_baseE                                                                                                                                                                    
0001cc48  _ZTVNSt3__29basic_iosIcNS_11char_traitsIcEEEE                                                                                                                                            
0001cc58  _ZTVNSt3__29basic_iosIwNS_11char_traitsIwEEEE                                                                                                                                            
0001cc68  _ZZNSt3__234_GLOBAL__N__10_string_cpp_11932bae30throw_from_string_out_of_rangeERKNS_12basic_stringIcNS_11char_traitsIcEENS_9allocatorIcEEEEEs                                            
0001cc77  _ZZNKSt3__221__basic_string_commonILb1EE20__throw_length_errorEvEs                                                                                                                       
0001cc84  _ZZNKSt3__221__basic_string_commonILb1EE20__throw_out_of_rangeEvEs                                                                                                                       
0001cc91  _ZTSSt9type_info                                                                                                                                                                         
0001cc9e  _ZZNKSt3__27num_putIwNS_19ostreambuf_iteratorIwNS_11char_traitsIwEEEEE6do_putES4_RNS_8ios_baseEweEs                                                                                      
0001cca0  _ZTIN10__cxxabiv117__class_type_infoE                                                                                                                                                    
0001ccac  _ZTIN10__cxxabiv120__si_class_type_infoE                                                                                                                                                 
0001ccb8  _ZTIN10__cxxabiv121__vmi_class_type_infoE                                                                                                                                                
0001ccc4  _ZTINSt3__210__stdinbufIcEE                                                                                                                                                              
0001ccd0  _ZTINSt3__210__stdinbufIwEE                                                                                                                                                              
0001ccdc  _ZTINSt3__211__stdoutbufIcEE                                                                                                                                                             
0001cce8  _ZTINSt3__211__stdoutbufIwEE                                                                                                                                                             
0001ccf4  _ZTINSt3__26locale5__impE                                                                                                                                                                
0001cd00  _ZTINSt3__26locale5facetE                                                                                                                                                                
0001cd0c  _ZTINSt3__27collateIcEE                                                                                                                                                                  
0001cd18  _ZTINSt3__27collateIwEE                                                                                                                                                                  
0001cd24  _ZTINSt3__28numpunctIcEE                                                                                                                                                                 
0001cd30  _ZTINSt3__28numpunctIwEE                                                                                                                                                                 
0001cd3c  _ZTINSt3__29basic_iosIcNS_11char_traitsIcEEEE                                                                                                                                            
0001cd48  _ZTINSt3__29basic_iosIwNS_11char_traitsIwEEEE                                                                                                                                            
0001cd54  _ZTINSt3__210__time_putE                                                                                                                                                                 
0001cd5c  _ZTINSt3__210ctype_baseE                                                                                                                                                                 
0001cd64  _ZTINSt3__210money_baseE                                                                                                                                                                 
0001cd6c  _ZTINSt3__211__money_getIcEE                                                                                                                                                             
0001cd74  _ZTINSt3__211__money_getIwEE                                                                                                                                                             
0001cd7c  _ZTINSt3__211__money_putIcEE                                                                                                                                                             
0001cd84  _ZTINSt3__211__money_putIwEE                                                                                                                                                             
0001cd8c  _ZTINSt3__212codecvt_baseE                                                                                                                                                               
0001cd94  _ZTINSt3__213messages_baseE                                                                                                                                                              
0001cd9c  _ZTINSt3__214__num_get_baseE                                                                                                                                                             
0001cda4  _ZTINSt3__214__num_put_baseE                                                                                                                                                             
0001cdac  _ZTINSt3__214__shared_countE                                                                                                                                                             
0001cdb4  _ZTINSt3__215basic_streambufIcNS_11char_traitsIcEEEE                                                                                                                                     
0001cdbc  _ZTINSt3__215basic_streambufIwNS_11char_traitsIwEEEE                                                                                                                                     
0001cdc4  _ZTINSt3__220__time_get_c_storageIcEE                                                                                                                                                    
0001cdcc  _ZTINSt3__220__time_get_c_storageIwEE                                                                                                                                                    
0001cdd4  _ZTINSt3__28ios_baseE                                                                                                                                                                    
0001cddc  _ZTINSt3__29time_baseE                                                                                                                                                                   
0001cde4  _ZTISt9type_info                                                                                                                                                                         
0001cdec  _ZZNKSt3__29money_putIcNS_19ostreambuf_iteratorIcNS_11char_traitsIcEEEEE6do_putES4_bRNS_8ios_baseEceEs                                                                                   
0001cdf2  _ZZNKSt3__29money_putIwNS_19ostreambuf_iteratorIwNS_11char_traitsIwEEEEE6do_putES4_bRNS_8ios_baseEweEs                                                                                   
0001cdf8  _ZZNKSt3__29money_getIcNS_19istreambuf_iteratorIcNS_11char_traitsIcEEEEE6do_getES4_S4_bRNS_8ios_baseERjReEs_0                                                                            
0001cdfc  _ZZNKSt3__29money_getIwNS_19istreambuf_iteratorIwNS_11char_traitsIwEEEEE6do_getES4_S4_bRNS_8ios_baseERjReEs_0                                                                            
0001ce00  _ZZNSt3__234_GLOBAL__N__10_string_cpp_11932bae12throw_helperISt12out_of_rangeEEvRKNS_12basic_stringIcNS_11char_traitsIcEENS_9allocatorIcEEEEEs                                           
0001ce04  _ZZNSt3__234_GLOBAL__N__10_string_cpp_11932bae12throw_helperISt16invalid_argumentEEvRKNS_12basic_stringIcNS_11char_traitsIcEENS_9allocatorIcEEEEEs                                       
0001ce08  _ZZNKSt3__27num_putIcNS_19ostreambuf_iteratorIcNS_11char_traitsIcEEEEE6do_putES4_RNS_8ios_baseEcyEs                                                                                      
0001ce0b  _ZZNKSt3__27num_putIwNS_19ostreambuf_iteratorIwNS_11char_traitsIwEEEEE6do_putES4_RNS_8ios_baseEwxEs                                                                                      
0001ce0e  _ZZNKSt3__27num_putIwNS_19ostreambuf_iteratorIwNS_11char_traitsIwEEEEE6do_putES4_RNS_8ios_baseEwyEs                                                                                      
0001ce11  _ZZNKSt3__27num_putIwNS_19ostreambuf_iteratorIwNS_11char_traitsIwEEEEE6do_putES4_RNS_8ios_baseEwlEs                                                                                      
0001ce13  _ZZNKSt3__27num_putIwNS_19ostreambuf_iteratorIwNS_11char_traitsIwEEEEE6do_putES4_RNS_8ios_baseEwmEs                                                                                      
0001ce15  _ZZNKSt3__27num_putIcNS_19ostreambuf_iteratorIcNS_11char_traitsIcEEEEE6do_putES4_RNS_8ios_baseEcdEs                                                                                      
0001ce16  _ZZNKSt3__27num_putIwNS_19ostreambuf_iteratorIwNS_11char_traitsIwEEEEE6do_putES4_RNS_8ios_baseEwdEs                                                                                      
0001ce18  SHT$$INIT_ARRAY$$Base                                                                                                                                                                    
0001ce34  SHT$$INIT_ARRAY$$Limit                                                                                                                                                                   
0001cecc  __TI_Handler_Table_Base                                                                                                                                                                  
0001ced8  __TI_Handler_Table_Limit                                                                                                                                                                 
0001cee0  __TI_CINIT_Base                                                                                                                                                                          
0001cef0  __TI_CINIT_Limit                                                                                                                                                                         
20000000  __stack                                                                                                                                                                                  
20000200  __STACK_TOP                                                                                                                                                                              
20010000  __STACK_END                                                                                                                                                                              
20010000  _sys_memory                                                                                                                                                                              
20020000  _ZNSt3__26locale2id9__next_idE                                                                                                                                                           
2002008c  _ZNSt3__25ctypeIwE2idE                                                                                                                                                                   
20020094  _ZNSt3__25ctypeIcE2idE                                                                                                                                                                   
2002009c  _ZNSt3__27codecvtIcciE2idE                                                                                                                                                               
200200a4  _ZNSt3__27codecvtIwciE2idE                                                                                                                                                               
200200ac  _ZNSt3__27codecvtIDsciE2idE                                                                                                                                                              
200200b4  _ZNSt3__27codecvtIDiciE2idE                                                                                                                                                              
200200bc  _ZNSt3__28numpunctIcE2idE                                                                                                                                                                
200200c4  _ZNSt3__28numpunctIwE2idE                                                                                                                                                                
20020f9c  _ftable                                                                                                                                                                                  
2002108c  _device                                                                                                                                                                                  
20021104  _stream                                                                                                                                                                                  
20021158  _ZN7Monitor16MonitorInstance_E                                                                                                                                                           
20021164  _tz                                                                                                                                                                                      
20021174  __TI_ft_end                                                                                                                                                                              
20021178  __aeabi_stdin                                                                                                                                                                            
2002117c  __aeabi_stdout                                                                                                                                                                           
20021180  __aeabi_stderr                                                                                                                                                                           
20021184  __TI_cleanup_ptr                                                                                                                                                                         
20021188  __TI_dtors_ptr                                                                                                                                                                           
2002118c  __TI_enable_exit_profile_output                                                                                                                                                          
2002119c  _lock                                                                                                                                                                                    
200211a0  _unlock                                                                                                                                                                                  
200211a4  _ZNSt3__210moneypunctIcLb0EE2idE                                                                                                                                                         
200211ac  _ZNSt3__210moneypunctIcLb1EE2idE                                                                                                                                                         
200211b4  _ZNSt3__210moneypunctIwLb0EE2idE                                                                                                                                                         
200211bc  _ZNSt3__210moneypunctIwLb1EE2idE                                                                                                                                                         
200211c4  _ZNSt3__27collateIcE2idE                                                                                                                                                                 
200211cc  _ZNSt3__27collateIwE2idE                                                                                                                                                                 
200211d4  _ZNSt3__27num_getIcNS_19istreambuf_iteratorIcNS_11char_traitsIcEEEEE2idE                                                                                                                 
200211dc  _ZNSt3__27num_getIwNS_19istreambuf_iteratorIwNS_11char_traitsIwEEEEE2idE                                                                                                                 
200211e4  _ZNSt3__27num_putIcNS_19ostreambuf_iteratorIcNS_11char_traitsIcEEEEE2idE                                                                                                                 
200211ec  _ZNSt3__27num_putIwNS_19ostreambuf_iteratorIwNS_11char_traitsIwEEEEE2idE                                                                                                                 
200211f4  _ZNSt3__28messagesIcE2idE                                                                                                                                                                
200211fc  _ZNSt3__28messagesIwE2idE                                                                                                                                                                
20021204  _ZNSt3__28time_getIcNS_19istreambuf_iteratorIcNS_11char_traitsIcEEEEE2idE                                                                                                                
2002120c  _ZNSt3__28time_getIwNS_19istreambuf_iteratorIwNS_11char_traitsIwEEEEE2idE                                                                                                                
20021214  _ZNSt3__28time_putIcNS_19ostreambuf_iteratorIcNS_11char_traitsIcEEEEE2idE                                                                                                                
2002121c  _ZNSt3__28time_putIwNS_19ostreambuf_iteratorIwNS_11char_traitsIwEEEEE2idE                                                                                                                
20021224  _ZNSt3__29money_getIcNS_19istreambuf_iteratorIcNS_11char_traitsIcEEEEE2idE                                                                                                               
2002122c  _ZNSt3__29money_getIwNS_19istreambuf_iteratorIwNS_11char_traitsIwEEEEE2idE                                                                                                               
20021234  _ZNSt3__29money_putIcNS_19ostreambuf_iteratorIcNS_11char_traitsIcEEEEE2idE                                                                                                               
2002123c  _ZNSt3__29money_putIwNS_19ostreambuf_iteratorIwNS_11char_traitsIwEEEEE2idE                                                                                                               
20021244  _ZN13CommandCenter22CommandCenterInstance_E                                                                                                                                              
20021248  _ZN13ISRMsgHandler22ISRMsgHandlerInstance_E                                                                                                                                              
2002124c  _ZN13SysTickDriver22SysTickDriverInstance_E                                                                                                                                              
20021250  _ZN11TimeHandler20TimeHandlerInstance_E                                                                                                                                                  
20021254  _ZN11UART0Driver20UART0DriverInstance_E                                                                                                                                                  
2002125c  errno                                                                                                                                                                                    
200213a8  _ZNSt3__24coutE                                                                                                                                                                          
200213fc  _ZNSt3__25wcoutE                                                                                                                                                                         
20021450  _ZNSt3__24cerrE                                                                                                                                                                          
200214a4  _ZNSt3__25wcerrE                                                                                                                                                                         
200214f8  _ZNSt3__24clogE                                                                                                                                                                          
2002154c  _ZNSt3__25wclogE                                                                                                                                                                         
200215a0  _ZNSt3__23cinE                                                                                                                                                                           
200215f8  _ZNSt3__24wcinE                                                                                                                                                                          
20021650  aardvark                                                                                                                                                                                 
2002165c  beaver                                                                                                                                                                                   
20021668  cow                                                                                                                                                                                      
20021674  dog                                                                                                                                                                                      
20021680  elephant                                                                                                                                                                                 
2002168c  frog                                                                                                                                                                                     
20021698  gorilla                                                                                                                                                                                  
200216a4  horse                                                                                                                                                                                    
200216b0  kangaroo                                                                                                                                                                                 
200216bc  lizard                                                                                                                                                                                   
200216c8  moose                                                                                                                                                                                    
200216d4  octopus                                                                                                                                                                                  
200216e0  parrot                                                                                                                                                                                   
200216ec  rabbit                                                                                                                                                                                   
200216f8  scorpion                                                                                                                                                                                 
20021704  turtle                                                                                                                                                                                   
20021710  unicorn                                                                                                                                                                                  
2002171c  vulture                                                                                                                                                                                  
20021728  wolf                                                                                                                                                                                     
20021734  zebra                                                                                                                                                                                    
20021830  __CIOBUF_                                                                                                                                                                                
20021950  _ZZNSt3__234_GLOBAL__N__10_locale_cpp_a71832034makeINS_6locale5__impEjEERT_T0_E3buf                                                                                                      
200219f0  __TI_tmpnams                                                                                                                                                                             
20021ab0  _ZZNSt3__234_GLOBAL__N__10_locale_cpp_a71832034makeINS_8numpunctIcEEjEERT_T0_E3buf                                                                                                       
20021ac8  _ZZNSt3__234_GLOBAL__N__10_locale_cpp_a71832034makeINS_8numpunctIwEEjEERT_T0_E3buf                                                                                                       
20021ae0  _ZZNSt3__234_GLOBAL__N__10_locale_cpp_a71832034makeINS_5ctypeIcEEDnbjEERT_T0_T1_T2_E3buf                                                                                                 
20021af0  _ZZNSt3__234_GLOBAL__N__10_locale_cpp_a71832034makeINS_7codecvtIwciEEjEERT_T0_E3buf                                                                                                      
20021b00  _ZZNSt3__234_GLOBAL__N__10_locale_cpp_a71832034makeINS_8time_getIcNS_19istreambuf_iteratorIcNS_11char_traitsIcEEEEEEjEERT_T0_E3buf                                                       
20021b10  _ZZNSt3__234_GLOBAL__N__10_locale_cpp_a71832034makeINS_8time_getIwNS_19istreambuf_iteratorIwNS_11char_traitsIwEEEEEEjEERT_T0_E3buf                                                       
20021b20  _ZZNSt3__234_GLOBAL__N__10_locale_cpp_a71832034makeINS_8time_putIcNS_19ostreambuf_iteratorIcNS_11char_traitsIcEEEEEEjEERT_T0_E3buf                                                       
20021b30  _ZZNSt3__234_GLOBAL__N__10_locale_cpp_a71832034makeINS_8time_putIwNS_19ostreambuf_iteratorIwNS_11char_traitsIwEEEEEEjEERT_T0_E3buf                                                       
20021b40  _ZZNSt3__234_GLOBAL__N__10_locale_cpp_a71832034makeINS_10moneypunctIcLb0EEEjEERT_T0_E3buf                                                                                                
20021b48  _ZZNSt3__234_GLOBAL__N__10_locale_cpp_a71832034makeINS_10moneypunctIcLb1EEEjEERT_T0_E3buf                                                                                                
20021b50  _ZZNSt3__234_GLOBAL__N__10_locale_cpp_a71832034makeINS_10moneypunctIwLb0EEEjEERT_T0_E3buf                                                                                                
20021b58  _ZZNSt3__234_GLOBAL__N__10_locale_cpp_a71832034makeINS_10moneypunctIwLb1EEEjEERT_T0_E3buf                                                                                                
20021b60  _ZZNSt3__234_GLOBAL__N__10_locale_cpp_a71832034makeINS_5ctypeIwEEjEERT_T0_E3buf                                                                                                          
20021b68  _ZZNSt3__234_GLOBAL__N__10_locale_cpp_a71832034makeINS_7codecvtIDiciEEjEERT_T0_E3buf                                                                                                     
20021b70  _ZZNSt3__234_GLOBAL__N__10_locale_cpp_a71832034makeINS_7codecvtIDsciEEjEERT_T0_E3buf                                                                                                     
20021b78  _ZZNSt3__234_GLOBAL__N__10_locale_cpp_a71832034makeINS_7codecvtIcciEEjEERT_T0_E3buf                                                                                                      
20021b80  _ZZNSt3__234_GLOBAL__N__10_locale_cpp_a71832034makeINS_7collateIcEEjEERT_T0_E3buf                                                                                                        
20021b88  _ZZNSt3__234_GLOBAL__N__10_locale_cpp_a71832034makeINS_7collateIwEEjEERT_T0_E3buf                                                                                                        
20021b90  _ZZNSt3__234_GLOBAL__N__10_locale_cpp_a71832034makeINS_7num_getIcNS_19istreambuf_iteratorIcNS_11char_traitsIcEEEEEEjEERT_T0_E3buf                                                        
20021b98  _ZZNSt3__234_GLOBAL__N__10_locale_cpp_a71832034makeINS_7num_getIwNS_19istreambuf_iteratorIwNS_11char_traitsIwEEEEEEjEERT_T0_E3buf                                                        
20021ba0  _ZZNSt3__234_GLOBAL__N__10_locale_cpp_a71832034makeINS_7num_putIcNS_19ostreambuf_iteratorIcNS_11char_traitsIcEEEEEEjEERT_T0_E3buf                                                        
20021ba8  _ZZNSt3__234_GLOBAL__N__10_locale_cpp_a71832034makeINS_7num_putIwNS_19ostreambuf_iteratorIwNS_11char_traitsIwEEEEEEjEERT_T0_E3buf                                                        
20021bb0  _ZZNSt3__234_GLOBAL__N__10_locale_cpp_a71832034makeINS_8messagesIcEEjEERT_T0_E3buf                                                                                                       
20021bb8  _ZZNSt3__234_GLOBAL__N__10_locale_cpp_a71832034makeINS_8messagesIwEEjEERT_T0_E3buf                                                                                                       
20021bc0  _ZZNSt3__234_GLOBAL__N__10_locale_cpp_a71832034makeINS_9money_getIcNS_19istreambuf_iteratorIcNS_11char_traitsIcEEEEEEjEERT_T0_E3buf                                                      
20021bc8  _ZZNSt3__234_GLOBAL__N__10_locale_cpp_a71832034makeINS_9money_getIwNS_19istreambuf_iteratorIwNS_11char_traitsIwEEEEEEjEERT_T0_E3buf                                                      
20021bd0  _ZZNSt3__234_GLOBAL__N__10_locale_cpp_a71832034makeINS_9money_putIcNS_19ostreambuf_iteratorIcNS_11char_traitsIcEEEEEEjEERT_T0_E3buf                                                      
20021bd8  _ZZNSt3__234_GLOBAL__N__10_locale_cpp_a71832034makeINS_9money_putIwNS_19ostreambuf_iteratorIwNS_11char_traitsIwEEEEEEjEERT_T0_E3buf                                                      
20021be0  parmbuf                                                                                                                                                                                  
20021be8  __dso_handle                                                                                                                                                                             
20021bec  _ZNSt3__219__start_std_streamsE                                                                                                                                                          
ffffffff  __TI_pprof_out_hndl                                                                                                                                                                      
ffffffff  __TI_prof_data_size                                                                                                                                                                      
ffffffff  __TI_prof_data_start                                                                                                                                                                     
ffffffff  __binit__                                                                                                                                                                                
ffffffff  __c_args__                                                                                                                                                                               
ffffffff  binit                                                                                                                                                                                    
UNDEFED   __mpu_init                                                                                                                                                                               
UNDEFED   _system_post_cinit                                                                                                                                                                       

[1224 symbols]
